
Sentry_uarm_2020_new_new.elf:     file format elf32-littlearm

Sections:
Idx Name          Size      VMA       LMA       File off  Algn
  0 .isr_vector   000001ac  08000000  08000000  00010000  2**0
                  CONTENTS, ALLOC, LOAD, READONLY, DATA
  1 .text         00009d9c  080001b0  080001b0  000101b0  2**4
                  CONTENTS, ALLOC, LOAD, READONLY, CODE
  2 .rodata       000002a8  08009f50  08009f50  00019f50  2**3
                  CONTENTS, ALLOC, LOAD, READONLY, DATA
  3 .ARM.extab    00000000  0800a1f8  0800a1f8  00020078  2**0
                  CONTENTS
  4 .ARM          00000008  0800a1f8  0800a1f8  0001a1f8  2**2
                  CONTENTS, ALLOC, LOAD, READONLY, DATA
  5 .preinit_array 00000000  0800a200  0800a200  00020078  2**0
                  CONTENTS, ALLOC, LOAD, DATA
  6 .init_array   00000004  0800a200  0800a200  0001a200  2**2
                  CONTENTS, ALLOC, LOAD, DATA
  7 .fini_array   00000004  0800a204  0800a204  0001a204  2**2
                  CONTENTS, ALLOC, LOAD, DATA
  8 .data         00000078  20000000  0800a208  00020000  2**2
                  CONTENTS, ALLOC, LOAD, DATA
  9 .bss          00004404  20000078  0800a280  00020078  2**3
                  ALLOC
 10 ._user_heap_stack 00000604  2000447c  0800a280  0002447c  2**0
                  ALLOC
 11 .ARM.attributes 00000030  00000000  00000000  00020078  2**0
                  CONTENTS, READONLY
 12 .debug_info   0002083c  00000000  00000000  000200a8  2**0
                  CONTENTS, READONLY, DEBUGGING
 13 .debug_abbrev 00004585  00000000  00000000  000408e4  2**0
                  CONTENTS, READONLY, DEBUGGING
 14 .debug_aranges 000015d0  00000000  00000000  00044e70  2**3
                  CONTENTS, READONLY, DEBUGGING
 15 .debug_ranges 000013c8  00000000  00000000  00046440  2**3
                  CONTENTS, READONLY, DEBUGGING
 16 .debug_macro  00028046  00000000  00000000  00047808  2**0
                  CONTENTS, READONLY, DEBUGGING
 17 .debug_line   000142fb  00000000  00000000  0006f84e  2**0
                  CONTENTS, READONLY, DEBUGGING
 18 .debug_str    000e366c  00000000  00000000  00083b49  2**0
                  CONTENTS, READONLY, DEBUGGING
 19 .comment      0000007b  00000000  00000000  001671b5  2**0
                  CONTENTS, READONLY
 20 .debug_frame  0000638c  00000000  00000000  00167230  2**2
                  CONTENTS, READONLY, DEBUGGING

Disassembly of section .text:

080001b0 <__do_global_dtors_aux>:
 80001b0:	b510      	push	{r4, lr}
 80001b2:	4c05      	ldr	r4, [pc, #20]	; (80001c8 <__do_global_dtors_aux+0x18>)
 80001b4:	7823      	ldrb	r3, [r4, #0]
 80001b6:	b933      	cbnz	r3, 80001c6 <__do_global_dtors_aux+0x16>
 80001b8:	4b04      	ldr	r3, [pc, #16]	; (80001cc <__do_global_dtors_aux+0x1c>)
 80001ba:	b113      	cbz	r3, 80001c2 <__do_global_dtors_aux+0x12>
 80001bc:	4804      	ldr	r0, [pc, #16]	; (80001d0 <__do_global_dtors_aux+0x20>)
 80001be:	f3af 8000 	nop.w
 80001c2:	2301      	movs	r3, #1
 80001c4:	7023      	strb	r3, [r4, #0]
 80001c6:	bd10      	pop	{r4, pc}
 80001c8:	20000078 	.word	0x20000078
 80001cc:	00000000 	.word	0x00000000
 80001d0:	08009f34 	.word	0x08009f34

080001d4 <frame_dummy>:
 80001d4:	b508      	push	{r3, lr}
 80001d6:	4b03      	ldr	r3, [pc, #12]	; (80001e4 <frame_dummy+0x10>)
 80001d8:	b11b      	cbz	r3, 80001e2 <frame_dummy+0xe>
 80001da:	4903      	ldr	r1, [pc, #12]	; (80001e8 <frame_dummy+0x14>)
 80001dc:	4803      	ldr	r0, [pc, #12]	; (80001ec <frame_dummy+0x18>)
 80001de:	f3af 8000 	nop.w
 80001e2:	bd08      	pop	{r3, pc}
 80001e4:	00000000 	.word	0x00000000
 80001e8:	2000007c 	.word	0x2000007c
 80001ec:	08009f34 	.word	0x08009f34

080001f0 <memchr>:
 80001f0:	f001 01ff 	and.w	r1, r1, #255	; 0xff
 80001f4:	2a10      	cmp	r2, #16
 80001f6:	db2b      	blt.n	8000250 <memchr+0x60>
 80001f8:	f010 0f07 	tst.w	r0, #7
 80001fc:	d008      	beq.n	8000210 <memchr+0x20>
 80001fe:	f810 3b01 	ldrb.w	r3, [r0], #1
 8000202:	3a01      	subs	r2, #1
 8000204:	428b      	cmp	r3, r1
 8000206:	d02d      	beq.n	8000264 <memchr+0x74>
 8000208:	f010 0f07 	tst.w	r0, #7
 800020c:	b342      	cbz	r2, 8000260 <memchr+0x70>
 800020e:	d1f6      	bne.n	80001fe <memchr+0xe>
 8000210:	b4f0      	push	{r4, r5, r6, r7}
 8000212:	ea41 2101 	orr.w	r1, r1, r1, lsl #8
 8000216:	ea41 4101 	orr.w	r1, r1, r1, lsl #16
 800021a:	f022 0407 	bic.w	r4, r2, #7
 800021e:	f07f 0700 	mvns.w	r7, #0
 8000222:	2300      	movs	r3, #0
 8000224:	e8f0 5602 	ldrd	r5, r6, [r0], #8
 8000228:	3c08      	subs	r4, #8
 800022a:	ea85 0501 	eor.w	r5, r5, r1
 800022e:	ea86 0601 	eor.w	r6, r6, r1
 8000232:	fa85 f547 	uadd8	r5, r5, r7
 8000236:	faa3 f587 	sel	r5, r3, r7
 800023a:	fa86 f647 	uadd8	r6, r6, r7
 800023e:	faa5 f687 	sel	r6, r5, r7
 8000242:	b98e      	cbnz	r6, 8000268 <memchr+0x78>
 8000244:	d1ee      	bne.n	8000224 <memchr+0x34>
 8000246:	bcf0      	pop	{r4, r5, r6, r7}
 8000248:	f001 01ff 	and.w	r1, r1, #255	; 0xff
 800024c:	f002 0207 	and.w	r2, r2, #7
 8000250:	b132      	cbz	r2, 8000260 <memchr+0x70>
 8000252:	f810 3b01 	ldrb.w	r3, [r0], #1
 8000256:	3a01      	subs	r2, #1
 8000258:	ea83 0301 	eor.w	r3, r3, r1
 800025c:	b113      	cbz	r3, 8000264 <memchr+0x74>
 800025e:	d1f8      	bne.n	8000252 <memchr+0x62>
 8000260:	2000      	movs	r0, #0
 8000262:	4770      	bx	lr
 8000264:	3801      	subs	r0, #1
 8000266:	4770      	bx	lr
 8000268:	2d00      	cmp	r5, #0
 800026a:	bf06      	itte	eq
 800026c:	4635      	moveq	r5, r6
 800026e:	3803      	subeq	r0, #3
 8000270:	3807      	subne	r0, #7
 8000272:	f015 0f01 	tst.w	r5, #1
 8000276:	d107      	bne.n	8000288 <memchr+0x98>
 8000278:	3001      	adds	r0, #1
 800027a:	f415 7f80 	tst.w	r5, #256	; 0x100
 800027e:	bf02      	ittt	eq
 8000280:	3001      	addeq	r0, #1
 8000282:	f415 3fc0 	tsteq.w	r5, #98304	; 0x18000
 8000286:	3001      	addeq	r0, #1
 8000288:	bcf0      	pop	{r4, r5, r6, r7}
 800028a:	3801      	subs	r0, #1
 800028c:	4770      	bx	lr
 800028e:	bf00      	nop

08000290 <__aeabi_drsub>:
 8000290:	f081 4100 	eor.w	r1, r1, #2147483648	; 0x80000000
 8000294:	e002      	b.n	800029c <__adddf3>
 8000296:	bf00      	nop

08000298 <__aeabi_dsub>:
 8000298:	f083 4300 	eor.w	r3, r3, #2147483648	; 0x80000000

0800029c <__adddf3>:
 800029c:	b530      	push	{r4, r5, lr}
 800029e:	ea4f 0441 	mov.w	r4, r1, lsl #1
 80002a2:	ea4f 0543 	mov.w	r5, r3, lsl #1
 80002a6:	ea94 0f05 	teq	r4, r5
 80002aa:	bf08      	it	eq
 80002ac:	ea90 0f02 	teqeq	r0, r2
 80002b0:	bf1f      	itttt	ne
 80002b2:	ea54 0c00 	orrsne.w	ip, r4, r0
 80002b6:	ea55 0c02 	orrsne.w	ip, r5, r2
 80002ba:	ea7f 5c64 	mvnsne.w	ip, r4, asr #21
 80002be:	ea7f 5c65 	mvnsne.w	ip, r5, asr #21
 80002c2:	f000 80e2 	beq.w	800048a <__adddf3+0x1ee>
 80002c6:	ea4f 5454 	mov.w	r4, r4, lsr #21
 80002ca:	ebd4 5555 	rsbs	r5, r4, r5, lsr #21
 80002ce:	bfb8      	it	lt
 80002d0:	426d      	neglt	r5, r5
 80002d2:	dd0c      	ble.n	80002ee <__adddf3+0x52>
 80002d4:	442c      	add	r4, r5
 80002d6:	ea80 0202 	eor.w	r2, r0, r2
 80002da:	ea81 0303 	eor.w	r3, r1, r3
 80002de:	ea82 0000 	eor.w	r0, r2, r0
 80002e2:	ea83 0101 	eor.w	r1, r3, r1
 80002e6:	ea80 0202 	eor.w	r2, r0, r2
 80002ea:	ea81 0303 	eor.w	r3, r1, r3
 80002ee:	2d36      	cmp	r5, #54	; 0x36
 80002f0:	bf88      	it	hi
 80002f2:	bd30      	pophi	{r4, r5, pc}
 80002f4:	f011 4f00 	tst.w	r1, #2147483648	; 0x80000000
 80002f8:	ea4f 3101 	mov.w	r1, r1, lsl #12
 80002fc:	f44f 1c80 	mov.w	ip, #1048576	; 0x100000
 8000300:	ea4c 3111 	orr.w	r1, ip, r1, lsr #12
 8000304:	d002      	beq.n	800030c <__adddf3+0x70>
 8000306:	4240      	negs	r0, r0
 8000308:	eb61 0141 	sbc.w	r1, r1, r1, lsl #1
 800030c:	f013 4f00 	tst.w	r3, #2147483648	; 0x80000000
 8000310:	ea4f 3303 	mov.w	r3, r3, lsl #12
 8000314:	ea4c 3313 	orr.w	r3, ip, r3, lsr #12
 8000318:	d002      	beq.n	8000320 <__adddf3+0x84>
 800031a:	4252      	negs	r2, r2
 800031c:	eb63 0343 	sbc.w	r3, r3, r3, lsl #1
 8000320:	ea94 0f05 	teq	r4, r5
 8000324:	f000 80a7 	beq.w	8000476 <__adddf3+0x1da>
 8000328:	f1a4 0401 	sub.w	r4, r4, #1
 800032c:	f1d5 0e20 	rsbs	lr, r5, #32
 8000330:	db0d      	blt.n	800034e <__adddf3+0xb2>
 8000332:	fa02 fc0e 	lsl.w	ip, r2, lr
 8000336:	fa22 f205 	lsr.w	r2, r2, r5
 800033a:	1880      	adds	r0, r0, r2
 800033c:	f141 0100 	adc.w	r1, r1, #0
 8000340:	fa03 f20e 	lsl.w	r2, r3, lr
 8000344:	1880      	adds	r0, r0, r2
 8000346:	fa43 f305 	asr.w	r3, r3, r5
 800034a:	4159      	adcs	r1, r3
 800034c:	e00e      	b.n	800036c <__adddf3+0xd0>
 800034e:	f1a5 0520 	sub.w	r5, r5, #32
 8000352:	f10e 0e20 	add.w	lr, lr, #32
 8000356:	2a01      	cmp	r2, #1
 8000358:	fa03 fc0e 	lsl.w	ip, r3, lr
 800035c:	bf28      	it	cs
 800035e:	f04c 0c02 	orrcs.w	ip, ip, #2
 8000362:	fa43 f305 	asr.w	r3, r3, r5
 8000366:	18c0      	adds	r0, r0, r3
 8000368:	eb51 71e3 	adcs.w	r1, r1, r3, asr #31
 800036c:	f001 4500 	and.w	r5, r1, #2147483648	; 0x80000000
 8000370:	d507      	bpl.n	8000382 <__adddf3+0xe6>
 8000372:	f04f 0e00 	mov.w	lr, #0
 8000376:	f1dc 0c00 	rsbs	ip, ip, #0
 800037a:	eb7e 0000 	sbcs.w	r0, lr, r0
 800037e:	eb6e 0101 	sbc.w	r1, lr, r1
 8000382:	f5b1 1f80 	cmp.w	r1, #1048576	; 0x100000
 8000386:	d31b      	bcc.n	80003c0 <__adddf3+0x124>
 8000388:	f5b1 1f00 	cmp.w	r1, #2097152	; 0x200000
 800038c:	d30c      	bcc.n	80003a8 <__adddf3+0x10c>
 800038e:	0849      	lsrs	r1, r1, #1
 8000390:	ea5f 0030 	movs.w	r0, r0, rrx
 8000394:	ea4f 0c3c 	mov.w	ip, ip, rrx
 8000398:	f104 0401 	add.w	r4, r4, #1
 800039c:	ea4f 5244 	mov.w	r2, r4, lsl #21
 80003a0:	f512 0f80 	cmn.w	r2, #4194304	; 0x400000
 80003a4:	f080 809a 	bcs.w	80004dc <__adddf3+0x240>
 80003a8:	f1bc 4f00 	cmp.w	ip, #2147483648	; 0x80000000
 80003ac:	bf08      	it	eq
 80003ae:	ea5f 0c50 	movseq.w	ip, r0, lsr #1
 80003b2:	f150 0000 	adcs.w	r0, r0, #0
 80003b6:	eb41 5104 	adc.w	r1, r1, r4, lsl #20
 80003ba:	ea41 0105 	orr.w	r1, r1, r5
 80003be:	bd30      	pop	{r4, r5, pc}
 80003c0:	ea5f 0c4c 	movs.w	ip, ip, lsl #1
 80003c4:	4140      	adcs	r0, r0
 80003c6:	eb41 0101 	adc.w	r1, r1, r1
 80003ca:	f411 1f80 	tst.w	r1, #1048576	; 0x100000
 80003ce:	f1a4 0401 	sub.w	r4, r4, #1
 80003d2:	d1e9      	bne.n	80003a8 <__adddf3+0x10c>
 80003d4:	f091 0f00 	teq	r1, #0
 80003d8:	bf04      	itt	eq
 80003da:	4601      	moveq	r1, r0
 80003dc:	2000      	moveq	r0, #0
 80003de:	fab1 f381 	clz	r3, r1
 80003e2:	bf08      	it	eq
 80003e4:	3320      	addeq	r3, #32
 80003e6:	f1a3 030b 	sub.w	r3, r3, #11
 80003ea:	f1b3 0220 	subs.w	r2, r3, #32
 80003ee:	da0c      	bge.n	800040a <__adddf3+0x16e>
 80003f0:	320c      	adds	r2, #12
 80003f2:	dd08      	ble.n	8000406 <__adddf3+0x16a>
 80003f4:	f102 0c14 	add.w	ip, r2, #20
 80003f8:	f1c2 020c 	rsb	r2, r2, #12
 80003fc:	fa01 f00c 	lsl.w	r0, r1, ip
 8000400:	fa21 f102 	lsr.w	r1, r1, r2
 8000404:	e00c      	b.n	8000420 <__adddf3+0x184>
 8000406:	f102 0214 	add.w	r2, r2, #20
 800040a:	bfd8      	it	le
 800040c:	f1c2 0c20 	rsble	ip, r2, #32
 8000410:	fa01 f102 	lsl.w	r1, r1, r2
 8000414:	fa20 fc0c 	lsr.w	ip, r0, ip
 8000418:	bfdc      	itt	le
 800041a:	ea41 010c 	orrle.w	r1, r1, ip
 800041e:	4090      	lslle	r0, r2
 8000420:	1ae4      	subs	r4, r4, r3
 8000422:	bfa2      	ittt	ge
 8000424:	eb01 5104 	addge.w	r1, r1, r4, lsl #20
 8000428:	4329      	orrge	r1, r5
 800042a:	bd30      	popge	{r4, r5, pc}
 800042c:	ea6f 0404 	mvn.w	r4, r4
 8000430:	3c1f      	subs	r4, #31
 8000432:	da1c      	bge.n	800046e <__adddf3+0x1d2>
 8000434:	340c      	adds	r4, #12
 8000436:	dc0e      	bgt.n	8000456 <__adddf3+0x1ba>
 8000438:	f104 0414 	add.w	r4, r4, #20
 800043c:	f1c4 0220 	rsb	r2, r4, #32
 8000440:	fa20 f004 	lsr.w	r0, r0, r4
 8000444:	fa01 f302 	lsl.w	r3, r1, r2
 8000448:	ea40 0003 	orr.w	r0, r0, r3
 800044c:	fa21 f304 	lsr.w	r3, r1, r4
 8000450:	ea45 0103 	orr.w	r1, r5, r3
 8000454:	bd30      	pop	{r4, r5, pc}
 8000456:	f1c4 040c 	rsb	r4, r4, #12
 800045a:	f1c4 0220 	rsb	r2, r4, #32
 800045e:	fa20 f002 	lsr.w	r0, r0, r2
 8000462:	fa01 f304 	lsl.w	r3, r1, r4
 8000466:	ea40 0003 	orr.w	r0, r0, r3
 800046a:	4629      	mov	r1, r5
 800046c:	bd30      	pop	{r4, r5, pc}
 800046e:	fa21 f004 	lsr.w	r0, r1, r4
 8000472:	4629      	mov	r1, r5
 8000474:	bd30      	pop	{r4, r5, pc}
 8000476:	f094 0f00 	teq	r4, #0
 800047a:	f483 1380 	eor.w	r3, r3, #1048576	; 0x100000
 800047e:	bf06      	itte	eq
 8000480:	f481 1180 	eoreq.w	r1, r1, #1048576	; 0x100000
 8000484:	3401      	addeq	r4, #1
 8000486:	3d01      	subne	r5, #1
 8000488:	e74e      	b.n	8000328 <__adddf3+0x8c>
 800048a:	ea7f 5c64 	mvns.w	ip, r4, asr #21
 800048e:	bf18      	it	ne
 8000490:	ea7f 5c65 	mvnsne.w	ip, r5, asr #21
 8000494:	d029      	beq.n	80004ea <__adddf3+0x24e>
 8000496:	ea94 0f05 	teq	r4, r5
 800049a:	bf08      	it	eq
 800049c:	ea90 0f02 	teqeq	r0, r2
 80004a0:	d005      	beq.n	80004ae <__adddf3+0x212>
 80004a2:	ea54 0c00 	orrs.w	ip, r4, r0
 80004a6:	bf04      	itt	eq
 80004a8:	4619      	moveq	r1, r3
 80004aa:	4610      	moveq	r0, r2
 80004ac:	bd30      	pop	{r4, r5, pc}
 80004ae:	ea91 0f03 	teq	r1, r3
 80004b2:	bf1e      	ittt	ne
 80004b4:	2100      	movne	r1, #0
 80004b6:	2000      	movne	r0, #0
 80004b8:	bd30      	popne	{r4, r5, pc}
 80004ba:	ea5f 5c54 	movs.w	ip, r4, lsr #21
 80004be:	d105      	bne.n	80004cc <__adddf3+0x230>
 80004c0:	0040      	lsls	r0, r0, #1
 80004c2:	4149      	adcs	r1, r1
 80004c4:	bf28      	it	cs
 80004c6:	f041 4100 	orrcs.w	r1, r1, #2147483648	; 0x80000000
 80004ca:	bd30      	pop	{r4, r5, pc}
 80004cc:	f514 0480 	adds.w	r4, r4, #4194304	; 0x400000
 80004d0:	bf3c      	itt	cc
 80004d2:	f501 1180 	addcc.w	r1, r1, #1048576	; 0x100000
 80004d6:	bd30      	popcc	{r4, r5, pc}
 80004d8:	f001 4500 	and.w	r5, r1, #2147483648	; 0x80000000
 80004dc:	f045 41fe 	orr.w	r1, r5, #2130706432	; 0x7f000000
 80004e0:	f441 0170 	orr.w	r1, r1, #15728640	; 0xf00000
 80004e4:	f04f 0000 	mov.w	r0, #0
 80004e8:	bd30      	pop	{r4, r5, pc}
 80004ea:	ea7f 5c64 	mvns.w	ip, r4, asr #21
 80004ee:	bf1a      	itte	ne
 80004f0:	4619      	movne	r1, r3
 80004f2:	4610      	movne	r0, r2
 80004f4:	ea7f 5c65 	mvnseq.w	ip, r5, asr #21
 80004f8:	bf1c      	itt	ne
 80004fa:	460b      	movne	r3, r1
 80004fc:	4602      	movne	r2, r0
 80004fe:	ea50 3401 	orrs.w	r4, r0, r1, lsl #12
 8000502:	bf06      	itte	eq
 8000504:	ea52 3503 	orrseq.w	r5, r2, r3, lsl #12
 8000508:	ea91 0f03 	teqeq	r1, r3
 800050c:	f441 2100 	orrne.w	r1, r1, #524288	; 0x80000
 8000510:	bd30      	pop	{r4, r5, pc}
 8000512:	bf00      	nop

08000514 <__aeabi_ui2d>:
 8000514:	f090 0f00 	teq	r0, #0
 8000518:	bf04      	itt	eq
 800051a:	2100      	moveq	r1, #0
 800051c:	4770      	bxeq	lr
 800051e:	b530      	push	{r4, r5, lr}
 8000520:	f44f 6480 	mov.w	r4, #1024	; 0x400
 8000524:	f104 0432 	add.w	r4, r4, #50	; 0x32
 8000528:	f04f 0500 	mov.w	r5, #0
 800052c:	f04f 0100 	mov.w	r1, #0
 8000530:	e750      	b.n	80003d4 <__adddf3+0x138>
 8000532:	bf00      	nop

08000534 <__aeabi_i2d>:
 8000534:	f090 0f00 	teq	r0, #0
 8000538:	bf04      	itt	eq
 800053a:	2100      	moveq	r1, #0
 800053c:	4770      	bxeq	lr
 800053e:	b530      	push	{r4, r5, lr}
 8000540:	f44f 6480 	mov.w	r4, #1024	; 0x400
 8000544:	f104 0432 	add.w	r4, r4, #50	; 0x32
 8000548:	f010 4500 	ands.w	r5, r0, #2147483648	; 0x80000000
 800054c:	bf48      	it	mi
 800054e:	4240      	negmi	r0, r0
 8000550:	f04f 0100 	mov.w	r1, #0
 8000554:	e73e      	b.n	80003d4 <__adddf3+0x138>
 8000556:	bf00      	nop

08000558 <__aeabi_f2d>:
 8000558:	0042      	lsls	r2, r0, #1
 800055a:	ea4f 01e2 	mov.w	r1, r2, asr #3
 800055e:	ea4f 0131 	mov.w	r1, r1, rrx
 8000562:	ea4f 7002 	mov.w	r0, r2, lsl #28
 8000566:	bf1f      	itttt	ne
 8000568:	f012 437f 	andsne.w	r3, r2, #4278190080	; 0xff000000
 800056c:	f093 4f7f 	teqne	r3, #4278190080	; 0xff000000
 8000570:	f081 5160 	eorne.w	r1, r1, #939524096	; 0x38000000
 8000574:	4770      	bxne	lr
 8000576:	f032 427f 	bics.w	r2, r2, #4278190080	; 0xff000000
 800057a:	bf08      	it	eq
 800057c:	4770      	bxeq	lr
 800057e:	f093 4f7f 	teq	r3, #4278190080	; 0xff000000
 8000582:	bf04      	itt	eq
 8000584:	f441 2100 	orreq.w	r1, r1, #524288	; 0x80000
 8000588:	4770      	bxeq	lr
 800058a:	b530      	push	{r4, r5, lr}
 800058c:	f44f 7460 	mov.w	r4, #896	; 0x380
 8000590:	f001 4500 	and.w	r5, r1, #2147483648	; 0x80000000
 8000594:	f021 4100 	bic.w	r1, r1, #2147483648	; 0x80000000
 8000598:	e71c      	b.n	80003d4 <__adddf3+0x138>
 800059a:	bf00      	nop

0800059c <__aeabi_ul2d>:
 800059c:	ea50 0201 	orrs.w	r2, r0, r1
 80005a0:	bf08      	it	eq
 80005a2:	4770      	bxeq	lr
 80005a4:	b530      	push	{r4, r5, lr}
 80005a6:	f04f 0500 	mov.w	r5, #0
 80005aa:	e00a      	b.n	80005c2 <__aeabi_l2d+0x16>

080005ac <__aeabi_l2d>:
 80005ac:	ea50 0201 	orrs.w	r2, r0, r1
 80005b0:	bf08      	it	eq
 80005b2:	4770      	bxeq	lr
 80005b4:	b530      	push	{r4, r5, lr}
 80005b6:	f011 4500 	ands.w	r5, r1, #2147483648	; 0x80000000
 80005ba:	d502      	bpl.n	80005c2 <__aeabi_l2d+0x16>
 80005bc:	4240      	negs	r0, r0
 80005be:	eb61 0141 	sbc.w	r1, r1, r1, lsl #1
 80005c2:	f44f 6480 	mov.w	r4, #1024	; 0x400
 80005c6:	f104 0432 	add.w	r4, r4, #50	; 0x32
 80005ca:	ea5f 5c91 	movs.w	ip, r1, lsr #22
 80005ce:	f43f aed8 	beq.w	8000382 <__adddf3+0xe6>
 80005d2:	f04f 0203 	mov.w	r2, #3
 80005d6:	ea5f 0cdc 	movs.w	ip, ip, lsr #3
 80005da:	bf18      	it	ne
 80005dc:	3203      	addne	r2, #3
 80005de:	ea5f 0cdc 	movs.w	ip, ip, lsr #3
 80005e2:	bf18      	it	ne
 80005e4:	3203      	addne	r2, #3
 80005e6:	eb02 02dc 	add.w	r2, r2, ip, lsr #3
 80005ea:	f1c2 0320 	rsb	r3, r2, #32
 80005ee:	fa00 fc03 	lsl.w	ip, r0, r3
 80005f2:	fa20 f002 	lsr.w	r0, r0, r2
 80005f6:	fa01 fe03 	lsl.w	lr, r1, r3
 80005fa:	ea40 000e 	orr.w	r0, r0, lr
 80005fe:	fa21 f102 	lsr.w	r1, r1, r2
 8000602:	4414      	add	r4, r2
 8000604:	e6bd      	b.n	8000382 <__adddf3+0xe6>
 8000606:	bf00      	nop

08000608 <__aeabi_dmul>:
 8000608:	b570      	push	{r4, r5, r6, lr}
 800060a:	f04f 0cff 	mov.w	ip, #255	; 0xff
 800060e:	f44c 6ce0 	orr.w	ip, ip, #1792	; 0x700
 8000612:	ea1c 5411 	ands.w	r4, ip, r1, lsr #20
 8000616:	bf1d      	ittte	ne
 8000618:	ea1c 5513 	andsne.w	r5, ip, r3, lsr #20
 800061c:	ea94 0f0c 	teqne	r4, ip
 8000620:	ea95 0f0c 	teqne	r5, ip
 8000624:	f000 f8de 	bleq	80007e4 <__aeabi_dmul+0x1dc>
 8000628:	442c      	add	r4, r5
 800062a:	ea81 0603 	eor.w	r6, r1, r3
 800062e:	ea21 514c 	bic.w	r1, r1, ip, lsl #21
 8000632:	ea23 534c 	bic.w	r3, r3, ip, lsl #21
 8000636:	ea50 3501 	orrs.w	r5, r0, r1, lsl #12
 800063a:	bf18      	it	ne
 800063c:	ea52 3503 	orrsne.w	r5, r2, r3, lsl #12
 8000640:	f441 1180 	orr.w	r1, r1, #1048576	; 0x100000
 8000644:	f443 1380 	orr.w	r3, r3, #1048576	; 0x100000
 8000648:	d038      	beq.n	80006bc <__aeabi_dmul+0xb4>
 800064a:	fba0 ce02 	umull	ip, lr, r0, r2
 800064e:	f04f 0500 	mov.w	r5, #0
 8000652:	fbe1 e502 	umlal	lr, r5, r1, r2
 8000656:	f006 4200 	and.w	r2, r6, #2147483648	; 0x80000000
 800065a:	fbe0 e503 	umlal	lr, r5, r0, r3
 800065e:	f04f 0600 	mov.w	r6, #0
 8000662:	fbe1 5603 	umlal	r5, r6, r1, r3
 8000666:	f09c 0f00 	teq	ip, #0
 800066a:	bf18      	it	ne
 800066c:	f04e 0e01 	orrne.w	lr, lr, #1
 8000670:	f1a4 04ff 	sub.w	r4, r4, #255	; 0xff
 8000674:	f5b6 7f00 	cmp.w	r6, #512	; 0x200
 8000678:	f564 7440 	sbc.w	r4, r4, #768	; 0x300
 800067c:	d204      	bcs.n	8000688 <__aeabi_dmul+0x80>
 800067e:	ea5f 0e4e 	movs.w	lr, lr, lsl #1
 8000682:	416d      	adcs	r5, r5
 8000684:	eb46 0606 	adc.w	r6, r6, r6
 8000688:	ea42 21c6 	orr.w	r1, r2, r6, lsl #11
 800068c:	ea41 5155 	orr.w	r1, r1, r5, lsr #21
 8000690:	ea4f 20c5 	mov.w	r0, r5, lsl #11
 8000694:	ea40 505e 	orr.w	r0, r0, lr, lsr #21
 8000698:	ea4f 2ece 	mov.w	lr, lr, lsl #11
 800069c:	f1b4 0cfd 	subs.w	ip, r4, #253	; 0xfd
 80006a0:	bf88      	it	hi
 80006a2:	f5bc 6fe0 	cmphi.w	ip, #1792	; 0x700
 80006a6:	d81e      	bhi.n	80006e6 <__aeabi_dmul+0xde>
 80006a8:	f1be 4f00 	cmp.w	lr, #2147483648	; 0x80000000
 80006ac:	bf08      	it	eq
 80006ae:	ea5f 0e50 	movseq.w	lr, r0, lsr #1
 80006b2:	f150 0000 	adcs.w	r0, r0, #0
 80006b6:	eb41 5104 	adc.w	r1, r1, r4, lsl #20
 80006ba:	bd70      	pop	{r4, r5, r6, pc}
 80006bc:	f006 4600 	and.w	r6, r6, #2147483648	; 0x80000000
 80006c0:	ea46 0101 	orr.w	r1, r6, r1
 80006c4:	ea40 0002 	orr.w	r0, r0, r2
 80006c8:	ea81 0103 	eor.w	r1, r1, r3
 80006cc:	ebb4 045c 	subs.w	r4, r4, ip, lsr #1
 80006d0:	bfc2      	ittt	gt
 80006d2:	ebd4 050c 	rsbsgt	r5, r4, ip
 80006d6:	ea41 5104 	orrgt.w	r1, r1, r4, lsl #20
 80006da:	bd70      	popgt	{r4, r5, r6, pc}
 80006dc:	f441 1180 	orr.w	r1, r1, #1048576	; 0x100000
 80006e0:	f04f 0e00 	mov.w	lr, #0
 80006e4:	3c01      	subs	r4, #1
 80006e6:	f300 80ab 	bgt.w	8000840 <__aeabi_dmul+0x238>
 80006ea:	f114 0f36 	cmn.w	r4, #54	; 0x36
 80006ee:	bfde      	ittt	le
 80006f0:	2000      	movle	r0, #0
 80006f2:	f001 4100 	andle.w	r1, r1, #2147483648	; 0x80000000
 80006f6:	bd70      	pople	{r4, r5, r6, pc}
 80006f8:	f1c4 0400 	rsb	r4, r4, #0
 80006fc:	3c20      	subs	r4, #32
 80006fe:	da35      	bge.n	800076c <__aeabi_dmul+0x164>
 8000700:	340c      	adds	r4, #12
 8000702:	dc1b      	bgt.n	800073c <__aeabi_dmul+0x134>
 8000704:	f104 0414 	add.w	r4, r4, #20
 8000708:	f1c4 0520 	rsb	r5, r4, #32
 800070c:	fa00 f305 	lsl.w	r3, r0, r5
 8000710:	fa20 f004 	lsr.w	r0, r0, r4
 8000714:	fa01 f205 	lsl.w	r2, r1, r5
 8000718:	ea40 0002 	orr.w	r0, r0, r2
 800071c:	f001 4200 	and.w	r2, r1, #2147483648	; 0x80000000
 8000720:	f021 4100 	bic.w	r1, r1, #2147483648	; 0x80000000
 8000724:	eb10 70d3 	adds.w	r0, r0, r3, lsr #31
 8000728:	fa21 f604 	lsr.w	r6, r1, r4
 800072c:	eb42 0106 	adc.w	r1, r2, r6
 8000730:	ea5e 0e43 	orrs.w	lr, lr, r3, lsl #1
 8000734:	bf08      	it	eq
 8000736:	ea20 70d3 	biceq.w	r0, r0, r3, lsr #31
 800073a:	bd70      	pop	{r4, r5, r6, pc}
 800073c:	f1c4 040c 	rsb	r4, r4, #12
 8000740:	f1c4 0520 	rsb	r5, r4, #32
 8000744:	fa00 f304 	lsl.w	r3, r0, r4
 8000748:	fa20 f005 	lsr.w	r0, r0, r5
 800074c:	fa01 f204 	lsl.w	r2, r1, r4
 8000750:	ea40 0002 	orr.w	r0, r0, r2
 8000754:	f001 4100 	and.w	r1, r1, #2147483648	; 0x80000000
 8000758:	eb10 70d3 	adds.w	r0, r0, r3, lsr #31
 800075c:	f141 0100 	adc.w	r1, r1, #0
 8000760:	ea5e 0e43 	orrs.w	lr, lr, r3, lsl #1
 8000764:	bf08      	it	eq
 8000766:	ea20 70d3 	biceq.w	r0, r0, r3, lsr #31
 800076a:	bd70      	pop	{r4, r5, r6, pc}
 800076c:	f1c4 0520 	rsb	r5, r4, #32
 8000770:	fa00 f205 	lsl.w	r2, r0, r5
 8000774:	ea4e 0e02 	orr.w	lr, lr, r2
 8000778:	fa20 f304 	lsr.w	r3, r0, r4
 800077c:	fa01 f205 	lsl.w	r2, r1, r5
 8000780:	ea43 0302 	orr.w	r3, r3, r2
 8000784:	fa21 f004 	lsr.w	r0, r1, r4
 8000788:	f001 4100 	and.w	r1, r1, #2147483648	; 0x80000000
 800078c:	fa21 f204 	lsr.w	r2, r1, r4
 8000790:	ea20 0002 	bic.w	r0, r0, r2
 8000794:	eb00 70d3 	add.w	r0, r0, r3, lsr #31
 8000798:	ea5e 0e43 	orrs.w	lr, lr, r3, lsl #1
 800079c:	bf08      	it	eq
 800079e:	ea20 70d3 	biceq.w	r0, r0, r3, lsr #31
 80007a2:	bd70      	pop	{r4, r5, r6, pc}
 80007a4:	f094 0f00 	teq	r4, #0
 80007a8:	d10f      	bne.n	80007ca <__aeabi_dmul+0x1c2>
 80007aa:	f001 4600 	and.w	r6, r1, #2147483648	; 0x80000000
 80007ae:	0040      	lsls	r0, r0, #1
 80007b0:	eb41 0101 	adc.w	r1, r1, r1
 80007b4:	f411 1f80 	tst.w	r1, #1048576	; 0x100000
 80007b8:	bf08      	it	eq
 80007ba:	3c01      	subeq	r4, #1
 80007bc:	d0f7      	beq.n	80007ae <__aeabi_dmul+0x1a6>
 80007be:	ea41 0106 	orr.w	r1, r1, r6
 80007c2:	f095 0f00 	teq	r5, #0
 80007c6:	bf18      	it	ne
 80007c8:	4770      	bxne	lr
 80007ca:	f003 4600 	and.w	r6, r3, #2147483648	; 0x80000000
 80007ce:	0052      	lsls	r2, r2, #1
 80007d0:	eb43 0303 	adc.w	r3, r3, r3
 80007d4:	f413 1f80 	tst.w	r3, #1048576	; 0x100000
 80007d8:	bf08      	it	eq
 80007da:	3d01      	subeq	r5, #1
 80007dc:	d0f7      	beq.n	80007ce <__aeabi_dmul+0x1c6>
 80007de:	ea43 0306 	orr.w	r3, r3, r6
 80007e2:	4770      	bx	lr
 80007e4:	ea94 0f0c 	teq	r4, ip
 80007e8:	ea0c 5513 	and.w	r5, ip, r3, lsr #20
 80007ec:	bf18      	it	ne
 80007ee:	ea95 0f0c 	teqne	r5, ip
 80007f2:	d00c      	beq.n	800080e <__aeabi_dmul+0x206>
 80007f4:	ea50 0641 	orrs.w	r6, r0, r1, lsl #1
 80007f8:	bf18      	it	ne
 80007fa:	ea52 0643 	orrsne.w	r6, r2, r3, lsl #1
 80007fe:	d1d1      	bne.n	80007a4 <__aeabi_dmul+0x19c>
 8000800:	ea81 0103 	eor.w	r1, r1, r3
 8000804:	f001 4100 	and.w	r1, r1, #2147483648	; 0x80000000
 8000808:	f04f 0000 	mov.w	r0, #0
 800080c:	bd70      	pop	{r4, r5, r6, pc}
 800080e:	ea50 0641 	orrs.w	r6, r0, r1, lsl #1
 8000812:	bf06      	itte	eq
 8000814:	4610      	moveq	r0, r2
 8000816:	4619      	moveq	r1, r3
 8000818:	ea52 0643 	orrsne.w	r6, r2, r3, lsl #1
 800081c:	d019      	beq.n	8000852 <__aeabi_dmul+0x24a>
 800081e:	ea94 0f0c 	teq	r4, ip
 8000822:	d102      	bne.n	800082a <__aeabi_dmul+0x222>
 8000824:	ea50 3601 	orrs.w	r6, r0, r1, lsl #12
 8000828:	d113      	bne.n	8000852 <__aeabi_dmul+0x24a>
 800082a:	ea95 0f0c 	teq	r5, ip
 800082e:	d105      	bne.n	800083c <__aeabi_dmul+0x234>
 8000830:	ea52 3603 	orrs.w	r6, r2, r3, lsl #12
 8000834:	bf1c      	itt	ne
 8000836:	4610      	movne	r0, r2
 8000838:	4619      	movne	r1, r3
 800083a:	d10a      	bne.n	8000852 <__aeabi_dmul+0x24a>
 800083c:	ea81 0103 	eor.w	r1, r1, r3
 8000840:	f001 4100 	and.w	r1, r1, #2147483648	; 0x80000000
 8000844:	f041 41fe 	orr.w	r1, r1, #2130706432	; 0x7f000000
 8000848:	f441 0170 	orr.w	r1, r1, #15728640	; 0xf00000
 800084c:	f04f 0000 	mov.w	r0, #0
 8000850:	bd70      	pop	{r4, r5, r6, pc}
 8000852:	f041 41fe 	orr.w	r1, r1, #2130706432	; 0x7f000000
 8000856:	f441 0178 	orr.w	r1, r1, #16252928	; 0xf80000
 800085a:	bd70      	pop	{r4, r5, r6, pc}

0800085c <__aeabi_ddiv>:
 800085c:	b570      	push	{r4, r5, r6, lr}
 800085e:	f04f 0cff 	mov.w	ip, #255	; 0xff
 8000862:	f44c 6ce0 	orr.w	ip, ip, #1792	; 0x700
 8000866:	ea1c 5411 	ands.w	r4, ip, r1, lsr #20
 800086a:	bf1d      	ittte	ne
 800086c:	ea1c 5513 	andsne.w	r5, ip, r3, lsr #20
 8000870:	ea94 0f0c 	teqne	r4, ip
 8000874:	ea95 0f0c 	teqne	r5, ip
 8000878:	f000 f8a7 	bleq	80009ca <__aeabi_ddiv+0x16e>
 800087c:	eba4 0405 	sub.w	r4, r4, r5
 8000880:	ea81 0e03 	eor.w	lr, r1, r3
 8000884:	ea52 3503 	orrs.w	r5, r2, r3, lsl #12
 8000888:	ea4f 3101 	mov.w	r1, r1, lsl #12
 800088c:	f000 8088 	beq.w	80009a0 <__aeabi_ddiv+0x144>
 8000890:	ea4f 3303 	mov.w	r3, r3, lsl #12
 8000894:	f04f 5580 	mov.w	r5, #268435456	; 0x10000000
 8000898:	ea45 1313 	orr.w	r3, r5, r3, lsr #4
 800089c:	ea43 6312 	orr.w	r3, r3, r2, lsr #24
 80008a0:	ea4f 2202 	mov.w	r2, r2, lsl #8
 80008a4:	ea45 1511 	orr.w	r5, r5, r1, lsr #4
 80008a8:	ea45 6510 	orr.w	r5, r5, r0, lsr #24
 80008ac:	ea4f 2600 	mov.w	r6, r0, lsl #8
 80008b0:	f00e 4100 	and.w	r1, lr, #2147483648	; 0x80000000
 80008b4:	429d      	cmp	r5, r3
 80008b6:	bf08      	it	eq
 80008b8:	4296      	cmpeq	r6, r2
 80008ba:	f144 04fd 	adc.w	r4, r4, #253	; 0xfd
 80008be:	f504 7440 	add.w	r4, r4, #768	; 0x300
 80008c2:	d202      	bcs.n	80008ca <__aeabi_ddiv+0x6e>
 80008c4:	085b      	lsrs	r3, r3, #1
 80008c6:	ea4f 0232 	mov.w	r2, r2, rrx
 80008ca:	1ab6      	subs	r6, r6, r2
 80008cc:	eb65 0503 	sbc.w	r5, r5, r3
 80008d0:	085b      	lsrs	r3, r3, #1
 80008d2:	ea4f 0232 	mov.w	r2, r2, rrx
 80008d6:	f44f 1080 	mov.w	r0, #1048576	; 0x100000
 80008da:	f44f 2c00 	mov.w	ip, #524288	; 0x80000
 80008de:	ebb6 0e02 	subs.w	lr, r6, r2
 80008e2:	eb75 0e03 	sbcs.w	lr, r5, r3
 80008e6:	bf22      	ittt	cs
 80008e8:	1ab6      	subcs	r6, r6, r2
 80008ea:	4675      	movcs	r5, lr
 80008ec:	ea40 000c 	orrcs.w	r0, r0, ip
 80008f0:	085b      	lsrs	r3, r3, #1
 80008f2:	ea4f 0232 	mov.w	r2, r2, rrx
 80008f6:	ebb6 0e02 	subs.w	lr, r6, r2
 80008fa:	eb75 0e03 	sbcs.w	lr, r5, r3
 80008fe:	bf22      	ittt	cs
 8000900:	1ab6      	subcs	r6, r6, r2
 8000902:	4675      	movcs	r5, lr
 8000904:	ea40 005c 	orrcs.w	r0, r0, ip, lsr #1
 8000908:	085b      	lsrs	r3, r3, #1
 800090a:	ea4f 0232 	mov.w	r2, r2, rrx
 800090e:	ebb6 0e02 	subs.w	lr, r6, r2
 8000912:	eb75 0e03 	sbcs.w	lr, r5, r3
 8000916:	bf22      	ittt	cs
 8000918:	1ab6      	subcs	r6, r6, r2
 800091a:	4675      	movcs	r5, lr
 800091c:	ea40 009c 	orrcs.w	r0, r0, ip, lsr #2
 8000920:	085b      	lsrs	r3, r3, #1
 8000922:	ea4f 0232 	mov.w	r2, r2, rrx
 8000926:	ebb6 0e02 	subs.w	lr, r6, r2
 800092a:	eb75 0e03 	sbcs.w	lr, r5, r3
 800092e:	bf22      	ittt	cs
 8000930:	1ab6      	subcs	r6, r6, r2
 8000932:	4675      	movcs	r5, lr
 8000934:	ea40 00dc 	orrcs.w	r0, r0, ip, lsr #3
 8000938:	ea55 0e06 	orrs.w	lr, r5, r6
 800093c:	d018      	beq.n	8000970 <__aeabi_ddiv+0x114>
 800093e:	ea4f 1505 	mov.w	r5, r5, lsl #4
 8000942:	ea45 7516 	orr.w	r5, r5, r6, lsr #28
 8000946:	ea4f 1606 	mov.w	r6, r6, lsl #4
 800094a:	ea4f 03c3 	mov.w	r3, r3, lsl #3
 800094e:	ea43 7352 	orr.w	r3, r3, r2, lsr #29
 8000952:	ea4f 02c2 	mov.w	r2, r2, lsl #3
 8000956:	ea5f 1c1c 	movs.w	ip, ip, lsr #4
 800095a:	d1c0      	bne.n	80008de <__aeabi_ddiv+0x82>
 800095c:	f411 1f80 	tst.w	r1, #1048576	; 0x100000
 8000960:	d10b      	bne.n	800097a <__aeabi_ddiv+0x11e>
 8000962:	ea41 0100 	orr.w	r1, r1, r0
 8000966:	f04f 0000 	mov.w	r0, #0
 800096a:	f04f 4c00 	mov.w	ip, #2147483648	; 0x80000000
 800096e:	e7b6      	b.n	80008de <__aeabi_ddiv+0x82>
 8000970:	f411 1f80 	tst.w	r1, #1048576	; 0x100000
 8000974:	bf04      	itt	eq
 8000976:	4301      	orreq	r1, r0
 8000978:	2000      	moveq	r0, #0
 800097a:	f1b4 0cfd 	subs.w	ip, r4, #253	; 0xfd
 800097e:	bf88      	it	hi
 8000980:	f5bc 6fe0 	cmphi.w	ip, #1792	; 0x700
 8000984:	f63f aeaf 	bhi.w	80006e6 <__aeabi_dmul+0xde>
 8000988:	ebb5 0c03 	subs.w	ip, r5, r3
 800098c:	bf04      	itt	eq
 800098e:	ebb6 0c02 	subseq.w	ip, r6, r2
 8000992:	ea5f 0c50 	movseq.w	ip, r0, lsr #1
 8000996:	f150 0000 	adcs.w	r0, r0, #0
 800099a:	eb41 5104 	adc.w	r1, r1, r4, lsl #20
 800099e:	bd70      	pop	{r4, r5, r6, pc}
 80009a0:	f00e 4e00 	and.w	lr, lr, #2147483648	; 0x80000000
 80009a4:	ea4e 3111 	orr.w	r1, lr, r1, lsr #12
 80009a8:	eb14 045c 	adds.w	r4, r4, ip, lsr #1
 80009ac:	bfc2      	ittt	gt
 80009ae:	ebd4 050c 	rsbsgt	r5, r4, ip
 80009b2:	ea41 5104 	orrgt.w	r1, r1, r4, lsl #20
 80009b6:	bd70      	popgt	{r4, r5, r6, pc}
 80009b8:	f441 1180 	orr.w	r1, r1, #1048576	; 0x100000
 80009bc:	f04f 0e00 	mov.w	lr, #0
 80009c0:	3c01      	subs	r4, #1
 80009c2:	e690      	b.n	80006e6 <__aeabi_dmul+0xde>
 80009c4:	ea45 0e06 	orr.w	lr, r5, r6
 80009c8:	e68d      	b.n	80006e6 <__aeabi_dmul+0xde>
 80009ca:	ea0c 5513 	and.w	r5, ip, r3, lsr #20
 80009ce:	ea94 0f0c 	teq	r4, ip
 80009d2:	bf08      	it	eq
 80009d4:	ea95 0f0c 	teqeq	r5, ip
 80009d8:	f43f af3b 	beq.w	8000852 <__aeabi_dmul+0x24a>
 80009dc:	ea94 0f0c 	teq	r4, ip
 80009e0:	d10a      	bne.n	80009f8 <__aeabi_ddiv+0x19c>
 80009e2:	ea50 3401 	orrs.w	r4, r0, r1, lsl #12
 80009e6:	f47f af34 	bne.w	8000852 <__aeabi_dmul+0x24a>
 80009ea:	ea95 0f0c 	teq	r5, ip
 80009ee:	f47f af25 	bne.w	800083c <__aeabi_dmul+0x234>
 80009f2:	4610      	mov	r0, r2
 80009f4:	4619      	mov	r1, r3
 80009f6:	e72c      	b.n	8000852 <__aeabi_dmul+0x24a>
 80009f8:	ea95 0f0c 	teq	r5, ip
 80009fc:	d106      	bne.n	8000a0c <__aeabi_ddiv+0x1b0>
 80009fe:	ea52 3503 	orrs.w	r5, r2, r3, lsl #12
 8000a02:	f43f aefd 	beq.w	8000800 <__aeabi_dmul+0x1f8>
 8000a06:	4610      	mov	r0, r2
 8000a08:	4619      	mov	r1, r3
 8000a0a:	e722      	b.n	8000852 <__aeabi_dmul+0x24a>
 8000a0c:	ea50 0641 	orrs.w	r6, r0, r1, lsl #1
 8000a10:	bf18      	it	ne
 8000a12:	ea52 0643 	orrsne.w	r6, r2, r3, lsl #1
 8000a16:	f47f aec5 	bne.w	80007a4 <__aeabi_dmul+0x19c>
 8000a1a:	ea50 0441 	orrs.w	r4, r0, r1, lsl #1
 8000a1e:	f47f af0d 	bne.w	800083c <__aeabi_dmul+0x234>
 8000a22:	ea52 0543 	orrs.w	r5, r2, r3, lsl #1
 8000a26:	f47f aeeb 	bne.w	8000800 <__aeabi_dmul+0x1f8>
 8000a2a:	e712      	b.n	8000852 <__aeabi_dmul+0x24a>

08000a2c <__gedf2>:
 8000a2c:	f04f 3cff 	mov.w	ip, #4294967295
 8000a30:	e006      	b.n	8000a40 <__cmpdf2+0x4>
 8000a32:	bf00      	nop

08000a34 <__ledf2>:
 8000a34:	f04f 0c01 	mov.w	ip, #1
 8000a38:	e002      	b.n	8000a40 <__cmpdf2+0x4>
 8000a3a:	bf00      	nop

08000a3c <__cmpdf2>:
 8000a3c:	f04f 0c01 	mov.w	ip, #1
 8000a40:	f84d cd04 	str.w	ip, [sp, #-4]!
 8000a44:	ea4f 0c41 	mov.w	ip, r1, lsl #1
 8000a48:	ea7f 5c6c 	mvns.w	ip, ip, asr #21
 8000a4c:	ea4f 0c43 	mov.w	ip, r3, lsl #1
 8000a50:	bf18      	it	ne
 8000a52:	ea7f 5c6c 	mvnsne.w	ip, ip, asr #21
 8000a56:	d01b      	beq.n	8000a90 <__cmpdf2+0x54>
 8000a58:	b001      	add	sp, #4
 8000a5a:	ea50 0c41 	orrs.w	ip, r0, r1, lsl #1
 8000a5e:	bf0c      	ite	eq
 8000a60:	ea52 0c43 	orrseq.w	ip, r2, r3, lsl #1
 8000a64:	ea91 0f03 	teqne	r1, r3
 8000a68:	bf02      	ittt	eq
 8000a6a:	ea90 0f02 	teqeq	r0, r2
 8000a6e:	2000      	moveq	r0, #0
 8000a70:	4770      	bxeq	lr
 8000a72:	f110 0f00 	cmn.w	r0, #0
 8000a76:	ea91 0f03 	teq	r1, r3
 8000a7a:	bf58      	it	pl
 8000a7c:	4299      	cmppl	r1, r3
 8000a7e:	bf08      	it	eq
 8000a80:	4290      	cmpeq	r0, r2
 8000a82:	bf2c      	ite	cs
 8000a84:	17d8      	asrcs	r0, r3, #31
 8000a86:	ea6f 70e3 	mvncc.w	r0, r3, asr #31
 8000a8a:	f040 0001 	orr.w	r0, r0, #1
 8000a8e:	4770      	bx	lr
 8000a90:	ea4f 0c41 	mov.w	ip, r1, lsl #1
 8000a94:	ea7f 5c6c 	mvns.w	ip, ip, asr #21
 8000a98:	d102      	bne.n	8000aa0 <__cmpdf2+0x64>
 8000a9a:	ea50 3c01 	orrs.w	ip, r0, r1, lsl #12
 8000a9e:	d107      	bne.n	8000ab0 <__cmpdf2+0x74>
 8000aa0:	ea4f 0c43 	mov.w	ip, r3, lsl #1
 8000aa4:	ea7f 5c6c 	mvns.w	ip, ip, asr #21
 8000aa8:	d1d6      	bne.n	8000a58 <__cmpdf2+0x1c>
 8000aaa:	ea52 3c03 	orrs.w	ip, r2, r3, lsl #12
 8000aae:	d0d3      	beq.n	8000a58 <__cmpdf2+0x1c>
 8000ab0:	f85d 0b04 	ldr.w	r0, [sp], #4
 8000ab4:	4770      	bx	lr
 8000ab6:	bf00      	nop

08000ab8 <__aeabi_cdrcmple>:
 8000ab8:	4684      	mov	ip, r0
 8000aba:	4610      	mov	r0, r2
 8000abc:	4662      	mov	r2, ip
 8000abe:	468c      	mov	ip, r1
 8000ac0:	4619      	mov	r1, r3
 8000ac2:	4663      	mov	r3, ip
 8000ac4:	e000      	b.n	8000ac8 <__aeabi_cdcmpeq>
 8000ac6:	bf00      	nop

08000ac8 <__aeabi_cdcmpeq>:
 8000ac8:	b501      	push	{r0, lr}
 8000aca:	f7ff ffb7 	bl	8000a3c <__cmpdf2>
 8000ace:	2800      	cmp	r0, #0
 8000ad0:	bf48      	it	mi
 8000ad2:	f110 0f00 	cmnmi.w	r0, #0
 8000ad6:	bd01      	pop	{r0, pc}

08000ad8 <__aeabi_dcmpeq>:
 8000ad8:	f84d ed08 	str.w	lr, [sp, #-8]!
 8000adc:	f7ff fff4 	bl	8000ac8 <__aeabi_cdcmpeq>
 8000ae0:	bf0c      	ite	eq
 8000ae2:	2001      	moveq	r0, #1
 8000ae4:	2000      	movne	r0, #0
 8000ae6:	f85d fb08 	ldr.w	pc, [sp], #8
 8000aea:	bf00      	nop

08000aec <__aeabi_dcmplt>:
 8000aec:	f84d ed08 	str.w	lr, [sp, #-8]!
 8000af0:	f7ff ffea 	bl	8000ac8 <__aeabi_cdcmpeq>
 8000af4:	bf34      	ite	cc
 8000af6:	2001      	movcc	r0, #1
 8000af8:	2000      	movcs	r0, #0
 8000afa:	f85d fb08 	ldr.w	pc, [sp], #8
 8000afe:	bf00      	nop

08000b00 <__aeabi_dcmple>:
 8000b00:	f84d ed08 	str.w	lr, [sp, #-8]!
 8000b04:	f7ff ffe0 	bl	8000ac8 <__aeabi_cdcmpeq>
 8000b08:	bf94      	ite	ls
 8000b0a:	2001      	movls	r0, #1
 8000b0c:	2000      	movhi	r0, #0
 8000b0e:	f85d fb08 	ldr.w	pc, [sp], #8
 8000b12:	bf00      	nop

08000b14 <__aeabi_dcmpge>:
 8000b14:	f84d ed08 	str.w	lr, [sp, #-8]!
 8000b18:	f7ff ffce 	bl	8000ab8 <__aeabi_cdrcmple>
 8000b1c:	bf94      	ite	ls
 8000b1e:	2001      	movls	r0, #1
 8000b20:	2000      	movhi	r0, #0
 8000b22:	f85d fb08 	ldr.w	pc, [sp], #8
 8000b26:	bf00      	nop

08000b28 <__aeabi_dcmpgt>:
 8000b28:	f84d ed08 	str.w	lr, [sp, #-8]!
 8000b2c:	f7ff ffc4 	bl	8000ab8 <__aeabi_cdrcmple>
 8000b30:	bf34      	ite	cc
 8000b32:	2001      	movcc	r0, #1
 8000b34:	2000      	movcs	r0, #0
 8000b36:	f85d fb08 	ldr.w	pc, [sp], #8
 8000b3a:	bf00      	nop

08000b3c <__aeabi_dcmpun>:
 8000b3c:	ea4f 0c41 	mov.w	ip, r1, lsl #1
 8000b40:	ea7f 5c6c 	mvns.w	ip, ip, asr #21
 8000b44:	d102      	bne.n	8000b4c <__aeabi_dcmpun+0x10>
 8000b46:	ea50 3c01 	orrs.w	ip, r0, r1, lsl #12
 8000b4a:	d10a      	bne.n	8000b62 <__aeabi_dcmpun+0x26>
 8000b4c:	ea4f 0c43 	mov.w	ip, r3, lsl #1
 8000b50:	ea7f 5c6c 	mvns.w	ip, ip, asr #21
 8000b54:	d102      	bne.n	8000b5c <__aeabi_dcmpun+0x20>
 8000b56:	ea52 3c03 	orrs.w	ip, r2, r3, lsl #12
 8000b5a:	d102      	bne.n	8000b62 <__aeabi_dcmpun+0x26>
 8000b5c:	f04f 0000 	mov.w	r0, #0
 8000b60:	4770      	bx	lr
 8000b62:	f04f 0001 	mov.w	r0, #1
 8000b66:	4770      	bx	lr

08000b68 <__aeabi_d2iz>:
 8000b68:	ea4f 0241 	mov.w	r2, r1, lsl #1
 8000b6c:	f512 1200 	adds.w	r2, r2, #2097152	; 0x200000
 8000b70:	d215      	bcs.n	8000b9e <__aeabi_d2iz+0x36>
 8000b72:	d511      	bpl.n	8000b98 <__aeabi_d2iz+0x30>
 8000b74:	f46f 7378 	mvn.w	r3, #992	; 0x3e0
 8000b78:	ebb3 5262 	subs.w	r2, r3, r2, asr #21
 8000b7c:	d912      	bls.n	8000ba4 <__aeabi_d2iz+0x3c>
 8000b7e:	ea4f 23c1 	mov.w	r3, r1, lsl #11
 8000b82:	f043 4300 	orr.w	r3, r3, #2147483648	; 0x80000000
 8000b86:	ea43 5350 	orr.w	r3, r3, r0, lsr #21
 8000b8a:	f011 4f00 	tst.w	r1, #2147483648	; 0x80000000
 8000b8e:	fa23 f002 	lsr.w	r0, r3, r2
 8000b92:	bf18      	it	ne
 8000b94:	4240      	negne	r0, r0
 8000b96:	4770      	bx	lr
 8000b98:	f04f 0000 	mov.w	r0, #0
 8000b9c:	4770      	bx	lr
 8000b9e:	ea50 3001 	orrs.w	r0, r0, r1, lsl #12
 8000ba2:	d105      	bne.n	8000bb0 <__aeabi_d2iz+0x48>
 8000ba4:	f011 4000 	ands.w	r0, r1, #2147483648	; 0x80000000
 8000ba8:	bf08      	it	eq
 8000baa:	f06f 4000 	mvneq.w	r0, #2147483648	; 0x80000000
 8000bae:	4770      	bx	lr
 8000bb0:	f04f 0000 	mov.w	r0, #0
 8000bb4:	4770      	bx	lr
 8000bb6:	bf00      	nop

08000bb8 <__aeabi_d2uiz>:
 8000bb8:	004a      	lsls	r2, r1, #1
 8000bba:	d211      	bcs.n	8000be0 <__aeabi_d2uiz+0x28>
 8000bbc:	f512 1200 	adds.w	r2, r2, #2097152	; 0x200000
 8000bc0:	d211      	bcs.n	8000be6 <__aeabi_d2uiz+0x2e>
 8000bc2:	d50d      	bpl.n	8000be0 <__aeabi_d2uiz+0x28>
 8000bc4:	f46f 7378 	mvn.w	r3, #992	; 0x3e0
 8000bc8:	ebb3 5262 	subs.w	r2, r3, r2, asr #21
 8000bcc:	d40e      	bmi.n	8000bec <__aeabi_d2uiz+0x34>
 8000bce:	ea4f 23c1 	mov.w	r3, r1, lsl #11
 8000bd2:	f043 4300 	orr.w	r3, r3, #2147483648	; 0x80000000
 8000bd6:	ea43 5350 	orr.w	r3, r3, r0, lsr #21
 8000bda:	fa23 f002 	lsr.w	r0, r3, r2
 8000bde:	4770      	bx	lr
 8000be0:	f04f 0000 	mov.w	r0, #0
 8000be4:	4770      	bx	lr
 8000be6:	ea50 3001 	orrs.w	r0, r0, r1, lsl #12
 8000bea:	d102      	bne.n	8000bf2 <__aeabi_d2uiz+0x3a>
 8000bec:	f04f 30ff 	mov.w	r0, #4294967295
 8000bf0:	4770      	bx	lr
 8000bf2:	f04f 0000 	mov.w	r0, #0
 8000bf6:	4770      	bx	lr

08000bf8 <__aeabi_uldivmod>:
 8000bf8:	b953      	cbnz	r3, 8000c10 <__aeabi_uldivmod+0x18>
 8000bfa:	b94a      	cbnz	r2, 8000c10 <__aeabi_uldivmod+0x18>
 8000bfc:	2900      	cmp	r1, #0
 8000bfe:	bf08      	it	eq
 8000c00:	2800      	cmpeq	r0, #0
 8000c02:	bf1c      	itt	ne
 8000c04:	f04f 31ff 	movne.w	r1, #4294967295
 8000c08:	f04f 30ff 	movne.w	r0, #4294967295
 8000c0c:	f000 b972 	b.w	8000ef4 <__aeabi_idiv0>
 8000c10:	f1ad 0c08 	sub.w	ip, sp, #8
 8000c14:	e96d ce04 	strd	ip, lr, [sp, #-16]!
 8000c18:	f000 f806 	bl	8000c28 <__udivmoddi4>
 8000c1c:	f8dd e004 	ldr.w	lr, [sp, #4]
 8000c20:	e9dd 2302 	ldrd	r2, r3, [sp, #8]
 8000c24:	b004      	add	sp, #16
 8000c26:	4770      	bx	lr

08000c28 <__udivmoddi4>:
 8000c28:	e92d 47f0 	stmdb	sp!, {r4, r5, r6, r7, r8, r9, sl, lr}
 8000c2c:	9e08      	ldr	r6, [sp, #32]
 8000c2e:	4604      	mov	r4, r0
 8000c30:	4688      	mov	r8, r1
 8000c32:	2b00      	cmp	r3, #0
 8000c34:	d14b      	bne.n	8000cce <__udivmoddi4+0xa6>
 8000c36:	428a      	cmp	r2, r1
 8000c38:	4615      	mov	r5, r2
 8000c3a:	d967      	bls.n	8000d0c <__udivmoddi4+0xe4>
 8000c3c:	fab2 f282 	clz	r2, r2
 8000c40:	b14a      	cbz	r2, 8000c56 <__udivmoddi4+0x2e>
 8000c42:	f1c2 0720 	rsb	r7, r2, #32
 8000c46:	fa01 f302 	lsl.w	r3, r1, r2
 8000c4a:	fa20 f707 	lsr.w	r7, r0, r7
 8000c4e:	4095      	lsls	r5, r2
 8000c50:	ea47 0803 	orr.w	r8, r7, r3
 8000c54:	4094      	lsls	r4, r2
 8000c56:	ea4f 4e15 	mov.w	lr, r5, lsr #16
 8000c5a:	0c23      	lsrs	r3, r4, #16
 8000c5c:	fbb8 f7fe 	udiv	r7, r8, lr
 8000c60:	fa1f fc85 	uxth.w	ip, r5
 8000c64:	fb0e 8817 	mls	r8, lr, r7, r8
 8000c68:	ea43 4308 	orr.w	r3, r3, r8, lsl #16
 8000c6c:	fb07 f10c 	mul.w	r1, r7, ip
 8000c70:	4299      	cmp	r1, r3
 8000c72:	d909      	bls.n	8000c88 <__udivmoddi4+0x60>
 8000c74:	18eb      	adds	r3, r5, r3
 8000c76:	f107 30ff 	add.w	r0, r7, #4294967295
 8000c7a:	f080 811b 	bcs.w	8000eb4 <__udivmoddi4+0x28c>
 8000c7e:	4299      	cmp	r1, r3
 8000c80:	f240 8118 	bls.w	8000eb4 <__udivmoddi4+0x28c>
 8000c84:	3f02      	subs	r7, #2
 8000c86:	442b      	add	r3, r5
 8000c88:	1a5b      	subs	r3, r3, r1
 8000c8a:	b2a4      	uxth	r4, r4
 8000c8c:	fbb3 f0fe 	udiv	r0, r3, lr
 8000c90:	fb0e 3310 	mls	r3, lr, r0, r3
 8000c94:	ea44 4403 	orr.w	r4, r4, r3, lsl #16
 8000c98:	fb00 fc0c 	mul.w	ip, r0, ip
 8000c9c:	45a4      	cmp	ip, r4
 8000c9e:	d909      	bls.n	8000cb4 <__udivmoddi4+0x8c>
 8000ca0:	192c      	adds	r4, r5, r4
 8000ca2:	f100 33ff 	add.w	r3, r0, #4294967295
 8000ca6:	f080 8107 	bcs.w	8000eb8 <__udivmoddi4+0x290>
 8000caa:	45a4      	cmp	ip, r4
 8000cac:	f240 8104 	bls.w	8000eb8 <__udivmoddi4+0x290>
 8000cb0:	3802      	subs	r0, #2
 8000cb2:	442c      	add	r4, r5
 8000cb4:	ea40 4007 	orr.w	r0, r0, r7, lsl #16
 8000cb8:	eba4 040c 	sub.w	r4, r4, ip
 8000cbc:	2700      	movs	r7, #0
 8000cbe:	b11e      	cbz	r6, 8000cc8 <__udivmoddi4+0xa0>
 8000cc0:	40d4      	lsrs	r4, r2
 8000cc2:	2300      	movs	r3, #0
 8000cc4:	e9c6 4300 	strd	r4, r3, [r6]
 8000cc8:	4639      	mov	r1, r7
 8000cca:	e8bd 87f0 	ldmia.w	sp!, {r4, r5, r6, r7, r8, r9, sl, pc}
 8000cce:	428b      	cmp	r3, r1
 8000cd0:	d909      	bls.n	8000ce6 <__udivmoddi4+0xbe>
 8000cd2:	2e00      	cmp	r6, #0
 8000cd4:	f000 80eb 	beq.w	8000eae <__udivmoddi4+0x286>
 8000cd8:	2700      	movs	r7, #0
 8000cda:	e9c6 0100 	strd	r0, r1, [r6]
 8000cde:	4638      	mov	r0, r7
 8000ce0:	4639      	mov	r1, r7
 8000ce2:	e8bd 87f0 	ldmia.w	sp!, {r4, r5, r6, r7, r8, r9, sl, pc}
 8000ce6:	fab3 f783 	clz	r7, r3
 8000cea:	2f00      	cmp	r7, #0
 8000cec:	d147      	bne.n	8000d7e <__udivmoddi4+0x156>
 8000cee:	428b      	cmp	r3, r1
 8000cf0:	d302      	bcc.n	8000cf8 <__udivmoddi4+0xd0>
 8000cf2:	4282      	cmp	r2, r0
 8000cf4:	f200 80fa 	bhi.w	8000eec <__udivmoddi4+0x2c4>
 8000cf8:	1a84      	subs	r4, r0, r2
 8000cfa:	eb61 0303 	sbc.w	r3, r1, r3
 8000cfe:	2001      	movs	r0, #1
 8000d00:	4698      	mov	r8, r3
 8000d02:	2e00      	cmp	r6, #0
 8000d04:	d0e0      	beq.n	8000cc8 <__udivmoddi4+0xa0>
 8000d06:	e9c6 4800 	strd	r4, r8, [r6]
 8000d0a:	e7dd      	b.n	8000cc8 <__udivmoddi4+0xa0>
 8000d0c:	b902      	cbnz	r2, 8000d10 <__udivmoddi4+0xe8>
 8000d0e:	deff      	udf	#255	; 0xff
 8000d10:	fab2 f282 	clz	r2, r2
 8000d14:	2a00      	cmp	r2, #0
 8000d16:	f040 808f 	bne.w	8000e38 <__udivmoddi4+0x210>
 8000d1a:	1b49      	subs	r1, r1, r5
 8000d1c:	ea4f 4e15 	mov.w	lr, r5, lsr #16
 8000d20:	fa1f f885 	uxth.w	r8, r5
 8000d24:	2701      	movs	r7, #1
 8000d26:	fbb1 fcfe 	udiv	ip, r1, lr
 8000d2a:	0c23      	lsrs	r3, r4, #16
 8000d2c:	fb0e 111c 	mls	r1, lr, ip, r1
 8000d30:	ea43 4301 	orr.w	r3, r3, r1, lsl #16
 8000d34:	fb08 f10c 	mul.w	r1, r8, ip
 8000d38:	4299      	cmp	r1, r3
 8000d3a:	d907      	bls.n	8000d4c <__udivmoddi4+0x124>
 8000d3c:	18eb      	adds	r3, r5, r3
 8000d3e:	f10c 30ff 	add.w	r0, ip, #4294967295
 8000d42:	d202      	bcs.n	8000d4a <__udivmoddi4+0x122>
 8000d44:	4299      	cmp	r1, r3
 8000d46:	f200 80cd 	bhi.w	8000ee4 <__udivmoddi4+0x2bc>
 8000d4a:	4684      	mov	ip, r0
 8000d4c:	1a59      	subs	r1, r3, r1
 8000d4e:	b2a3      	uxth	r3, r4
 8000d50:	fbb1 f0fe 	udiv	r0, r1, lr
 8000d54:	fb0e 1410 	mls	r4, lr, r0, r1
 8000d58:	ea43 4404 	orr.w	r4, r3, r4, lsl #16
 8000d5c:	fb08 f800 	mul.w	r8, r8, r0
 8000d60:	45a0      	cmp	r8, r4
 8000d62:	d907      	bls.n	8000d74 <__udivmoddi4+0x14c>
 8000d64:	192c      	adds	r4, r5, r4
 8000d66:	f100 33ff 	add.w	r3, r0, #4294967295
 8000d6a:	d202      	bcs.n	8000d72 <__udivmoddi4+0x14a>
 8000d6c:	45a0      	cmp	r8, r4
 8000d6e:	f200 80b6 	bhi.w	8000ede <__udivmoddi4+0x2b6>
 8000d72:	4618      	mov	r0, r3
 8000d74:	eba4 0408 	sub.w	r4, r4, r8
 8000d78:	ea40 400c 	orr.w	r0, r0, ip, lsl #16
 8000d7c:	e79f      	b.n	8000cbe <__udivmoddi4+0x96>
 8000d7e:	f1c7 0c20 	rsb	ip, r7, #32
 8000d82:	40bb      	lsls	r3, r7
 8000d84:	fa22 fe0c 	lsr.w	lr, r2, ip
 8000d88:	ea4e 0e03 	orr.w	lr, lr, r3
 8000d8c:	fa01 f407 	lsl.w	r4, r1, r7
 8000d90:	fa20 f50c 	lsr.w	r5, r0, ip
 8000d94:	fa21 f30c 	lsr.w	r3, r1, ip
 8000d98:	ea4f 481e 	mov.w	r8, lr, lsr #16
 8000d9c:	4325      	orrs	r5, r4
 8000d9e:	fbb3 f9f8 	udiv	r9, r3, r8
 8000da2:	0c2c      	lsrs	r4, r5, #16
 8000da4:	fb08 3319 	mls	r3, r8, r9, r3
 8000da8:	fa1f fa8e 	uxth.w	sl, lr
 8000dac:	ea44 4303 	orr.w	r3, r4, r3, lsl #16
 8000db0:	fb09 f40a 	mul.w	r4, r9, sl
 8000db4:	429c      	cmp	r4, r3
 8000db6:	fa02 f207 	lsl.w	r2, r2, r7
 8000dba:	fa00 f107 	lsl.w	r1, r0, r7
 8000dbe:	d90b      	bls.n	8000dd8 <__udivmoddi4+0x1b0>
 8000dc0:	eb1e 0303 	adds.w	r3, lr, r3
 8000dc4:	f109 30ff 	add.w	r0, r9, #4294967295
 8000dc8:	f080 8087 	bcs.w	8000eda <__udivmoddi4+0x2b2>
 8000dcc:	429c      	cmp	r4, r3
 8000dce:	f240 8084 	bls.w	8000eda <__udivmoddi4+0x2b2>
 8000dd2:	f1a9 0902 	sub.w	r9, r9, #2
 8000dd6:	4473      	add	r3, lr
 8000dd8:	1b1b      	subs	r3, r3, r4
 8000dda:	b2ad      	uxth	r5, r5
 8000ddc:	fbb3 f0f8 	udiv	r0, r3, r8
 8000de0:	fb08 3310 	mls	r3, r8, r0, r3
 8000de4:	ea45 4403 	orr.w	r4, r5, r3, lsl #16
 8000de8:	fb00 fa0a 	mul.w	sl, r0, sl
 8000dec:	45a2      	cmp	sl, r4
 8000dee:	d908      	bls.n	8000e02 <__udivmoddi4+0x1da>
 8000df0:	eb1e 0404 	adds.w	r4, lr, r4
 8000df4:	f100 33ff 	add.w	r3, r0, #4294967295
 8000df8:	d26b      	bcs.n	8000ed2 <__udivmoddi4+0x2aa>
 8000dfa:	45a2      	cmp	sl, r4
 8000dfc:	d969      	bls.n	8000ed2 <__udivmoddi4+0x2aa>
 8000dfe:	3802      	subs	r0, #2
 8000e00:	4474      	add	r4, lr
 8000e02:	ea40 4009 	orr.w	r0, r0, r9, lsl #16
 8000e06:	fba0 8902 	umull	r8, r9, r0, r2
 8000e0a:	eba4 040a 	sub.w	r4, r4, sl
 8000e0e:	454c      	cmp	r4, r9
 8000e10:	46c2      	mov	sl, r8
 8000e12:	464b      	mov	r3, r9
 8000e14:	d354      	bcc.n	8000ec0 <__udivmoddi4+0x298>
 8000e16:	d051      	beq.n	8000ebc <__udivmoddi4+0x294>
 8000e18:	2e00      	cmp	r6, #0
 8000e1a:	d069      	beq.n	8000ef0 <__udivmoddi4+0x2c8>
 8000e1c:	ebb1 050a 	subs.w	r5, r1, sl
 8000e20:	eb64 0403 	sbc.w	r4, r4, r3
 8000e24:	fa04 fc0c 	lsl.w	ip, r4, ip
 8000e28:	40fd      	lsrs	r5, r7
 8000e2a:	40fc      	lsrs	r4, r7
 8000e2c:	ea4c 0505 	orr.w	r5, ip, r5
 8000e30:	e9c6 5400 	strd	r5, r4, [r6]
 8000e34:	2700      	movs	r7, #0
 8000e36:	e747      	b.n	8000cc8 <__udivmoddi4+0xa0>
 8000e38:	f1c2 0320 	rsb	r3, r2, #32
 8000e3c:	fa20 f703 	lsr.w	r7, r0, r3
 8000e40:	4095      	lsls	r5, r2
 8000e42:	fa01 f002 	lsl.w	r0, r1, r2
 8000e46:	fa21 f303 	lsr.w	r3, r1, r3
 8000e4a:	ea4f 4e15 	mov.w	lr, r5, lsr #16
 8000e4e:	4338      	orrs	r0, r7
 8000e50:	0c01      	lsrs	r1, r0, #16
 8000e52:	fbb3 f7fe 	udiv	r7, r3, lr
 8000e56:	fa1f f885 	uxth.w	r8, r5
 8000e5a:	fb0e 3317 	mls	r3, lr, r7, r3
 8000e5e:	ea41 4103 	orr.w	r1, r1, r3, lsl #16
 8000e62:	fb07 f308 	mul.w	r3, r7, r8
 8000e66:	428b      	cmp	r3, r1
 8000e68:	fa04 f402 	lsl.w	r4, r4, r2
 8000e6c:	d907      	bls.n	8000e7e <__udivmoddi4+0x256>
 8000e6e:	1869      	adds	r1, r5, r1
 8000e70:	f107 3cff 	add.w	ip, r7, #4294967295
 8000e74:	d22f      	bcs.n	8000ed6 <__udivmoddi4+0x2ae>
 8000e76:	428b      	cmp	r3, r1
 8000e78:	d92d      	bls.n	8000ed6 <__udivmoddi4+0x2ae>
 8000e7a:	3f02      	subs	r7, #2
 8000e7c:	4429      	add	r1, r5
 8000e7e:	1acb      	subs	r3, r1, r3
 8000e80:	b281      	uxth	r1, r0
 8000e82:	fbb3 f0fe 	udiv	r0, r3, lr
 8000e86:	fb0e 3310 	mls	r3, lr, r0, r3
 8000e8a:	ea41 4103 	orr.w	r1, r1, r3, lsl #16
 8000e8e:	fb00 f308 	mul.w	r3, r0, r8
 8000e92:	428b      	cmp	r3, r1
 8000e94:	d907      	bls.n	8000ea6 <__udivmoddi4+0x27e>
 8000e96:	1869      	adds	r1, r5, r1
 8000e98:	f100 3cff 	add.w	ip, r0, #4294967295
 8000e9c:	d217      	bcs.n	8000ece <__udivmoddi4+0x2a6>
 8000e9e:	428b      	cmp	r3, r1
 8000ea0:	d915      	bls.n	8000ece <__udivmoddi4+0x2a6>
 8000ea2:	3802      	subs	r0, #2
 8000ea4:	4429      	add	r1, r5
 8000ea6:	1ac9      	subs	r1, r1, r3
 8000ea8:	ea40 4707 	orr.w	r7, r0, r7, lsl #16
 8000eac:	e73b      	b.n	8000d26 <__udivmoddi4+0xfe>
 8000eae:	4637      	mov	r7, r6
 8000eb0:	4630      	mov	r0, r6
 8000eb2:	e709      	b.n	8000cc8 <__udivmoddi4+0xa0>
 8000eb4:	4607      	mov	r7, r0
 8000eb6:	e6e7      	b.n	8000c88 <__udivmoddi4+0x60>
 8000eb8:	4618      	mov	r0, r3
 8000eba:	e6fb      	b.n	8000cb4 <__udivmoddi4+0x8c>
 8000ebc:	4541      	cmp	r1, r8
 8000ebe:	d2ab      	bcs.n	8000e18 <__udivmoddi4+0x1f0>
 8000ec0:	ebb8 0a02 	subs.w	sl, r8, r2
 8000ec4:	eb69 020e 	sbc.w	r2, r9, lr
 8000ec8:	3801      	subs	r0, #1
 8000eca:	4613      	mov	r3, r2
 8000ecc:	e7a4      	b.n	8000e18 <__udivmoddi4+0x1f0>
 8000ece:	4660      	mov	r0, ip
 8000ed0:	e7e9      	b.n	8000ea6 <__udivmoddi4+0x27e>
 8000ed2:	4618      	mov	r0, r3
 8000ed4:	e795      	b.n	8000e02 <__udivmoddi4+0x1da>
 8000ed6:	4667      	mov	r7, ip
 8000ed8:	e7d1      	b.n	8000e7e <__udivmoddi4+0x256>
 8000eda:	4681      	mov	r9, r0
 8000edc:	e77c      	b.n	8000dd8 <__udivmoddi4+0x1b0>
 8000ede:	3802      	subs	r0, #2
 8000ee0:	442c      	add	r4, r5
 8000ee2:	e747      	b.n	8000d74 <__udivmoddi4+0x14c>
 8000ee4:	f1ac 0c02 	sub.w	ip, ip, #2
 8000ee8:	442b      	add	r3, r5
 8000eea:	e72f      	b.n	8000d4c <__udivmoddi4+0x124>
 8000eec:	4638      	mov	r0, r7
 8000eee:	e708      	b.n	8000d02 <__udivmoddi4+0xda>
 8000ef0:	4637      	mov	r7, r6
 8000ef2:	e6e9      	b.n	8000cc8 <__udivmoddi4+0xa0>

08000ef4 <__aeabi_idiv0>:
 8000ef4:	4770      	bx	lr
 8000ef6:	bf00      	nop

08000ef8 <Chassis_Task_Func>:
* @brief Function implementing the Chassis_Task thread.
* @param argument: Not used
* @retval None
*/
void Chassis_Task_Func(void const * argument)
{
 8000ef8:	b590      	push	{r4, r7, lr}
 8000efa:	b089      	sub	sp, #36	; 0x24
 8000efc:	af00      	add	r7, sp, #0
 8000efe:	6078      	str	r0, [r7, #4]

  /* USER CODE BEGIN Chassis_Task_Func */
	buzzer_play_mario(300);
 8000f00:	f44f 7096 	mov.w	r0, #300	; 0x12c
 8000f04:	f001 f884 	bl	8002010 <buzzer_play_mario>


  int32_t direction = CLOCKWISE; // direction of motor
 8000f08:	2301      	movs	r3, #1
 8000f0a:	61fb      	str	r3, [r7, #28]
  double vel = 1250; //Velocity of motor
 8000f0c:	a407      	add	r4, pc, #28	; (adr r4, 8000f2c <Chassis_Task_Func+0x34>)
 8000f0e:	e9d4 3400 	ldrd	r3, r4, [r4]
 8000f12:	e9c7 3404 	strd	r3, r4, [r7, #16]
  uint32_t cycles_s=2; //Time period is 1 seconds per cycle, 5=5 cycles=5s, the timer is controlled by TIM13
 8000f16:	2302      	movs	r3, #2
 8000f18:	60fb      	str	r3, [r7, #12]
  first_loop=1;
 8000f1a:	4b03      	ldr	r3, [pc, #12]	; (8000f28 <Chassis_Task_Func+0x30>)
 8000f1c:	2201      	movs	r2, #1
 8000f1e:	701a      	strb	r2, [r3, #0]
  for(;;)
  {

	 // Forever loop
	  //motor_move_period(cycles_s, vel, direction);
	  first_loop=0;
 8000f20:	4b01      	ldr	r3, [pc, #4]	; (8000f28 <Chassis_Task_Func+0x30>)
 8000f22:	2200      	movs	r2, #0
 8000f24:	701a      	strb	r2, [r3, #0]
 8000f26:	e7fb      	b.n	8000f20 <Chassis_Task_Func+0x28>
 8000f28:	2000418c 	.word	0x2000418c
 8000f2c:	00000000 	.word	0x00000000
 8000f30:	40938800 	.word	0x40938800
 8000f34:	00000000 	.word	0x00000000

08000f38 <Gimbal_Task_Function>:
int16_t current_angle;
//Velocity, from -30000 to 30000
int16_t velocity;

void Gimbal_Task_Function(void const * argument)
{
 8000f38:	b5f0      	push	{r4, r5, r6, r7, lr}
 8000f3a:	ed2d 8b02 	vpush	{d8}
 8000f3e:	b099      	sub	sp, #100	; 0x64
 8000f40:	af00      	add	r7, sp, #0
 8000f42:	6078      	str	r0, [r7, #4]

  /* USER CODE BEGIN Gimbal_Task_Function */
  double vmax=30000;
 8000f44:	a4cf      	add	r4, pc, #828	; (adr r4, 8001284 <Gimbal_Task_Function+0x34c>)
 8000f46:	e9d4 3400 	ldrd	r3, r4, [r4]
 8000f4a:	e9c7 3410 	strd	r3, r4, [r7, #64]	; 0x40
  double max_angle=4096;
 8000f4e:	f04f 0300 	mov.w	r3, #0
 8000f52:	4cc1      	ldr	r4, [pc, #772]	; (8001258 <Gimbal_Task_Function+0x320>)
 8000f54:	e9c7 340e 	strd	r3, r4, [r7, #56]	; 0x38
  int16_t init_complete=-3000; //For the first init_complete*osDelay [ms], initialize gimbal state
 8000f58:	f24f 4348 	movw	r3, #62536	; 0xf448
 8000f5c:	86fb      	strh	r3, [r7, #54]	; 0x36
  uint16_t pitch_change_counter=0;
 8000f5e:	2300      	movs	r3, #0
 8000f60:	f8a7 305e 	strh.w	r3, [r7, #94]	; 0x5e
  uint16_t yaw_change_counter=0;
 8000f64:	2300      	movs	r3, #0
 8000f66:	f8a7 305c 	strh.w	r3, [r7, #92]	; 0x5c
  int16_t control_counter=-1;
 8000f6a:	f64f 73ff 	movw	r3, #65535	; 0xffff
 8000f6e:	f8a7 305a 	strh.w	r3, [r7, #90]	; 0x5a

  //Front and back directions
  int16_t patrol_dir=1;
 8000f72:	2301      	movs	r3, #1
 8000f74:	f8a7 3058 	strh.w	r3, [r7, #88]	; 0x58
  int16_t sweep_dir=1;
 8000f78:	2301      	movs	r3, #1
 8000f7a:	f8a7 3056 	strh.w	r3, [r7, #86]	; 0x56
  int16_t pitch_state;

  //Init comm pack
  comm_pack.yaw_data = 0;
 8000f7e:	4bb7      	ldr	r3, [pc, #732]	; (800125c <Gimbal_Task_Function+0x324>)
 8000f80:	2200      	movs	r2, #0
 8000f82:	601a      	str	r2, [r3, #0]
  comm_pack.pitch_data = 0;
 8000f84:	4bb5      	ldr	r3, [pc, #724]	; (800125c <Gimbal_Task_Function+0x324>)
 8000f86:	2200      	movs	r2, #0
 8000f88:	605a      	str	r2, [r3, #4]
  comm_pack.dist_data = 0;
 8000f8a:	4bb4      	ldr	r3, [pc, #720]	; (800125c <Gimbal_Task_Function+0x324>)
 8000f8c:	2200      	movs	r2, #0
 8000f8e:	609a      	str	r2, [r3, #8]
  comm_pack.fire_cmd = 0;
 8000f90:	4bb2      	ldr	r3, [pc, #712]	; (800125c <Gimbal_Task_Function+0x324>)
 8000f92:	2200      	movs	r2, #0
 8000f94:	611a      	str	r2, [r3, #16]
  comm_pack.target_num = 0;
 8000f96:	4bb1      	ldr	r3, [pc, #708]	; (800125c <Gimbal_Task_Function+0x324>)
 8000f98:	2200      	movs	r2, #0
 8000f9a:	60da      	str	r2, [r3, #12]
  Motor temp_motor_buffer;

  //Init angle calculations
  const int16_t MAX_YAW=(INIT_YAW+YAW_MAX_HALF_DELTA+360) % 360; //Wrap all angles between 0 and 360
 8000f9c:	235f      	movs	r3, #95	; 0x5f
 8000f9e:	86bb      	strh	r3, [r7, #52]	; 0x34
  const int16_t MIN_YAW=(INIT_YAW-YAW_MAX_HALF_DELTA+360) % 360; //Wrap all angles between 0 and 360
 8000fa0:	f240 134f 	movw	r3, #335	; 0x14f
 8000fa4:	867b      	strh	r3, [r7, #50]	; 0x32
  //const int16_t YAW_OVER_ZERO=check_angle_over_zero(MIN_YAW, MAX_YAW);

  const int16_t MAX_PITCH_FRONT=(FRONT_ANGLE+PITCH_MAX_HALF_DELTA+360) % 360; //Wrap all angles between 0 and 360
 8000fa6:	f240 1345 	movw	r3, #325	; 0x145
 8000faa:	863b      	strh	r3, [r7, #48]	; 0x30
  const int16_t MIN_PITCH_FRONT=(FRONT_ANGLE-PITCH_MAX_HALF_DELTA+360) % 360; //Wrap all angles between 0 and 360
 8000fac:	23eb      	movs	r3, #235	; 0xeb
 8000fae:	85fb      	strh	r3, [r7, #46]	; 0x2e
  //const int16_t PITCH_FRONT_OVER_ZERO=check_angle_over_zero(MIN_YAW, MAX_YAW);

  const int16_t MAX_PITCH_BACK=(BACK_ANGLE+PITCH_MAX_HALF_DELTA+360) % 360; //Wrap all angles between 0 and 360
 8000fb0:	f240 1345 	movw	r3, #325	; 0x145
 8000fb4:	85bb      	strh	r3, [r7, #44]	; 0x2c
  const int16_t MIN_PITCH_BACK=(BACK_ANGLE-PITCH_MAX_HALF_DELTA+360) % 360; //Wrap all angles between 0 and 360
 8000fb6:	23eb      	movs	r3, #235	; 0xeb
 8000fb8:	857b      	strh	r3, [r7, #42]	; 0x2a
  /* Infinite loop */
	//buzzer_play_chromatic(100);
	//buzzer_play_mario(200);
	//int16_t message=7500;

	HAL_CAN_ActivateNotification(&hcan1, CAN_IT_RX_FIFO0_MSG_PENDING);
 8000fba:	2102      	movs	r1, #2
 8000fbc:	48a8      	ldr	r0, [pc, #672]	; (8001260 <Gimbal_Task_Function+0x328>)
 8000fbe:	f002 fedc 	bl	8003d7a <HAL_CAN_ActivateNotification>

	//HAL_UART_Receive_IT(&husart6, pdata, (PACKLEN+1));
	printf("Gimbal App is on! \r\n");
 8000fc2:	48a8      	ldr	r0, [pc, #672]	; (8001264 <Gimbal_Task_Function+0x32c>)
 8000fc4:	f007 f842 	bl	800804c <puts>
	velocity=3000;
 8000fc8:	4ba7      	ldr	r3, [pc, #668]	; (8001268 <Gimbal_Task_Function+0x330>)
 8000fca:	f640 32b8 	movw	r2, #3000	; 0xbb8
 8000fce:	801a      	strh	r2, [r3, #0]
	abs_pitch=0;
 8000fd0:	4aa6      	ldr	r2, [pc, #664]	; (800126c <Gimbal_Task_Function+0x334>)
 8000fd2:	f04f 0300 	mov.w	r3, #0
 8000fd6:	f04f 0400 	mov.w	r4, #0
 8000fda:	e9c2 3400 	strd	r3, r4, [r2]
	abs_yaw=0;
 8000fde:	4aa4      	ldr	r2, [pc, #656]	; (8001270 <Gimbal_Task_Function+0x338>)
 8000fe0:	f04f 0300 	mov.w	r3, #0
 8000fe4:	f04f 0400 	mov.w	r4, #0
 8000fe8:	e9c2 3400 	strd	r3, r4, [r2]
/*
	uint16_t counter=0;*/

	//End of variables that doesn't work

  for (int i=0;i<3000;++i){
 8000fec:	2300      	movs	r3, #0
 8000fee:	64fb      	str	r3, [r7, #76]	; 0x4c
 8000ff0:	e030      	b.n	8001054 <Gimbal_Task_Function+0x11c>
	        pitch_state=PITCH_FRONT;
 8000ff2:	2301      	movs	r3, #1
 8000ff4:	f8a7 3054 	strh.w	r3, [r7, #84]	; 0x54
			Motor_pid_set_angle(&motor_data[4], INIT_YAW, vmax/max_angle,0,0);
 8000ff8:	e9d7 230e 	ldrd	r2, r3, [r7, #56]	; 0x38
 8000ffc:	e9d7 0110 	ldrd	r0, r1, [r7, #64]	; 0x40
 8001000:	f7ff fc2c 	bl	800085c <__aeabi_ddiv>
 8001004:	4603      	mov	r3, r0
 8001006:	460c      	mov	r4, r1
 8001008:	4618      	mov	r0, r3
 800100a:	4621      	mov	r1, r4
 800100c:	f7ff fdac 	bl	8000b68 <__aeabi_d2iz>
 8001010:	4601      	mov	r1, r0
 8001012:	2300      	movs	r3, #0
 8001014:	2200      	movs	r2, #0
 8001016:	ed9f 0b8c 	vldr	d0, [pc, #560]	; 8001248 <Gimbal_Task_Function+0x310>
 800101a:	4896      	ldr	r0, [pc, #600]	; (8001274 <Gimbal_Task_Function+0x33c>)
 800101c:	f000 fe34 	bl	8001c88 <Motor_pid_set_angle>
			Motor_pid_set_angle(&motor_data[5], FRONT_ANGLE, vmax/max_angle,0,0);
 8001020:	e9d7 230e 	ldrd	r2, r3, [r7, #56]	; 0x38
 8001024:	e9d7 0110 	ldrd	r0, r1, [r7, #64]	; 0x40
 8001028:	f7ff fc18 	bl	800085c <__aeabi_ddiv>
 800102c:	4603      	mov	r3, r0
 800102e:	460c      	mov	r4, r1
 8001030:	4618      	mov	r0, r3
 8001032:	4621      	mov	r1, r4
 8001034:	f7ff fd98 	bl	8000b68 <__aeabi_d2iz>
 8001038:	4601      	mov	r1, r0
 800103a:	2300      	movs	r3, #0
 800103c:	2200      	movs	r2, #0
 800103e:	ed9f 0b84 	vldr	d0, [pc, #528]	; 8001250 <Gimbal_Task_Function+0x318>
 8001042:	488d      	ldr	r0, [pc, #564]	; (8001278 <Gimbal_Task_Function+0x340>)
 8001044:	f000 fe20 	bl	8001c88 <Motor_pid_set_angle>
			osDelay(1);
 8001048:	2001      	movs	r0, #1
 800104a:	f005 fda4 	bl	8006b96 <osDelay>
  for (int i=0;i<3000;++i){
 800104e:	6cfb      	ldr	r3, [r7, #76]	; 0x4c
 8001050:	3301      	adds	r3, #1
 8001052:	64fb      	str	r3, [r7, #76]	; 0x4c
 8001054:	6cfb      	ldr	r3, [r7, #76]	; 0x4c
 8001056:	f640 32b7 	movw	r2, #2999	; 0xbb7
 800105a:	4293      	cmp	r3, r2
 800105c:	ddc9      	ble.n	8000ff2 <Gimbal_Task_Function+0xba>
  }

  for(;;)
  {
	  //Initialize the runtime angle maximums
	  runtime_yaw_max=MAX_YAW;
 800105e:	8ebb      	ldrh	r3, [r7, #52]	; 0x34
 8001060:	853b      	strh	r3, [r7, #40]	; 0x28
	  runtime_yaw_min=MIN_YAW;
 8001062:	8e7b      	ldrh	r3, [r7, #50]	; 0x32
 8001064:	84fb      	strh	r3, [r7, #38]	; 0x26
	  if (pitch_state==PITCH_FRONT){
 8001066:	f9b7 3054 	ldrsh.w	r3, [r7, #84]	; 0x54
 800106a:	2b01      	cmp	r3, #1
 800106c:	d106      	bne.n	800107c <Gimbal_Task_Function+0x144>
		  runtime_pitch_max=MAX_PITCH_FRONT;
 800106e:	8e3b      	ldrh	r3, [r7, #48]	; 0x30
 8001070:	f8a7 3052 	strh.w	r3, [r7, #82]	; 0x52
		  runtime_pitch_min=MIN_PITCH_FRONT;
 8001074:	8dfb      	ldrh	r3, [r7, #46]	; 0x2e
 8001076:	f8a7 3050 	strh.w	r3, [r7, #80]	; 0x50
 800107a:	e005      	b.n	8001088 <Gimbal_Task_Function+0x150>
	  }
	  else{
		  runtime_pitch_max=MAX_PITCH_BACK;
 800107c:	8dbb      	ldrh	r3, [r7, #44]	; 0x2c
 800107e:	f8a7 3052 	strh.w	r3, [r7, #82]	; 0x52
		  runtime_pitch_min=MIN_PITCH_BACK;
 8001082:	8d7b      	ldrh	r3, [r7, #42]	; 0x2a
 8001084:	f8a7 3050 	strh.w	r3, [r7, #80]	; 0x50
	  	   * 		since we do not know the freq of pack coming, doing this ensures every pack can be set to motor,
	  	   * 		rather than directly entering next uart interrupt.
	  	   *
	  	   * 		SweepAndPatrol may be put in for loop here, as the target num varible will be the quit signal of sweep mode.
	  	   */
	  	  if(comm_pack.target_num == 0){
 8001088:	4b74      	ldr	r3, [pc, #464]	; (800125c <Gimbal_Task_Function+0x324>)
 800108a:	68db      	ldr	r3, [r3, #12]
 800108c:	2b00      	cmp	r3, #0
 800108e:	f040 8122 	bne.w	80012d6 <Gimbal_Task_Function+0x39e>
	  		  if (control_counter>0){ //For 1s after receiving message, continue to set angle
 8001092:	f9b7 305a 	ldrsh.w	r3, [r7, #90]	; 0x5a
 8001096:	2b00      	cmp	r3, #0
 8001098:	dd39      	ble.n	800110e <Gimbal_Task_Function+0x1d6>
				  Motor_pid_set_angle(&motor_data[4], abs_yaw, vmax/max_angle,0,0);
 800109a:	4b75      	ldr	r3, [pc, #468]	; (8001270 <Gimbal_Task_Function+0x338>)
 800109c:	ed93 8b00 	vldr	d8, [r3]
 80010a0:	e9d7 230e 	ldrd	r2, r3, [r7, #56]	; 0x38
 80010a4:	e9d7 0110 	ldrd	r0, r1, [r7, #64]	; 0x40
 80010a8:	f7ff fbd8 	bl	800085c <__aeabi_ddiv>
 80010ac:	4603      	mov	r3, r0
 80010ae:	460c      	mov	r4, r1
 80010b0:	4618      	mov	r0, r3
 80010b2:	4621      	mov	r1, r4
 80010b4:	f7ff fd58 	bl	8000b68 <__aeabi_d2iz>
 80010b8:	4601      	mov	r1, r0
 80010ba:	2300      	movs	r3, #0
 80010bc:	2200      	movs	r2, #0
 80010be:	eeb0 0a48 	vmov.f32	s0, s16
 80010c2:	eef0 0a68 	vmov.f32	s1, s17
 80010c6:	486b      	ldr	r0, [pc, #428]	; (8001274 <Gimbal_Task_Function+0x33c>)
 80010c8:	f000 fdde 	bl	8001c88 <Motor_pid_set_angle>
				  Motor_pid_set_angle(&motor_data[5], abs_pitch, vmax/max_angle,0,0);
 80010cc:	4b67      	ldr	r3, [pc, #412]	; (800126c <Gimbal_Task_Function+0x334>)
 80010ce:	ed93 8b00 	vldr	d8, [r3]
 80010d2:	e9d7 230e 	ldrd	r2, r3, [r7, #56]	; 0x38
 80010d6:	e9d7 0110 	ldrd	r0, r1, [r7, #64]	; 0x40
 80010da:	f7ff fbbf 	bl	800085c <__aeabi_ddiv>
 80010de:	4603      	mov	r3, r0
 80010e0:	460c      	mov	r4, r1
 80010e2:	4618      	mov	r0, r3
 80010e4:	4621      	mov	r1, r4
 80010e6:	f7ff fd3f 	bl	8000b68 <__aeabi_d2iz>
 80010ea:	4601      	mov	r1, r0
 80010ec:	2300      	movs	r3, #0
 80010ee:	2200      	movs	r2, #0
 80010f0:	eeb0 0a48 	vmov.f32	s0, s16
 80010f4:	eef0 0a68 	vmov.f32	s1, s17
 80010f8:	485f      	ldr	r0, [pc, #380]	; (8001278 <Gimbal_Task_Function+0x340>)
 80010fa:	f000 fdc5 	bl	8001c88 <Motor_pid_set_angle>
	  			  control_counter--;
 80010fe:	f9b7 305a 	ldrsh.w	r3, [r7, #90]	; 0x5a
 8001102:	b29b      	uxth	r3, r3
 8001104:	3b01      	subs	r3, #1
 8001106:	b29b      	uxth	r3, r3
 8001108:	f8a7 305a 	strh.w	r3, [r7, #90]	; 0x5a
 800110c:	e1ff      	b.n	800150e <Gimbal_Task_Function+0x5d6>
	  		  }
	  		  else{
	  			  //If no new message for 1s, return to patrol mode

	  			  pitch_change_counter++;
 800110e:	f8b7 305e 	ldrh.w	r3, [r7, #94]	; 0x5e
 8001112:	3301      	adds	r3, #1
 8001114:	f8a7 305e 	strh.w	r3, [r7, #94]	; 0x5e
	  			  yaw_change_counter++;
 8001118:	f8b7 305c 	ldrh.w	r3, [r7, #92]	; 0x5c
 800111c:	3301      	adds	r3, #1
 800111e:	f8a7 305c 	strh.w	r3, [r7, #92]	; 0x5c
	  			  if (pitch_change_counter>MAX_PITCH_CHANGE_TIME*1000){
 8001122:	f8b7 305e 	ldrh.w	r3, [r7, #94]	; 0x5e
 8001126:	f241 3288 	movw	r2, #5000	; 0x1388
 800112a:	4293      	cmp	r3, r2
 800112c:	d908      	bls.n	8001140 <Gimbal_Task_Function+0x208>
	  				  patrol_dir=patrol_dir*-1;
 800112e:	f8b7 3058 	ldrh.w	r3, [r7, #88]	; 0x58
 8001132:	425b      	negs	r3, r3
 8001134:	b29b      	uxth	r3, r3
 8001136:	f8a7 3058 	strh.w	r3, [r7, #88]	; 0x58
	  				  pitch_change_counter=0;
 800113a:	2300      	movs	r3, #0
 800113c:	f8a7 305e 	strh.w	r3, [r7, #94]	; 0x5e
	  			  }

	  			  if(yaw_change_counter>MAX_YAW_CHANGE_TIME*1000){
 8001140:	f8b7 305c 	ldrh.w	r3, [r7, #92]	; 0x5c
 8001144:	f640 32b8 	movw	r2, #3000	; 0xbb8
 8001148:	4293      	cmp	r3, r2
 800114a:	d908      	bls.n	800115e <Gimbal_Task_Function+0x226>
	  				  sweep_dir=sweep_dir*-1;
 800114c:	f8b7 3056 	ldrh.w	r3, [r7, #86]	; 0x56
 8001150:	425b      	negs	r3, r3
 8001152:	b29b      	uxth	r3, r3
 8001154:	f8a7 3056 	strh.w	r3, [r7, #86]	; 0x56
	  				  yaw_change_counter=0;
 8001158:	2300      	movs	r3, #0
 800115a:	f8a7 305c 	strh.w	r3, [r7, #92]	; 0x5c
	  			  }

	  			  if (patrol_dir==-1){
 800115e:	f9b7 3058 	ldrsh.w	r3, [r7, #88]	; 0x58
 8001162:	f1b3 3fff 	cmp.w	r3, #4294967295
 8001166:	d122      	bne.n	80011ae <Gimbal_Task_Function+0x276>
	  				  pitch_state=PITCH_BACK;
 8001168:	f64f 73ff 	movw	r3, #65535	; 0xffff
 800116c:	f8a7 3054 	strh.w	r3, [r7, #84]	; 0x54
	  				  Motor_pid_set_angle(&motor_data[5],BACK_ANGLE,1*vmax/max_angle,0,0); //Use 1*vmax/max_angle if you want max stiffness, can probably go above???havn't tested.
 8001170:	e9d7 230e 	ldrd	r2, r3, [r7, #56]	; 0x38
 8001174:	e9d7 0110 	ldrd	r0, r1, [r7, #64]	; 0x40
 8001178:	f7ff fb70 	bl	800085c <__aeabi_ddiv>
 800117c:	4603      	mov	r3, r0
 800117e:	460c      	mov	r4, r1
 8001180:	4618      	mov	r0, r3
 8001182:	4621      	mov	r1, r4
 8001184:	f7ff fcf0 	bl	8000b68 <__aeabi_d2iz>
 8001188:	4601      	mov	r1, r0
 800118a:	2300      	movs	r3, #0
 800118c:	2200      	movs	r2, #0
 800118e:	ed9f 0b30 	vldr	d0, [pc, #192]	; 8001250 <Gimbal_Task_Function+0x318>
 8001192:	4839      	ldr	r0, [pc, #228]	; (8001278 <Gimbal_Task_Function+0x340>)
 8001194:	f000 fd78 	bl	8001c88 <Motor_pid_set_angle>
	  				  HAL_GPIO_WritePin(GPIOG, LD_C_Pin, RESET);
 8001198:	2200      	movs	r2, #0
 800119a:	2140      	movs	r1, #64	; 0x40
 800119c:	4837      	ldr	r0, [pc, #220]	; (800127c <Gimbal_Task_Function+0x344>)
 800119e:	f003 fae9 	bl	8004774 <HAL_GPIO_WritePin>
	  				  HAL_GPIO_WritePin(GPIOG, LD_D_Pin, SET);
 80011a2:	2201      	movs	r2, #1
 80011a4:	2120      	movs	r1, #32
 80011a6:	4835      	ldr	r0, [pc, #212]	; (800127c <Gimbal_Task_Function+0x344>)
 80011a8:	f003 fae4 	bl	8004774 <HAL_GPIO_WritePin>
 80011ac:	e020      	b.n	80011f0 <Gimbal_Task_Function+0x2b8>
	  			  }
	  			  else{
	  				  pitch_state=PITCH_FRONT;
 80011ae:	2301      	movs	r3, #1
 80011b0:	f8a7 3054 	strh.w	r3, [r7, #84]	; 0x54
	  				  Motor_pid_set_angle(&motor_data[5],FRONT_ANGLE,1*vmax/max_angle,0,0);
 80011b4:	e9d7 230e 	ldrd	r2, r3, [r7, #56]	; 0x38
 80011b8:	e9d7 0110 	ldrd	r0, r1, [r7, #64]	; 0x40
 80011bc:	f7ff fb4e 	bl	800085c <__aeabi_ddiv>
 80011c0:	4603      	mov	r3, r0
 80011c2:	460c      	mov	r4, r1
 80011c4:	4618      	mov	r0, r3
 80011c6:	4621      	mov	r1, r4
 80011c8:	f7ff fcce 	bl	8000b68 <__aeabi_d2iz>
 80011cc:	4601      	mov	r1, r0
 80011ce:	2300      	movs	r3, #0
 80011d0:	2200      	movs	r2, #0
 80011d2:	ed9f 0b1f 	vldr	d0, [pc, #124]	; 8001250 <Gimbal_Task_Function+0x318>
 80011d6:	4828      	ldr	r0, [pc, #160]	; (8001278 <Gimbal_Task_Function+0x340>)
 80011d8:	f000 fd56 	bl	8001c88 <Motor_pid_set_angle>
	  				  HAL_GPIO_WritePin(GPIOG, LD_D_Pin, RESET);
 80011dc:	2200      	movs	r2, #0
 80011de:	2120      	movs	r1, #32
 80011e0:	4826      	ldr	r0, [pc, #152]	; (800127c <Gimbal_Task_Function+0x344>)
 80011e2:	f003 fac7 	bl	8004774 <HAL_GPIO_WritePin>
	  				  HAL_GPIO_WritePin(GPIOG, LD_C_Pin, SET);
 80011e6:	2201      	movs	r2, #1
 80011e8:	2140      	movs	r1, #64	; 0x40
 80011ea:	4824      	ldr	r0, [pc, #144]	; (800127c <Gimbal_Task_Function+0x344>)
 80011ec:	f003 fac2 	bl	8004774 <HAL_GPIO_WritePin>
	  			  }

	  			  if(sweep_dir==-1){
 80011f0:	f9b7 3056 	ldrsh.w	r3, [r7, #86]	; 0x56
 80011f4:	f1b3 3fff 	cmp.w	r3, #4294967295
 80011f8:	d148      	bne.n	800128c <Gimbal_Task_Function+0x354>
	  				  Motor_pid_set_angle(&motor_data[4],runtime_yaw_max,0.5*vmax/max_angle,0,0);
 80011fa:	f9b7 3028 	ldrsh.w	r3, [r7, #40]	; 0x28
 80011fe:	4618      	mov	r0, r3
 8001200:	f7ff f998 	bl	8000534 <__aeabi_i2d>
 8001204:	4605      	mov	r5, r0
 8001206:	460e      	mov	r6, r1
 8001208:	f04f 0200 	mov.w	r2, #0
 800120c:	4b1c      	ldr	r3, [pc, #112]	; (8001280 <Gimbal_Task_Function+0x348>)
 800120e:	e9d7 0110 	ldrd	r0, r1, [r7, #64]	; 0x40
 8001212:	f7ff f9f9 	bl	8000608 <__aeabi_dmul>
 8001216:	4603      	mov	r3, r0
 8001218:	460c      	mov	r4, r1
 800121a:	4618      	mov	r0, r3
 800121c:	4621      	mov	r1, r4
 800121e:	e9d7 230e 	ldrd	r2, r3, [r7, #56]	; 0x38
 8001222:	f7ff fb1b 	bl	800085c <__aeabi_ddiv>
 8001226:	4603      	mov	r3, r0
 8001228:	460c      	mov	r4, r1
 800122a:	4618      	mov	r0, r3
 800122c:	4621      	mov	r1, r4
 800122e:	f7ff fc9b 	bl	8000b68 <__aeabi_d2iz>
 8001232:	4601      	mov	r1, r0
 8001234:	2300      	movs	r3, #0
 8001236:	2200      	movs	r2, #0
 8001238:	ec46 5b10 	vmov	d0, r5, r6
 800123c:	480d      	ldr	r0, [pc, #52]	; (8001274 <Gimbal_Task_Function+0x33c>)
 800123e:	f000 fd23 	bl	8001c88 <Motor_pid_set_angle>
 8001242:	e164      	b.n	800150e <Gimbal_Task_Function+0x5d6>
 8001244:	f3af 8000 	nop.w
 8001248:	00000000 	.word	0x00000000
 800124c:	40418000 	.word	0x40418000
 8001250:	00000000 	.word	0x00000000
 8001254:	40718000 	.word	0x40718000
 8001258:	40b00000 	.word	0x40b00000
 800125c:	20004294 	.word	0x20004294
 8001260:	200041d0 	.word	0x200041d0
 8001264:	08009f50 	.word	0x08009f50
 8001268:	20004282 	.word	0x20004282
 800126c:	20004278 	.word	0x20004278
 8001270:	20004288 	.word	0x20004288
 8001274:	200040f4 	.word	0x200040f4
 8001278:	20004110 	.word	0x20004110
 800127c:	40021800 	.word	0x40021800
 8001280:	3fe00000 	.word	0x3fe00000
 8001284:	00000000 	.word	0x00000000
 8001288:	40dd4c00 	.word	0x40dd4c00
	  			  }
	  			  else{
	  				  Motor_pid_set_angle(&motor_data[4],runtime_yaw_min,0.5*vmax/max_angle,0,0);
 800128c:	f9b7 3026 	ldrsh.w	r3, [r7, #38]	; 0x26
 8001290:	4618      	mov	r0, r3
 8001292:	f7ff f94f 	bl	8000534 <__aeabi_i2d>
 8001296:	4605      	mov	r5, r0
 8001298:	460e      	mov	r6, r1
 800129a:	f04f 0200 	mov.w	r2, #0
 800129e:	4b9e      	ldr	r3, [pc, #632]	; (8001518 <Gimbal_Task_Function+0x5e0>)
 80012a0:	e9d7 0110 	ldrd	r0, r1, [r7, #64]	; 0x40
 80012a4:	f7ff f9b0 	bl	8000608 <__aeabi_dmul>
 80012a8:	4603      	mov	r3, r0
 80012aa:	460c      	mov	r4, r1
 80012ac:	4618      	mov	r0, r3
 80012ae:	4621      	mov	r1, r4
 80012b0:	e9d7 230e 	ldrd	r2, r3, [r7, #56]	; 0x38
 80012b4:	f7ff fad2 	bl	800085c <__aeabi_ddiv>
 80012b8:	4603      	mov	r3, r0
 80012ba:	460c      	mov	r4, r1
 80012bc:	4618      	mov	r0, r3
 80012be:	4621      	mov	r1, r4
 80012c0:	f7ff fc52 	bl	8000b68 <__aeabi_d2iz>
 80012c4:	4601      	mov	r1, r0
 80012c6:	2300      	movs	r3, #0
 80012c8:	2200      	movs	r2, #0
 80012ca:	ec46 5b10 	vmov	d0, r5, r6
 80012ce:	4893      	ldr	r0, [pc, #588]	; (800151c <Gimbal_Task_Function+0x5e4>)
 80012d0:	f000 fcda 	bl	8001c88 <Motor_pid_set_angle>
 80012d4:	e11b      	b.n	800150e <Gimbal_Task_Function+0x5d6>



	  	  }
	  	  else{
	  		 pitch_change_counter=0; //If there is a target, restart pitch and yaw counter
 80012d6:	2300      	movs	r3, #0
 80012d8:	f8a7 305e 	strh.w	r3, [r7, #94]	; 0x5e
	  		 yaw_change_counter=0;
 80012dc:	2300      	movs	r3, #0
 80012de:	f8a7 305c 	strh.w	r3, [r7, #92]	; 0x5c
	  		 control_counter=TGT_CONST;
 80012e2:	f44f 737a 	mov.w	r3, #1000	; 0x3e8
 80012e6:	f8a7 305a 	strh.w	r3, [r7, #90]	; 0x5a


			  if (comm_pack.pack_cond==PACKCOR){
 80012ea:	4b8d      	ldr	r3, [pc, #564]	; (8001520 <Gimbal_Task_Function+0x5e8>)
 80012ec:	695b      	ldr	r3, [r3, #20]
 80012ee:	2b00      	cmp	r3, #0
 80012f0:	f040 8104 	bne.w	80014fc <Gimbal_Task_Function+0x5c4>
				  if (check_angle_out_of_range(abs_yaw,runtime_yaw_max,runtime_yaw_min)){
 80012f4:	4b8b      	ldr	r3, [pc, #556]	; (8001524 <Gimbal_Task_Function+0x5ec>)
 80012f6:	e9d3 3400 	ldrd	r3, r4, [r3]
 80012fa:	4618      	mov	r0, r3
 80012fc:	4621      	mov	r1, r4
 80012fe:	f7ff fc33 	bl	8000b68 <__aeabi_d2iz>
 8001302:	f9b7 2026 	ldrsh.w	r2, [r7, #38]	; 0x26
 8001306:	f9b7 3028 	ldrsh.w	r3, [r7, #40]	; 0x28
 800130a:	4619      	mov	r1, r3
 800130c:	f000 f9b0 	bl	8001670 <check_angle_out_of_range>
 8001310:	4603      	mov	r3, r0
 8001312:	2b00      	cmp	r3, #0
 8001314:	d047      	beq.n	80013a6 <Gimbal_Task_Function+0x46e>

					  if(abs(abs_yaw-runtime_yaw_max)<abs(abs_yaw-runtime_yaw_min)){ //Find the closer bound
 8001316:	4b83      	ldr	r3, [pc, #524]	; (8001524 <Gimbal_Task_Function+0x5ec>)
 8001318:	e9d3 4500 	ldrd	r4, r5, [r3]
 800131c:	f9b7 3028 	ldrsh.w	r3, [r7, #40]	; 0x28
 8001320:	4618      	mov	r0, r3
 8001322:	f7ff f907 	bl	8000534 <__aeabi_i2d>
 8001326:	4602      	mov	r2, r0
 8001328:	460b      	mov	r3, r1
 800132a:	4620      	mov	r0, r4
 800132c:	4629      	mov	r1, r5
 800132e:	f7fe ffb3 	bl	8000298 <__aeabi_dsub>
 8001332:	4603      	mov	r3, r0
 8001334:	460c      	mov	r4, r1
 8001336:	4618      	mov	r0, r3
 8001338:	4621      	mov	r1, r4
 800133a:	f7ff fc15 	bl	8000b68 <__aeabi_d2iz>
 800133e:	4603      	mov	r3, r0
 8001340:	ea83 76e3 	eor.w	r6, r3, r3, asr #31
 8001344:	eba6 76e3 	sub.w	r6, r6, r3, asr #31
 8001348:	4b76      	ldr	r3, [pc, #472]	; (8001524 <Gimbal_Task_Function+0x5ec>)
 800134a:	e9d3 4500 	ldrd	r4, r5, [r3]
 800134e:	f9b7 3026 	ldrsh.w	r3, [r7, #38]	; 0x26
 8001352:	4618      	mov	r0, r3
 8001354:	f7ff f8ee 	bl	8000534 <__aeabi_i2d>
 8001358:	4602      	mov	r2, r0
 800135a:	460b      	mov	r3, r1
 800135c:	4620      	mov	r0, r4
 800135e:	4629      	mov	r1, r5
 8001360:	f7fe ff9a 	bl	8000298 <__aeabi_dsub>
 8001364:	4603      	mov	r3, r0
 8001366:	460c      	mov	r4, r1
 8001368:	4618      	mov	r0, r3
 800136a:	4621      	mov	r1, r4
 800136c:	f7ff fbfc 	bl	8000b68 <__aeabi_d2iz>
 8001370:	4603      	mov	r3, r0
 8001372:	2b00      	cmp	r3, #0
 8001374:	bfb8      	it	lt
 8001376:	425b      	neglt	r3, r3
 8001378:	429e      	cmp	r6, r3
 800137a:	da0a      	bge.n	8001392 <Gimbal_Task_Function+0x45a>
						  abs_yaw=runtime_yaw_max;
 800137c:	f9b7 3028 	ldrsh.w	r3, [r7, #40]	; 0x28
 8001380:	4618      	mov	r0, r3
 8001382:	f7ff f8d7 	bl	8000534 <__aeabi_i2d>
 8001386:	4603      	mov	r3, r0
 8001388:	460c      	mov	r4, r1
 800138a:	4a66      	ldr	r2, [pc, #408]	; (8001524 <Gimbal_Task_Function+0x5ec>)
 800138c:	e9c2 3400 	strd	r3, r4, [r2]
 8001390:	e009      	b.n	80013a6 <Gimbal_Task_Function+0x46e>
					  }
					  else{
						  abs_yaw=runtime_yaw_min;
 8001392:	f9b7 3026 	ldrsh.w	r3, [r7, #38]	; 0x26
 8001396:	4618      	mov	r0, r3
 8001398:	f7ff f8cc 	bl	8000534 <__aeabi_i2d>
 800139c:	4603      	mov	r3, r0
 800139e:	460c      	mov	r4, r1
 80013a0:	4a60      	ldr	r2, [pc, #384]	; (8001524 <Gimbal_Task_Function+0x5ec>)
 80013a2:	e9c2 3400 	strd	r3, r4, [r2]
					  }

				  }

				  if (check_angle_out_of_range(abs_pitch,runtime_pitch_max,runtime_pitch_min)){
 80013a6:	4b60      	ldr	r3, [pc, #384]	; (8001528 <Gimbal_Task_Function+0x5f0>)
 80013a8:	e9d3 3400 	ldrd	r3, r4, [r3]
 80013ac:	4618      	mov	r0, r3
 80013ae:	4621      	mov	r1, r4
 80013b0:	f7ff fbda 	bl	8000b68 <__aeabi_d2iz>
 80013b4:	f9b7 2050 	ldrsh.w	r2, [r7, #80]	; 0x50
 80013b8:	f9b7 3052 	ldrsh.w	r3, [r7, #82]	; 0x52
 80013bc:	4619      	mov	r1, r3
 80013be:	f000 f957 	bl	8001670 <check_angle_out_of_range>
 80013c2:	4603      	mov	r3, r0
 80013c4:	2b00      	cmp	r3, #0
 80013c6:	d047      	beq.n	8001458 <Gimbal_Task_Function+0x520>

					  if(abs(abs_pitch-runtime_pitch_max)<abs(abs_pitch-runtime_pitch_min)){ //Find the closer bound
 80013c8:	4b57      	ldr	r3, [pc, #348]	; (8001528 <Gimbal_Task_Function+0x5f0>)
 80013ca:	e9d3 4500 	ldrd	r4, r5, [r3]
 80013ce:	f9b7 3052 	ldrsh.w	r3, [r7, #82]	; 0x52
 80013d2:	4618      	mov	r0, r3
 80013d4:	f7ff f8ae 	bl	8000534 <__aeabi_i2d>
 80013d8:	4602      	mov	r2, r0
 80013da:	460b      	mov	r3, r1
 80013dc:	4620      	mov	r0, r4
 80013de:	4629      	mov	r1, r5
 80013e0:	f7fe ff5a 	bl	8000298 <__aeabi_dsub>
 80013e4:	4603      	mov	r3, r0
 80013e6:	460c      	mov	r4, r1
 80013e8:	4618      	mov	r0, r3
 80013ea:	4621      	mov	r1, r4
 80013ec:	f7ff fbbc 	bl	8000b68 <__aeabi_d2iz>
 80013f0:	4603      	mov	r3, r0
 80013f2:	ea83 76e3 	eor.w	r6, r3, r3, asr #31
 80013f6:	eba6 76e3 	sub.w	r6, r6, r3, asr #31
 80013fa:	4b4b      	ldr	r3, [pc, #300]	; (8001528 <Gimbal_Task_Function+0x5f0>)
 80013fc:	e9d3 4500 	ldrd	r4, r5, [r3]
 8001400:	f9b7 3050 	ldrsh.w	r3, [r7, #80]	; 0x50
 8001404:	4618      	mov	r0, r3
 8001406:	f7ff f895 	bl	8000534 <__aeabi_i2d>
 800140a:	4602      	mov	r2, r0
 800140c:	460b      	mov	r3, r1
 800140e:	4620      	mov	r0, r4
 8001410:	4629      	mov	r1, r5
 8001412:	f7fe ff41 	bl	8000298 <__aeabi_dsub>
 8001416:	4603      	mov	r3, r0
 8001418:	460c      	mov	r4, r1
 800141a:	4618      	mov	r0, r3
 800141c:	4621      	mov	r1, r4
 800141e:	f7ff fba3 	bl	8000b68 <__aeabi_d2iz>
 8001422:	4603      	mov	r3, r0
 8001424:	2b00      	cmp	r3, #0
 8001426:	bfb8      	it	lt
 8001428:	425b      	neglt	r3, r3
 800142a:	429e      	cmp	r6, r3
 800142c:	da0a      	bge.n	8001444 <Gimbal_Task_Function+0x50c>
						  abs_pitch=runtime_pitch_max;
 800142e:	f9b7 3052 	ldrsh.w	r3, [r7, #82]	; 0x52
 8001432:	4618      	mov	r0, r3
 8001434:	f7ff f87e 	bl	8000534 <__aeabi_i2d>
 8001438:	4603      	mov	r3, r0
 800143a:	460c      	mov	r4, r1
 800143c:	4a3a      	ldr	r2, [pc, #232]	; (8001528 <Gimbal_Task_Function+0x5f0>)
 800143e:	e9c2 3400 	strd	r3, r4, [r2]
 8001442:	e009      	b.n	8001458 <Gimbal_Task_Function+0x520>
					  }
					  else{
						  abs_pitch=runtime_pitch_min;
 8001444:	f9b7 3050 	ldrsh.w	r3, [r7, #80]	; 0x50
 8001448:	4618      	mov	r0, r3
 800144a:	f7ff f873 	bl	8000534 <__aeabi_i2d>
 800144e:	4603      	mov	r3, r0
 8001450:	460c      	mov	r4, r1
 8001452:	4a35      	ldr	r2, [pc, #212]	; (8001528 <Gimbal_Task_Function+0x5f0>)
 8001454:	e9c2 3400 	strd	r3, r4, [r2]

				  }


				  //printf("yaw: %d pitch: %d \r \n", (int16_t)abs_yaw, (int16_t)abs_pitch);
				  HAL_UART_Transmit(&huart7,  &(abs_yaw), 2, 0xFFFF);
 8001458:	f64f 73ff 	movw	r3, #65535	; 0xffff
 800145c:	2202      	movs	r2, #2
 800145e:	4931      	ldr	r1, [pc, #196]	; (8001524 <Gimbal_Task_Function+0x5ec>)
 8001460:	4832      	ldr	r0, [pc, #200]	; (800152c <Gimbal_Task_Function+0x5f4>)
 8001462:	f004 fc42 	bl	8005cea <HAL_UART_Transmit>
				  HAL_UART_Transmit(&huart7, '\n', 1, 0xFFFF);
 8001466:	f64f 73ff 	movw	r3, #65535	; 0xffff
 800146a:	2201      	movs	r2, #1
 800146c:	210a      	movs	r1, #10
 800146e:	482f      	ldr	r0, [pc, #188]	; (800152c <Gimbal_Task_Function+0x5f4>)
 8001470:	f004 fc3b 	bl	8005cea <HAL_UART_Transmit>
				  HAL_UART_Transmit(&huart7, &(abs_pitch), 2, 0xFFFF);
 8001474:	f64f 73ff 	movw	r3, #65535	; 0xffff
 8001478:	2202      	movs	r2, #2
 800147a:	492b      	ldr	r1, [pc, #172]	; (8001528 <Gimbal_Task_Function+0x5f0>)
 800147c:	482b      	ldr	r0, [pc, #172]	; (800152c <Gimbal_Task_Function+0x5f4>)
 800147e:	f004 fc34 	bl	8005cea <HAL_UART_Transmit>
				  HAL_UART_Transmit(&huart7, '\n', 1, 0xFFFF);
 8001482:	f64f 73ff 	movw	r3, #65535	; 0xffff
 8001486:	2201      	movs	r2, #1
 8001488:	210a      	movs	r1, #10
 800148a:	4828      	ldr	r0, [pc, #160]	; (800152c <Gimbal_Task_Function+0x5f4>)
 800148c:	f004 fc2d 	bl	8005cea <HAL_UART_Transmit>
				  Motor_pid_set_angle(&motor_data[4], abs_yaw, vmax/max_angle,0,0);
 8001490:	4b24      	ldr	r3, [pc, #144]	; (8001524 <Gimbal_Task_Function+0x5ec>)
 8001492:	ed93 8b00 	vldr	d8, [r3]
 8001496:	e9d7 230e 	ldrd	r2, r3, [r7, #56]	; 0x38
 800149a:	e9d7 0110 	ldrd	r0, r1, [r7, #64]	; 0x40
 800149e:	f7ff f9dd 	bl	800085c <__aeabi_ddiv>
 80014a2:	4603      	mov	r3, r0
 80014a4:	460c      	mov	r4, r1
 80014a6:	4618      	mov	r0, r3
 80014a8:	4621      	mov	r1, r4
 80014aa:	f7ff fb5d 	bl	8000b68 <__aeabi_d2iz>
 80014ae:	4601      	mov	r1, r0
 80014b0:	2300      	movs	r3, #0
 80014b2:	2200      	movs	r2, #0
 80014b4:	eeb0 0a48 	vmov.f32	s0, s16
 80014b8:	eef0 0a68 	vmov.f32	s1, s17
 80014bc:	4817      	ldr	r0, [pc, #92]	; (800151c <Gimbal_Task_Function+0x5e4>)
 80014be:	f000 fbe3 	bl	8001c88 <Motor_pid_set_angle>
				  Motor_pid_set_angle(&motor_data[5], abs_pitch, vmax/max_angle,0,0);
 80014c2:	4b19      	ldr	r3, [pc, #100]	; (8001528 <Gimbal_Task_Function+0x5f0>)
 80014c4:	ed93 8b00 	vldr	d8, [r3]
 80014c8:	e9d7 230e 	ldrd	r2, r3, [r7, #56]	; 0x38
 80014cc:	e9d7 0110 	ldrd	r0, r1, [r7, #64]	; 0x40
 80014d0:	f7ff f9c4 	bl	800085c <__aeabi_ddiv>
 80014d4:	4603      	mov	r3, r0
 80014d6:	460c      	mov	r4, r1
 80014d8:	4618      	mov	r0, r3
 80014da:	4621      	mov	r1, r4
 80014dc:	f7ff fb44 	bl	8000b68 <__aeabi_d2iz>
 80014e0:	4601      	mov	r1, r0
 80014e2:	2300      	movs	r3, #0
 80014e4:	2200      	movs	r2, #0
 80014e6:	eeb0 0a48 	vmov.f32	s0, s16
 80014ea:	eef0 0a68 	vmov.f32	s1, s17
 80014ee:	4810      	ldr	r0, [pc, #64]	; (8001530 <Gimbal_Task_Function+0x5f8>)
 80014f0:	f000 fbca 	bl	8001c88 <Motor_pid_set_angle>
				  comm_pack.target_num=0;
 80014f4:	4b0a      	ldr	r3, [pc, #40]	; (8001520 <Gimbal_Task_Function+0x5e8>)
 80014f6:	2200      	movs	r2, #0
 80014f8:	60da      	str	r2, [r3, #12]
 80014fa:	e008      	b.n	800150e <Gimbal_Task_Function+0x5d6>
			  }
			  else if (comm_pack.pack_cond==PACKERR){
 80014fc:	4b08      	ldr	r3, [pc, #32]	; (8001520 <Gimbal_Task_Function+0x5e8>)
 80014fe:	695b      	ldr	r3, [r3, #20]
 8001500:	2b01      	cmp	r3, #1
 8001502:	d104      	bne.n	800150e <Gimbal_Task_Function+0x5d6>
				  HAL_GPIO_WritePin(GPIOG, LD_F_Pin, RESET);
 8001504:	2200      	movs	r2, #0
 8001506:	2108      	movs	r1, #8
 8001508:	480a      	ldr	r0, [pc, #40]	; (8001534 <Gimbal_Task_Function+0x5fc>)
 800150a:	f003 f933 	bl	8004774 <HAL_GPIO_WritePin>
			  }


	  	  }

		  osDelay(1);
 800150e:	2001      	movs	r0, #1
 8001510:	f005 fb41 	bl	8006b96 <osDelay>
	  runtime_yaw_max=MAX_YAW;
 8001514:	e5a3      	b.n	800105e <Gimbal_Task_Function+0x126>
 8001516:	bf00      	nop
 8001518:	3fe00000 	.word	0x3fe00000
 800151c:	200040f4 	.word	0x200040f4
 8001520:	20004294 	.word	0x20004294
 8001524:	20004288 	.word	0x20004288
 8001528:	20004278 	.word	0x20004278
 800152c:	20004434 	.word	0x20004434
 8001530:	20004110 	.word	0x20004110
 8001534:	40021800 	.word	0x40021800

08001538 <HAL_UART_RxCpltCallback>:
  }

  /* USER CODE END Gimbal_Task_Function */
}

void HAL_UART_RxCpltCallback(UART_HandleTypeDef *huart){
 8001538:	b5b0      	push	{r4, r5, r7, lr}
 800153a:	b088      	sub	sp, #32
 800153c:	af00      	add	r7, sp, #0
 800153e:	61f8      	str	r0, [r7, #28]
	 // When enter this callback function, the variable pdata has been filled with the received data.
	 // Thus parse it directly.
	  //HAL_UART_Transmit(&huart7, 'Inter',5,0xFFFF);
	  HAL_GPIO_TogglePin(GPIOG, LD_H_Pin);
 8001540:	2102      	movs	r1, #2
 8001542:	481b      	ldr	r0, [pc, #108]	; (80015b0 <HAL_UART_RxCpltCallback+0x78>)
 8001544:	f003 f92f 	bl	80047a6 <HAL_GPIO_TogglePin>
	  //HAL_UART_Transmit(&huart7, (char*)pdata, PACKLEN,0xFFFF);
	  comm_pack=parse_all(pdata);
 8001548:	4c1a      	ldr	r4, [pc, #104]	; (80015b4 <HAL_UART_RxCpltCallback+0x7c>)
 800154a:	463b      	mov	r3, r7
 800154c:	491a      	ldr	r1, [pc, #104]	; (80015b8 <HAL_UART_RxCpltCallback+0x80>)
 800154e:	4618      	mov	r0, r3
 8001550:	f000 f922 	bl	8001798 <parse_all>
 8001554:	4625      	mov	r5, r4
 8001556:	463c      	mov	r4, r7
 8001558:	cc0f      	ldmia	r4!, {r0, r1, r2, r3}
 800155a:	c50f      	stmia	r5!, {r0, r1, r2, r3}
 800155c:	e894 0003 	ldmia.w	r4, {r0, r1}
 8001560:	e885 0003 	stmia.w	r5, {r0, r1}
	  abs_yaw=angle_preprocess(&motor_data[4], comm_pack.yaw_data);
 8001564:	4b13      	ldr	r3, [pc, #76]	; (80015b4 <HAL_UART_RxCpltCallback+0x7c>)
 8001566:	681b      	ldr	r3, [r3, #0]
 8001568:	b21b      	sxth	r3, r3
 800156a:	4619      	mov	r1, r3
 800156c:	4813      	ldr	r0, [pc, #76]	; (80015bc <HAL_UART_RxCpltCallback+0x84>)
 800156e:	f000 f82f 	bl	80015d0 <angle_preprocess>
 8001572:	eeb0 7a40 	vmov.f32	s14, s0
 8001576:	eef0 7a60 	vmov.f32	s15, s1
 800157a:	4b11      	ldr	r3, [pc, #68]	; (80015c0 <HAL_UART_RxCpltCallback+0x88>)
 800157c:	ed83 7b00 	vstr	d7, [r3]
	  abs_pitch=angle_preprocess(&motor_data[5], comm_pack.pitch_data);
 8001580:	4b0c      	ldr	r3, [pc, #48]	; (80015b4 <HAL_UART_RxCpltCallback+0x7c>)
 8001582:	685b      	ldr	r3, [r3, #4]
 8001584:	b21b      	sxth	r3, r3
 8001586:	4619      	mov	r1, r3
 8001588:	480e      	ldr	r0, [pc, #56]	; (80015c4 <HAL_UART_RxCpltCallback+0x8c>)
 800158a:	f000 f821 	bl	80015d0 <angle_preprocess>
 800158e:	eeb0 7a40 	vmov.f32	s14, s0
 8001592:	eef0 7a60 	vmov.f32	s15, s1
 8001596:	4b0c      	ldr	r3, [pc, #48]	; (80015c8 <HAL_UART_RxCpltCallback+0x90>)
 8001598:	ed83 7b00 	vstr	d7, [r3]
	  //
//	  printf("%s \r\n", pdata);
//	  if(comm_pack.pack_cond == PACKCOR)
//		  printf("Yaw: %d;\t Pitch: %d; \t%s\r\n", (int16_t)angle_preprocess(&motor_data[4], comm_pack.yaw_data), (int16_t)angle_preprocess(&motor_data[5], comm_pack.pitch_data), pdata);
//	  // Enable the uart interrupt again
	  HAL_UART_Receive_IT(&husart6, (char*)pdata, (PACKLEN));
 800159c:	2220      	movs	r2, #32
 800159e:	4906      	ldr	r1, [pc, #24]	; (80015b8 <HAL_UART_RxCpltCallback+0x80>)
 80015a0:	480a      	ldr	r0, [pc, #40]	; (80015cc <HAL_UART_RxCpltCallback+0x94>)
 80015a2:	f004 fc3b 	bl	8005e1c <HAL_UART_Receive_IT>
}
 80015a6:	bf00      	nop
 80015a8:	3720      	adds	r7, #32
 80015aa:	46bd      	mov	sp, r7
 80015ac:	bdb0      	pop	{r4, r5, r7, pc}
 80015ae:	bf00      	nop
 80015b0:	40021800 	.word	0x40021800
 80015b4:	20004294 	.word	0x20004294
 80015b8:	200042ac 	.word	0x200042ac
 80015bc:	200040f4 	.word	0x200040f4
 80015c0:	20004288 	.word	0x20004288
 80015c4:	20004110 	.word	0x20004110
 80015c8:	20004278 	.word	0x20004278
 80015cc:	200043f4 	.word	0x200043f4

080015d0 <angle_preprocess>:


double angle_preprocess(Motor* motor, int16_t recieved_angle){
 80015d0:	b590      	push	{r4, r7, lr}
 80015d2:	b08d      	sub	sp, #52	; 0x34
 80015d4:	af00      	add	r7, sp, #0
 80015d6:	6078      	str	r0, [r7, #4]
 80015d8:	460b      	mov	r3, r1
 80015da:	807b      	strh	r3, [r7, #2]
	Motor temp_motor_buffer;
	int16_t rx_angle;
	int16_t input_angle;
	int16_t target_angle;
	input_angle=round(recieved_angle*8192/360);
 80015dc:	f9b7 3002 	ldrsh.w	r3, [r7, #2]
 80015e0:	035b      	lsls	r3, r3, #13
 80015e2:	4a22      	ldr	r2, [pc, #136]	; (800166c <angle_preprocess+0x9c>)
 80015e4:	fb82 1203 	smull	r1, r2, r2, r3
 80015e8:	441a      	add	r2, r3
 80015ea:	1212      	asrs	r2, r2, #8
 80015ec:	17db      	asrs	r3, r3, #31
 80015ee:	1ad3      	subs	r3, r2, r3
 80015f0:	4618      	mov	r0, r3
 80015f2:	f7fe ff9f 	bl	8000534 <__aeabi_i2d>
 80015f6:	4603      	mov	r3, r0
 80015f8:	460c      	mov	r4, r1
 80015fa:	4618      	mov	r0, r3
 80015fc:	4621      	mov	r1, r4
 80015fe:	f7ff fab3 	bl	8000b68 <__aeabi_d2iz>
 8001602:	4603      	mov	r3, r0
 8001604:	85fb      	strh	r3, [r7, #46]	; 0x2e

	get_Motor_buffer(motor, &temp_motor_buffer);
 8001606:	f107 030c 	add.w	r3, r7, #12
 800160a:	4619      	mov	r1, r3
 800160c:	6878      	ldr	r0, [r7, #4]
 800160e:	f000 faed 	bl	8001bec <get_Motor_buffer>
	rx_angle=temp_motor_buffer.motor_feedback.rx_angle;
 8001612:	8bbb      	ldrh	r3, [r7, #28]
 8001614:	85bb      	strh	r3, [r7, #44]	; 0x2c

	target_angle=input_angle + rx_angle;
 8001616:	8dfa      	ldrh	r2, [r7, #46]	; 0x2e
 8001618:	8dbb      	ldrh	r3, [r7, #44]	; 0x2c
 800161a:	4413      	add	r3, r2
 800161c:	b29b      	uxth	r3, r3
 800161e:	857b      	strh	r3, [r7, #42]	; 0x2a
	target_angle=(8192+target_angle) % 8192;
 8001620:	f9b7 302a 	ldrsh.w	r3, [r7, #42]	; 0x2a
 8001624:	f503 5300 	add.w	r3, r3, #8192	; 0x2000
 8001628:	425a      	negs	r2, r3
 800162a:	f3c3 030c 	ubfx	r3, r3, #0, #13
 800162e:	f3c2 020c 	ubfx	r2, r2, #0, #13
 8001632:	bf58      	it	pl
 8001634:	4253      	negpl	r3, r2
 8001636:	857b      	strh	r3, [r7, #42]	; 0x2a

	return (double)(target_angle*360/8192);
 8001638:	f9b7 302a 	ldrsh.w	r3, [r7, #42]	; 0x2a
 800163c:	f44f 72b4 	mov.w	r2, #360	; 0x168
 8001640:	fb02 f303 	mul.w	r3, r2, r3
 8001644:	2b00      	cmp	r3, #0
 8001646:	da02      	bge.n	800164e <angle_preprocess+0x7e>
 8001648:	f503 53ff 	add.w	r3, r3, #8160	; 0x1fe0
 800164c:	331f      	adds	r3, #31
 800164e:	135b      	asrs	r3, r3, #13
 8001650:	4618      	mov	r0, r3
 8001652:	f7fe ff6f 	bl	8000534 <__aeabi_i2d>
 8001656:	4603      	mov	r3, r0
 8001658:	460c      	mov	r4, r1
 800165a:	ec44 3b17 	vmov	d7, r3, r4
}
 800165e:	eeb0 0a47 	vmov.f32	s0, s14
 8001662:	eef0 0a67 	vmov.f32	s1, s15
 8001666:	3734      	adds	r7, #52	; 0x34
 8001668:	46bd      	mov	sp, r7
 800166a:	bd90      	pop	{r4, r7, pc}
 800166c:	b60b60b7 	.word	0xb60b60b7

08001670 <check_angle_out_of_range>:
		}
	}

}

int16_t check_angle_out_of_range(int32_t input_angle, int16_t max_angle, int16_t min_angle){
 8001670:	b480      	push	{r7}
 8001672:	b083      	sub	sp, #12
 8001674:	af00      	add	r7, sp, #0
 8001676:	6078      	str	r0, [r7, #4]
 8001678:	460b      	mov	r3, r1
 800167a:	807b      	strh	r3, [r7, #2]
 800167c:	4613      	mov	r3, r2
 800167e:	803b      	strh	r3, [r7, #0]

	if (min_angle<max_angle){ //Not over origin
 8001680:	f9b7 2000 	ldrsh.w	r2, [r7]
 8001684:	f9b7 3002 	ldrsh.w	r3, [r7, #2]
 8001688:	429a      	cmp	r2, r3
 800168a:	da0d      	bge.n	80016a8 <check_angle_out_of_range+0x38>

		if (input_angle > max_angle || input_angle < min_angle){
 800168c:	f9b7 3002 	ldrsh.w	r3, [r7, #2]
 8001690:	687a      	ldr	r2, [r7, #4]
 8001692:	429a      	cmp	r2, r3
 8001694:	dc04      	bgt.n	80016a0 <check_angle_out_of_range+0x30>
 8001696:	f9b7 3000 	ldrsh.w	r3, [r7]
 800169a:	687a      	ldr	r2, [r7, #4]
 800169c:	429a      	cmp	r2, r3
 800169e:	da01      	bge.n	80016a4 <check_angle_out_of_range+0x34>
			return 1;
 80016a0:	2301      	movs	r3, #1
 80016a2:	e00e      	b.n	80016c2 <check_angle_out_of_range+0x52>
		}
		else{
			return 0;
 80016a4:	2300      	movs	r3, #0
 80016a6:	e00c      	b.n	80016c2 <check_angle_out_of_range+0x52>
		}
	}
	else{ //over origin

		if((input_angle > max_angle && input_angle < min_angle)){
 80016a8:	f9b7 3002 	ldrsh.w	r3, [r7, #2]
 80016ac:	687a      	ldr	r2, [r7, #4]
 80016ae:	429a      	cmp	r2, r3
 80016b0:	dd06      	ble.n	80016c0 <check_angle_out_of_range+0x50>
 80016b2:	f9b7 3000 	ldrsh.w	r3, [r7]
 80016b6:	687a      	ldr	r2, [r7, #4]
 80016b8:	429a      	cmp	r2, r3
 80016ba:	da01      	bge.n	80016c0 <check_angle_out_of_range+0x50>
			return 1;
 80016bc:	2301      	movs	r3, #1
 80016be:	e000      	b.n	80016c2 <check_angle_out_of_range+0x52>
		}
		else{
			return 0;
 80016c0:	2300      	movs	r3, #0
		}
	}

}
 80016c2:	4618      	mov	r0, r3
 80016c4:	370c      	adds	r7, #12
 80016c6:	46bd      	mov	sp, r7
 80016c8:	f85d 7b04 	ldr.w	r7, [sp], #4
 80016cc:	4770      	bx	lr
	...

080016d0 <parse_pack_indv>:
 * 			     pos: The position of the last byte of the currently extracted data, e.g. yaw.
 * 			     lens: the length of current data, e.g. yaw.
 * @ Return:
 * @ Author: Haoran Qi, Created on: Jan, 2022
 */
int32_t parse_pack_indv(char* pack, int pos, int lens){
 80016d0:	b5b0      	push	{r4, r5, r7, lr}
 80016d2:	b08e      	sub	sp, #56	; 0x38
 80016d4:	af00      	add	r7, sp, #0
 80016d6:	60f8      	str	r0, [r7, #12]
 80016d8:	60b9      	str	r1, [r7, #8]
 80016da:	607a      	str	r2, [r7, #4]
	char pdata_temp[PACKLEN]; //pack content size + '\0'
	    int32_t data = 0;
 80016dc:	2300      	movs	r3, #0
 80016de:	637b      	str	r3, [r7, #52]	; 0x34
	    memcpy(pdata_temp, pack, PACKLEN);
 80016e0:	68fb      	ldr	r3, [r7, #12]
 80016e2:	f107 0410 	add.w	r4, r7, #16
 80016e6:	461d      	mov	r5, r3
 80016e8:	6828      	ldr	r0, [r5, #0]
 80016ea:	6869      	ldr	r1, [r5, #4]
 80016ec:	68aa      	ldr	r2, [r5, #8]
 80016ee:	68eb      	ldr	r3, [r5, #12]
 80016f0:	c40f      	stmia	r4!, {r0, r1, r2, r3}
 80016f2:	6928      	ldr	r0, [r5, #16]
 80016f4:	6969      	ldr	r1, [r5, #20]
 80016f6:	69aa      	ldr	r2, [r5, #24]
 80016f8:	69eb      	ldr	r3, [r5, #28]
 80016fa:	c40f      	stmia	r4!, {r0, r1, r2, r3}

	    //if (pdata_temp[0] == 0xAA){ //check received correct pack head frame modify here to 0xAA in real world test, 0x41 for tests in 'A'.
			for(int i=0; i<lens; i++){
 80016fc:	2300      	movs	r3, #0
 80016fe:	633b      	str	r3, [r7, #48]	; 0x30
 8001700:	e02c      	b.n	800175c <parse_pack_indv+0x8c>
	            data += (int32_t)((pdata_temp[pos-i-1-2] - '0')*pow(10,i)); // decoding, referring to the vision code.
 8001702:	68ba      	ldr	r2, [r7, #8]
 8001704:	6b3b      	ldr	r3, [r7, #48]	; 0x30
 8001706:	1ad3      	subs	r3, r2, r3
 8001708:	3b03      	subs	r3, #3
 800170a:	f107 0238 	add.w	r2, r7, #56	; 0x38
 800170e:	4413      	add	r3, r2
 8001710:	f813 3c28 	ldrb.w	r3, [r3, #-40]
 8001714:	3b30      	subs	r3, #48	; 0x30
 8001716:	4618      	mov	r0, r3
 8001718:	f7fe ff0c 	bl	8000534 <__aeabi_i2d>
 800171c:	4604      	mov	r4, r0
 800171e:	460d      	mov	r5, r1
 8001720:	6b38      	ldr	r0, [r7, #48]	; 0x30
 8001722:	f7fe ff07 	bl	8000534 <__aeabi_i2d>
 8001726:	4602      	mov	r2, r0
 8001728:	460b      	mov	r3, r1
 800172a:	ec43 2b11 	vmov	d1, r2, r3
 800172e:	ed9f 0b18 	vldr	d0, [pc, #96]	; 8001790 <parse_pack_indv+0xc0>
 8001732:	f007 fba9 	bl	8008e88 <pow>
 8001736:	ec53 2b10 	vmov	r2, r3, d0
 800173a:	4620      	mov	r0, r4
 800173c:	4629      	mov	r1, r5
 800173e:	f7fe ff63 	bl	8000608 <__aeabi_dmul>
 8001742:	4603      	mov	r3, r0
 8001744:	460c      	mov	r4, r1
 8001746:	4618      	mov	r0, r3
 8001748:	4621      	mov	r1, r4
 800174a:	f7ff fa0d 	bl	8000b68 <__aeabi_d2iz>
 800174e:	4602      	mov	r2, r0
 8001750:	6b7b      	ldr	r3, [r7, #52]	; 0x34
 8001752:	4413      	add	r3, r2
 8001754:	637b      	str	r3, [r7, #52]	; 0x34
			for(int i=0; i<lens; i++){
 8001756:	6b3b      	ldr	r3, [r7, #48]	; 0x30
 8001758:	3301      	adds	r3, #1
 800175a:	633b      	str	r3, [r7, #48]	; 0x30
 800175c:	6b3a      	ldr	r2, [r7, #48]	; 0x30
 800175e:	687b      	ldr	r3, [r7, #4]
 8001760:	429a      	cmp	r2, r3
 8001762:	dbce      	blt.n	8001702 <parse_pack_indv+0x32>
			}

			if (pdata_temp[pos-lens-2-1]=='0'){
 8001764:	68ba      	ldr	r2, [r7, #8]
 8001766:	687b      	ldr	r3, [r7, #4]
 8001768:	1ad3      	subs	r3, r2, r3
 800176a:	3b03      	subs	r3, #3
 800176c:	f107 0238 	add.w	r2, r7, #56	; 0x38
 8001770:	4413      	add	r3, r2
 8001772:	f813 3c28 	ldrb.w	r3, [r3, #-40]
 8001776:	2b30      	cmp	r3, #48	; 0x30
 8001778:	d102      	bne.n	8001780 <parse_pack_indv+0xb0>
				data=-data;
 800177a:	6b7b      	ldr	r3, [r7, #52]	; 0x34
 800177c:	425b      	negs	r3, r3
 800177e:	637b      	str	r3, [r7, #52]	; 0x34

	    //}
		//else{
			//data = -1;
		//}
	    return data;
 8001780:	6b7b      	ldr	r3, [r7, #52]	; 0x34
}
 8001782:	4618      	mov	r0, r3
 8001784:	3738      	adds	r7, #56	; 0x38
 8001786:	46bd      	mov	sp, r7
 8001788:	bdb0      	pop	{r4, r5, r7, pc}
 800178a:	bf00      	nop
 800178c:	f3af 8000 	nop.w
 8001790:	00000000 	.word	0x00000000
 8001794:	40240000 	.word	0x40240000

08001798 <parse_all>:
 *
 * @ Return: Parsed pack
 * @ Author: Wenyuan, Wei Created on: May, 2022
 */
comm_rx_info parse_all(char* pack)
{
 8001798:	b5b0      	push	{r4, r5, r7, lr}
 800179a:	b088      	sub	sp, #32
 800179c:	af00      	add	r7, sp, #0
 800179e:	6078      	str	r0, [r7, #4]
 80017a0:	6039      	str	r1, [r7, #0]
	comm_rx_info Sentry_Pack;
	Sentry_Pack.yaw_data = 0;
 80017a2:	2300      	movs	r3, #0
 80017a4:	60bb      	str	r3, [r7, #8]
	Sentry_Pack.pitch_data = 0;
 80017a6:	2300      	movs	r3, #0
 80017a8:	60fb      	str	r3, [r7, #12]
	Sentry_Pack.dist_data = 0;
 80017aa:	2300      	movs	r3, #0
 80017ac:	613b      	str	r3, [r7, #16]
	Sentry_Pack.fire_cmd = 0;
 80017ae:	2300      	movs	r3, #0
 80017b0:	61bb      	str	r3, [r7, #24]
	Sentry_Pack.target_num = 0;
 80017b2:	2300      	movs	r3, #0
 80017b4:	617b      	str	r3, [r7, #20]
	Sentry_Pack.pack_cond=PACKCOR;
 80017b6:	2300      	movs	r3, #0
 80017b8:	61fb      	str	r3, [r7, #28]
//				HAL_GPIO_WritePin(GPIOG, LD_E_Pin, RESET);
//			}
//			//only when the format is correct, parse the packet
//			if(Sentry_Pack.pack_cond == PACKCOR)
//			{
				Sentry_Pack.yaw_data=parse_pack_indv(pack,YAW_POS, DATALEN);
 80017ba:	2203      	movs	r2, #3
 80017bc:	2110      	movs	r1, #16
 80017be:	6838      	ldr	r0, [r7, #0]
 80017c0:	f7ff ff86 	bl	80016d0 <parse_pack_indv>
 80017c4:	4603      	mov	r3, r0
 80017c6:	60bb      	str	r3, [r7, #8]
				Sentry_Pack.pitch_data=parse_pack_indv(pack,PITCH_POS,DATALEN);
 80017c8:	2203      	movs	r2, #3
 80017ca:	2118      	movs	r1, #24
 80017cc:	6838      	ldr	r0, [r7, #0]
 80017ce:	f7ff ff7f 	bl	80016d0 <parse_pack_indv>
 80017d2:	4603      	mov	r3, r0
 80017d4:	60fb      	str	r3, [r7, #12]
				//Sentry_Pack.dist_data=parse_pack_indv(pack,DIST_POS,DATALEN);
				Sentry_Pack.target_num=1;
 80017d6:	2301      	movs	r3, #1
 80017d8:	617b      	str	r3, [r7, #20]
				Sentry_Pack.fire_cmd=parse_pack_indv(pack,FCMD_POS-5,STATELEN);
 80017da:	2201      	movs	r2, #1
 80017dc:	2103      	movs	r1, #3
 80017de:	6838      	ldr	r0, [r7, #0]
 80017e0:	f7ff ff76 	bl	80016d0 <parse_pack_indv>
 80017e4:	4603      	mov	r3, r0
 80017e6:	61bb      	str	r3, [r7, #24]
//	else
//	{
//		Sentry_Pack.pack_cond = PACKERR;
//		HAL_GPIO_WritePin(GPIOG, LD_G_Pin, RESET);
//	}
	return Sentry_Pack;
 80017e8:	687b      	ldr	r3, [r7, #4]
 80017ea:	461d      	mov	r5, r3
 80017ec:	f107 0408 	add.w	r4, r7, #8
 80017f0:	cc0f      	ldmia	r4!, {r0, r1, r2, r3}
 80017f2:	c50f      	stmia	r5!, {r0, r1, r2, r3}
 80017f4:	e894 0003 	ldmia.w	r4, {r0, r1}
 80017f8:	e885 0003 	stmia.w	r5, {r0, r1}

}
 80017fc:	6878      	ldr	r0, [r7, #4]
 80017fe:	3720      	adds	r7, #32
 8001800:	46bd      	mov	sp, r7
 8001802:	bdb0      	pop	{r4, r5, r7, pc}
 8001804:	0000      	movs	r0, r0
	...

08001808 <Shoot_Task_Func>:
//Internal Functions
void shoot_init(void);
void cmd_execute_shoot(double magazine_speed, double fric_speed);

void Shoot_Task_Func(void const * argument)
{
 8001808:	b590      	push	{r4, r7, lr}
 800180a:	b08b      	sub	sp, #44	; 0x2c
 800180c:	af00      	add	r7, sp, #0
 800180e:	6078      	str	r0, [r7, #4]
  /* USER CODE BEGIN 5 */
  /* Infinite loop */
  shoot_init();
 8001810:	f000 f842 	bl	8001898 <shoot_init>
//	HAL_TIM_PWM_Start(&htim4,TIM_CHANNEL_1);
//	HAL_TIM_PWM_Start(&htim2,TIM_CHANNEL_1);

  //__HAL_TIM_SET_COMPARE(&htim2, TIM_CHANNEL_1,1050);
  //__HAL_TIM_SET_COMPARE(&htim4, TIM_CHANNEL_1,1050);
  double fric_wheel_speed_percent=0; //DO NOT go above 5 or 10, friction wheel spins very fast and it could be dangerous. Only go above 5 if you KNOW what you are doing.
 8001814:	f04f 0300 	mov.w	r3, #0
 8001818:	f04f 0400 	mov.w	r4, #0
 800181c:	e9c7 3406 	strd	r3, r4, [r7, #24]
  double mag_load_speed_percent=10;
 8001820:	f04f 0300 	mov.w	r3, #0
 8001824:	4c1a      	ldr	r4, [pc, #104]	; (8001890 <Shoot_Task_Func+0x88>)
 8001826:	e9c7 3404 	strd	r3, r4, [r7, #16]
  int16_t input=500;
 800182a:	f44f 73fa 	mov.w	r3, #500	; 0x1f4
 800182e:	81fb      	strh	r3, [r7, #14]
  int16_t shoot_counter=-1;
 8001830:	f64f 73ff 	movw	r3, #65535	; 0xffff
 8001834:	84fb      	strh	r3, [r7, #38]	; 0x26
//		if(input==1000){
//			input=500;
//		}
	  //cmd_execute_shoot(mag_load_speed_percent,fric_wheel_speed_percent);

	  if(comm_pack.fire_cmd ==1 && comm_pack.target_num==1){
 8001836:	4b17      	ldr	r3, [pc, #92]	; (8001894 <Shoot_Task_Func+0x8c>)
 8001838:	691b      	ldr	r3, [r3, #16]
 800183a:	2b01      	cmp	r3, #1
 800183c:	d10f      	bne.n	800185e <Shoot_Task_Func+0x56>
 800183e:	4b15      	ldr	r3, [pc, #84]	; (8001894 <Shoot_Task_Func+0x8c>)
 8001840:	68db      	ldr	r3, [r3, #12]
 8001842:	2b01      	cmp	r3, #1
 8001844:	d10b      	bne.n	800185e <Shoot_Task_Func+0x56>
		  buzzer_play_c1(100);
 8001846:	2064      	movs	r0, #100	; 0x64
 8001848:	f000 fb6a 	bl	8001f20 <buzzer_play_c1>
		  cmd_execute_shoot(mag_load_speed_percent,fric_wheel_speed_percent);
 800184c:	ed97 1b06 	vldr	d1, [r7, #24]
 8001850:	ed97 0b04 	vldr	d0, [r7, #16]
 8001854:	f000 f894 	bl	8001980 <cmd_execute_shoot>
		  shoot_counter=TGT_CONST; //Shoot for atleast 1 second before stopping
 8001858:	f44f 737a 	mov.w	r3, #1000	; 0x3e8
 800185c:	84fb      	strh	r3, [r7, #38]	; 0x26
	  }

	  if(shoot_counter>0){
 800185e:	f9b7 3026 	ldrsh.w	r3, [r7, #38]	; 0x26
 8001862:	2b00      	cmp	r3, #0
 8001864:	dd06      	ble.n	8001874 <Shoot_Task_Func+0x6c>
		  shoot_counter--;
 8001866:	f9b7 3026 	ldrsh.w	r3, [r7, #38]	; 0x26
 800186a:	b29b      	uxth	r3, r3
 800186c:	3b01      	subs	r3, #1
 800186e:	b29b      	uxth	r3, r3
 8001870:	84fb      	strh	r3, [r7, #38]	; 0x26
 8001872:	e005      	b.n	8001880 <Shoot_Task_Func+0x78>
	  }
	  else{
		  cmd_execute_shoot(0,0);
 8001874:	ed9f 1b04 	vldr	d1, [pc, #16]	; 8001888 <Shoot_Task_Func+0x80>
 8001878:	ed9f 0b03 	vldr	d0, [pc, #12]	; 8001888 <Shoot_Task_Func+0x80>
 800187c:	f000 f880 	bl	8001980 <cmd_execute_shoot>


	  //Motor_set_raw_value(&motor_data[0],1000);
	  //Motor_set_raw_value(&motor_data[3],1000);

	  osDelay(1);
 8001880:	2001      	movs	r0, #1
 8001882:	f005 f988 	bl	8006b96 <osDelay>
	  if(comm_pack.fire_cmd ==1 && comm_pack.target_num==1){
 8001886:	e7d6      	b.n	8001836 <Shoot_Task_Func+0x2e>
	...
 8001890:	40240000 	.word	0x40240000
 8001894:	20004294 	.word	0x20004294

08001898 <shoot_init>:

  }
  /* USER CODE END 5 */
}

void shoot_init(void){
 8001898:	b580      	push	{r7, lr}
 800189a:	af00      	add	r7, sp, #0
	//Corresponds to pin H and pin F on the PWM board - need to change manually if we change the pins
	HAL_TIM_PWM_Start(&htim4,TIM_CHANNEL_1);
 800189c:	2100      	movs	r1, #0
 800189e:	4817      	ldr	r0, [pc, #92]	; (80018fc <shoot_init+0x64>)
 80018a0:	f003 fc9c 	bl	80051dc <HAL_TIM_PWM_Start>
	osDelay(100);
 80018a4:	2064      	movs	r0, #100	; 0x64
 80018a6:	f005 f976 	bl	8006b96 <osDelay>
	HAL_TIM_PWM_Start(&htim2,TIM_CHANNEL_1);
 80018aa:	2100      	movs	r1, #0
 80018ac:	4814      	ldr	r0, [pc, #80]	; (8001900 <shoot_init+0x68>)
 80018ae:	f003 fc95 	bl	80051dc <HAL_TIM_PWM_Start>
	//osDelay(2000);
	__HAL_TIM_SET_COMPARE(&htim4, TIM_CHANNEL_1,MAX_PWM_ON_TIME);
 80018b2:	4b12      	ldr	r3, [pc, #72]	; (80018fc <shoot_init+0x64>)
 80018b4:	681b      	ldr	r3, [r3, #0]
 80018b6:	f44f 62fa 	mov.w	r2, #2000	; 0x7d0
 80018ba:	635a      	str	r2, [r3, #52]	; 0x34
	osDelay(100);
 80018bc:	2064      	movs	r0, #100	; 0x64
 80018be:	f005 f96a 	bl	8006b96 <osDelay>
	__HAL_TIM_SET_COMPARE(&htim2, TIM_CHANNEL_1,MAX_PWM_ON_TIME);
 80018c2:	4b0f      	ldr	r3, [pc, #60]	; (8001900 <shoot_init+0x68>)
 80018c4:	681b      	ldr	r3, [r3, #0]
 80018c6:	f44f 62fa 	mov.w	r2, #2000	; 0x7d0
 80018ca:	635a      	str	r2, [r3, #52]	; 0x34

	osDelay(2000);
 80018cc:	f44f 60fa 	mov.w	r0, #2000	; 0x7d0
 80018d0:	f005 f961 	bl	8006b96 <osDelay>

	__HAL_TIM_SET_COMPARE(&htim4, TIM_CHANNEL_1,MIN_PWM_ON_TIME);
 80018d4:	4b09      	ldr	r3, [pc, #36]	; (80018fc <shoot_init+0x64>)
 80018d6:	681b      	ldr	r3, [r3, #0]
 80018d8:	f44f 727a 	mov.w	r2, #1000	; 0x3e8
 80018dc:	635a      	str	r2, [r3, #52]	; 0x34
	osDelay(100);
 80018de:	2064      	movs	r0, #100	; 0x64
 80018e0:	f005 f959 	bl	8006b96 <osDelay>
	__HAL_TIM_SET_COMPARE(&htim2, TIM_CHANNEL_1,MIN_PWM_ON_TIME);
 80018e4:	4b06      	ldr	r3, [pc, #24]	; (8001900 <shoot_init+0x68>)
 80018e6:	681b      	ldr	r3, [r3, #0]
 80018e8:	f44f 727a 	mov.w	r2, #1000	; 0x3e8
 80018ec:	635a      	str	r2, [r3, #52]	; 0x34
	osDelay(1750);
 80018ee:	f240 60d6 	movw	r0, #1750	; 0x6d6
 80018f2:	f005 f950 	bl	8006b96 <osDelay>
//	HAL_TIM_PWM_Stop(&htim4,TIM_CHANNEL_1);
//	HAL_TIM_PWM_Stop(&htim2,TIM_CHANNEL_1);



}
 80018f6:	bf00      	nop
 80018f8:	bd80      	pop	{r7, pc}
 80018fa:	bf00      	nop
 80018fc:	20004044 	.word	0x20004044
 8001900:	20004190 	.word	0x20004190

08001904 <fric_wheel_set_speed>:

void fric_wheel_set_speed(double percent){
 8001904:	b590      	push	{r4, r7, lr}
 8001906:	b085      	sub	sp, #20
 8001908:	af00      	add	r7, sp, #0
 800190a:	ed87 0b00 	vstr	d0, [r7]
	//MAX pulse width: 2000
	//MIN Pulse Width: 1000

	double input=MIN_PWM_ON_TIME+percent/100*(MAX_PWM_ON_TIME-MIN_PWM_ON_TIME);
 800190e:	f04f 0200 	mov.w	r2, #0
 8001912:	4b17      	ldr	r3, [pc, #92]	; (8001970 <fric_wheel_set_speed+0x6c>)
 8001914:	e9d7 0100 	ldrd	r0, r1, [r7]
 8001918:	f7fe ffa0 	bl	800085c <__aeabi_ddiv>
 800191c:	4603      	mov	r3, r0
 800191e:	460c      	mov	r4, r1
 8001920:	4618      	mov	r0, r3
 8001922:	4621      	mov	r1, r4
 8001924:	f04f 0200 	mov.w	r2, #0
 8001928:	4b12      	ldr	r3, [pc, #72]	; (8001974 <fric_wheel_set_speed+0x70>)
 800192a:	f7fe fe6d 	bl	8000608 <__aeabi_dmul>
 800192e:	4603      	mov	r3, r0
 8001930:	460c      	mov	r4, r1
 8001932:	4618      	mov	r0, r3
 8001934:	4621      	mov	r1, r4
 8001936:	f04f 0200 	mov.w	r2, #0
 800193a:	4b0e      	ldr	r3, [pc, #56]	; (8001974 <fric_wheel_set_speed+0x70>)
 800193c:	f7fe fcae 	bl	800029c <__adddf3>
 8001940:	4603      	mov	r3, r0
 8001942:	460c      	mov	r4, r1
 8001944:	e9c7 3402 	strd	r3, r4, [r7, #8]

	__HAL_TIM_SET_COMPARE(&htim4, TIM_CHANNEL_1,input);
 8001948:	4b0b      	ldr	r3, [pc, #44]	; (8001978 <fric_wheel_set_speed+0x74>)
 800194a:	681c      	ldr	r4, [r3, #0]
 800194c:	e9d7 0102 	ldrd	r0, r1, [r7, #8]
 8001950:	f7ff f932 	bl	8000bb8 <__aeabi_d2uiz>
 8001954:	4603      	mov	r3, r0
 8001956:	6363      	str	r3, [r4, #52]	; 0x34
	__HAL_TIM_SET_COMPARE(&htim2, TIM_CHANNEL_1,input);
 8001958:	4b08      	ldr	r3, [pc, #32]	; (800197c <fric_wheel_set_speed+0x78>)
 800195a:	681c      	ldr	r4, [r3, #0]
 800195c:	e9d7 0102 	ldrd	r0, r1, [r7, #8]
 8001960:	f7ff f92a 	bl	8000bb8 <__aeabi_d2uiz>
 8001964:	4603      	mov	r3, r0
 8001966:	6363      	str	r3, [r4, #52]	; 0x34
}
 8001968:	bf00      	nop
 800196a:	3714      	adds	r7, #20
 800196c:	46bd      	mov	sp, r7
 800196e:	bd90      	pop	{r4, r7, pc}
 8001970:	40590000 	.word	0x40590000
 8001974:	408f4000 	.word	0x408f4000
 8001978:	20004044 	.word	0x20004044
 800197c:	20004190 	.word	0x20004190

08001980 <cmd_execute_shoot>:

//Shoot function, will spin magazine as well as friction wheels, the inputs represents speed in percent - 100 means 100% speed, 50 means 50% speed
//We'll tune speed at the end to optimize for performance
void cmd_execute_shoot(double magazine_speed, double fric_speed){
 8001980:	b590      	push	{r4, r7, lr}
 8001982:	b087      	sub	sp, #28
 8001984:	af00      	add	r7, sp, #0
 8001986:	ed87 0b02 	vstr	d0, [r7, #8]
 800198a:	ed87 1b00 	vstr	d1, [r7]

	double raw_input=magazine_speed/100*MAG_MOTOR_MAX_SPEED;
 800198e:	f04f 0200 	mov.w	r2, #0
 8001992:	4b11      	ldr	r3, [pc, #68]	; (80019d8 <cmd_execute_shoot+0x58>)
 8001994:	e9d7 0102 	ldrd	r0, r1, [r7, #8]
 8001998:	f7fe ff60 	bl	800085c <__aeabi_ddiv>
 800199c:	4603      	mov	r3, r0
 800199e:	460c      	mov	r4, r1
 80019a0:	4618      	mov	r0, r3
 80019a2:	4621      	mov	r1, r4
 80019a4:	a30a      	add	r3, pc, #40	; (adr r3, 80019d0 <cmd_execute_shoot+0x50>)
 80019a6:	e9d3 2300 	ldrd	r2, r3, [r3]
 80019aa:	f7fe fe2d 	bl	8000608 <__aeabi_dmul>
 80019ae:	4603      	mov	r3, r0
 80019b0:	460c      	mov	r4, r1
 80019b2:	e9c7 3404 	strd	r3, r4, [r7, #16]

	Motor_set_raw_value(&motor_data[3],raw_input);
 80019b6:	ed97 0b04 	vldr	d0, [r7, #16]
 80019ba:	4808      	ldr	r0, [pc, #32]	; (80019dc <cmd_execute_shoot+0x5c>)
 80019bc:	f000 fa66 	bl	8001e8c <Motor_set_raw_value>
	//osdelay(1000);
	fric_wheel_set_speed(fric_speed);
 80019c0:	ed97 0b00 	vldr	d0, [r7]
 80019c4:	f7ff ff9e 	bl	8001904 <fric_wheel_set_speed>

}
 80019c8:	bf00      	nop
 80019ca:	371c      	adds	r7, #28
 80019cc:	46bd      	mov	sp, r7
 80019ce:	bd90      	pop	{r4, r7, pc}
 80019d0:	00000000 	.word	0x00000000
 80019d4:	40c38800 	.word	0x40c38800
 80019d8:	40590000 	.word	0x40590000
 80019dc:	200040d8 	.word	0x200040d8

080019e0 <Timer_Task_Func>:
 */

#include "Timer_App.h"


void Timer_Task_Func(void const * argument){
 80019e0:	b580      	push	{r7, lr}
 80019e2:	b090      	sub	sp, #64	; 0x40
 80019e4:	af00      	add	r7, sp, #0
 80019e6:	6078      	str	r0, [r7, #4]

	uint32_t tick;

	for (;;){

		Motor_Data_Read();
 80019e8:	f000 f816 	bl	8001a18 <Motor_Data_Read>
		Motor_Data_Sent();
 80019ec:	f000 f87a 	bl	8001ae4 <Motor_Data_Sent>
		Motor temp_buffer;
		Motor temp_buffer_3508;
		get_Motor_buffer(&motor_data[4], &temp_buffer);
 80019f0:	f107 0324 	add.w	r3, r7, #36	; 0x24
 80019f4:	4619      	mov	r1, r3
 80019f6:	4806      	ldr	r0, [pc, #24]	; (8001a10 <Timer_Task_Func+0x30>)
 80019f8:	f000 f8f8 	bl	8001bec <get_Motor_buffer>
		get_Motor_buffer(&motor_data[0], &temp_buffer_3508);
 80019fc:	f107 0308 	add.w	r3, r7, #8
 8001a00:	4619      	mov	r1, r3
 8001a02:	4804      	ldr	r0, [pc, #16]	; (8001a14 <Timer_Task_Func+0x34>)
 8001a04:	f000 f8f2 	bl	8001bec <get_Motor_buffer>
		//Read data complete complete

		//Grab send data from other applications
		//Send data

		osDelay(1);
 8001a08:	2001      	movs	r0, #1
 8001a0a:	f005 f8c4 	bl	8006b96 <osDelay>
	for (;;){
 8001a0e:	e7eb      	b.n	80019e8 <Timer_Task_Func+0x8>
 8001a10:	200040f4 	.word	0x200040f4
 8001a14:	20004084 	.word	0x20004084

08001a18 <Motor_Data_Read>:


/**
 * This function will read all data from
 */
void Motor_Data_Read() {
 8001a18:	b580      	push	{r7, lr}
 8001a1a:	b084      	sub	sp, #16
 8001a1c:	af00      	add	r7, sp, #0

	uint8_t motorStatus2[8];
	for (int i=0; i<MOTOR_COUNT; i++) {
 8001a1e:	2300      	movs	r3, #0
 8001a20:	60fb      	str	r3, [r7, #12]
 8001a22:	e052      	b.n	8001aca <Motor_Data_Read+0xb2>
		can_filter_enable(&hcan1);
 8001a24:	482c      	ldr	r0, [pc, #176]	; (8001ad8 <Motor_Data_Read+0xc0>)
 8001a26:	f000 fd19 	bl	800245c <can_filter_enable>

		memcpy(motorStatus2, can_rx_buffer[i],8);
 8001a2a:	68fb      	ldr	r3, [r7, #12]
 8001a2c:	00db      	lsls	r3, r3, #3
 8001a2e:	4a2b      	ldr	r2, [pc, #172]	; (8001adc <Motor_Data_Read+0xc4>)
 8001a30:	441a      	add	r2, r3
 8001a32:	1d3b      	adds	r3, r7, #4
 8001a34:	6810      	ldr	r0, [r2, #0]
 8001a36:	6851      	ldr	r1, [r2, #4]
 8001a38:	c303      	stmia	r3!, {r0, r1}
		motor_data[i].motor_feedback.rx_angle	=(int16_t)(motorStatus2[0] << 8 | motorStatus2[1]);
 8001a3a:	793b      	ldrb	r3, [r7, #4]
 8001a3c:	021b      	lsls	r3, r3, #8
 8001a3e:	b21a      	sxth	r2, r3
 8001a40:	797b      	ldrb	r3, [r7, #5]
 8001a42:	b21b      	sxth	r3, r3
 8001a44:	4313      	orrs	r3, r2
 8001a46:	b218      	sxth	r0, r3
 8001a48:	4925      	ldr	r1, [pc, #148]	; (8001ae0 <Motor_Data_Read+0xc8>)
 8001a4a:	68fa      	ldr	r2, [r7, #12]
 8001a4c:	4613      	mov	r3, r2
 8001a4e:	00db      	lsls	r3, r3, #3
 8001a50:	1a9b      	subs	r3, r3, r2
 8001a52:	009b      	lsls	r3, r3, #2
 8001a54:	440b      	add	r3, r1
 8001a56:	3310      	adds	r3, #16
 8001a58:	4602      	mov	r2, r0
 8001a5a:	801a      	strh	r2, [r3, #0]
		motor_data[i].motor_feedback.rx_rpm		=(int16_t)(motorStatus2[2] << 8 | motorStatus2[3]);
 8001a5c:	79bb      	ldrb	r3, [r7, #6]
 8001a5e:	021b      	lsls	r3, r3, #8
 8001a60:	b21a      	sxth	r2, r3
 8001a62:	79fb      	ldrb	r3, [r7, #7]
 8001a64:	b21b      	sxth	r3, r3
 8001a66:	4313      	orrs	r3, r2
 8001a68:	b218      	sxth	r0, r3
 8001a6a:	491d      	ldr	r1, [pc, #116]	; (8001ae0 <Motor_Data_Read+0xc8>)
 8001a6c:	68fa      	ldr	r2, [r7, #12]
 8001a6e:	4613      	mov	r3, r2
 8001a70:	00db      	lsls	r3, r3, #3
 8001a72:	1a9b      	subs	r3, r3, r2
 8001a74:	009b      	lsls	r3, r3, #2
 8001a76:	440b      	add	r3, r1
 8001a78:	3312      	adds	r3, #18
 8001a7a:	4602      	mov	r2, r0
 8001a7c:	801a      	strh	r2, [r3, #0]
		motor_data[i].motor_feedback.rx_current =(int16_t)(motorStatus2[4] << 8 | motorStatus2[5]);
 8001a7e:	7a3b      	ldrb	r3, [r7, #8]
 8001a80:	021b      	lsls	r3, r3, #8
 8001a82:	b21a      	sxth	r2, r3
 8001a84:	7a7b      	ldrb	r3, [r7, #9]
 8001a86:	b21b      	sxth	r3, r3
 8001a88:	4313      	orrs	r3, r2
 8001a8a:	b218      	sxth	r0, r3
 8001a8c:	4914      	ldr	r1, [pc, #80]	; (8001ae0 <Motor_Data_Read+0xc8>)
 8001a8e:	68fa      	ldr	r2, [r7, #12]
 8001a90:	4613      	mov	r3, r2
 8001a92:	00db      	lsls	r3, r3, #3
 8001a94:	1a9b      	subs	r3, r3, r2
 8001a96:	009b      	lsls	r3, r3, #2
 8001a98:	440b      	add	r3, r1
 8001a9a:	3314      	adds	r3, #20
 8001a9c:	4602      	mov	r2, r0
 8001a9e:	801a      	strh	r2, [r3, #0]
		motor_data[i].motor_feedback.rx_temp	=(int16_t)(motorStatus2[6]);
 8001aa0:	7abb      	ldrb	r3, [r7, #10]
 8001aa2:	b218      	sxth	r0, r3
 8001aa4:	490e      	ldr	r1, [pc, #56]	; (8001ae0 <Motor_Data_Read+0xc8>)
 8001aa6:	68fa      	ldr	r2, [r7, #12]
 8001aa8:	4613      	mov	r3, r2
 8001aaa:	00db      	lsls	r3, r3, #3
 8001aac:	1a9b      	subs	r3, r3, r2
 8001aae:	009b      	lsls	r3, r3, #2
 8001ab0:	440b      	add	r3, r1
 8001ab2:	3316      	adds	r3, #22
 8001ab4:	4602      	mov	r2, r0
 8001ab6:	801a      	strh	r2, [r3, #0]
		//Current angle is absolute
		osDelay(1);
 8001ab8:	2001      	movs	r0, #1
 8001aba:	f005 f86c 	bl	8006b96 <osDelay>

		can_filter_disable(&hcan1);
 8001abe:	4806      	ldr	r0, [pc, #24]	; (8001ad8 <Motor_Data_Read+0xc0>)
 8001ac0:	f000 fcee 	bl	80024a0 <can_filter_disable>
	for (int i=0; i<MOTOR_COUNT; i++) {
 8001ac4:	68fb      	ldr	r3, [r7, #12]
 8001ac6:	3301      	adds	r3, #1
 8001ac8:	60fb      	str	r3, [r7, #12]
 8001aca:	68fb      	ldr	r3, [r7, #12]
 8001acc:	2b07      	cmp	r3, #7
 8001ace:	dda9      	ble.n	8001a24 <Motor_Data_Read+0xc>
	}
}
 8001ad0:	bf00      	nop
 8001ad2:	3710      	adds	r7, #16
 8001ad4:	46bd      	mov	sp, r7
 8001ad6:	bd80      	pop	{r7, pc}
 8001ad8:	200041d0 	.word	0x200041d0
 8001adc:	200041f8 	.word	0x200041f8
 8001ae0:	20004084 	.word	0x20004084

08001ae4 <Motor_Data_Sent>:
/**
 * This function will sent all motor inputs from Motor_data array with two iteration
 * The first iteration is sent to motors with StdID of 0x1FF as Motor 3508
 * The second iteration is sent to motors with StdID of 0x200 as Motor 6020
 */
void Motor_Data_Sent() {
 8001ae4:	b580      	push	{r7, lr}
 8001ae6:	b08a      	sub	sp, #40	; 0x28
 8001ae8:	af00      	add	r7, sp, #0
    uint8_t chassis_can_send_data[8];
    uint32_t send_mail_box;
    CAN_TxHeaderTypeDef  chassis_tx_message;

    chassis_tx_message.IDE = CAN_ID_STD;
 8001aea:	2300      	movs	r3, #0
 8001aec:	60bb      	str	r3, [r7, #8]
    chassis_tx_message.RTR = CAN_RTR_DATA;
 8001aee:	2300      	movs	r3, #0
 8001af0:	60fb      	str	r3, [r7, #12]
    chassis_tx_message.DLC = 0x08;
 8001af2:	2308      	movs	r3, #8
 8001af4:	613b      	str	r3, [r7, #16]

	for (int i=0; i<2; i++) {
 8001af6:	2300      	movs	r3, #0
 8001af8:	627b      	str	r3, [r7, #36]	; 0x24
 8001afa:	e06c      	b.n	8001bd6 <Motor_Data_Sent+0xf2>
		if (i == 0) {
 8001afc:	6a7b      	ldr	r3, [r7, #36]	; 0x24
 8001afe:	2b00      	cmp	r3, #0
 8001b00:	d12b      	bne.n	8001b5a <Motor_Data_Sent+0x76>
			chassis_tx_message.StdId = MOTOR_3508_STDID;
 8001b02:	f44f 7300 	mov.w	r3, #512	; 0x200
 8001b06:	603b      	str	r3, [r7, #0]

		    chassis_can_send_data[0] = motor_data[0].tx_data >> 8;
 8001b08:	4b36      	ldr	r3, [pc, #216]	; (8001be4 <Motor_Data_Sent+0x100>)
 8001b0a:	699b      	ldr	r3, [r3, #24]
 8001b0c:	121b      	asrs	r3, r3, #8
 8001b0e:	b2db      	uxtb	r3, r3
 8001b10:	773b      	strb	r3, [r7, #28]
		    chassis_can_send_data[1] = motor_data[0].tx_data;
 8001b12:	4b34      	ldr	r3, [pc, #208]	; (8001be4 <Motor_Data_Sent+0x100>)
 8001b14:	699b      	ldr	r3, [r3, #24]
 8001b16:	b2db      	uxtb	r3, r3
 8001b18:	777b      	strb	r3, [r7, #29]
		    chassis_can_send_data[2] = motor_data[1].tx_data >> 8;
 8001b1a:	4b32      	ldr	r3, [pc, #200]	; (8001be4 <Motor_Data_Sent+0x100>)
 8001b1c:	6b5b      	ldr	r3, [r3, #52]	; 0x34
 8001b1e:	121b      	asrs	r3, r3, #8
 8001b20:	b2db      	uxtb	r3, r3
 8001b22:	77bb      	strb	r3, [r7, #30]
		    chassis_can_send_data[3] = motor_data[1].tx_data;
 8001b24:	4b2f      	ldr	r3, [pc, #188]	; (8001be4 <Motor_Data_Sent+0x100>)
 8001b26:	6b5b      	ldr	r3, [r3, #52]	; 0x34
 8001b28:	b2db      	uxtb	r3, r3
 8001b2a:	77fb      	strb	r3, [r7, #31]
		    chassis_can_send_data[4] = motor_data[2].tx_data >> 8;
 8001b2c:	4b2d      	ldr	r3, [pc, #180]	; (8001be4 <Motor_Data_Sent+0x100>)
 8001b2e:	6d1b      	ldr	r3, [r3, #80]	; 0x50
 8001b30:	121b      	asrs	r3, r3, #8
 8001b32:	b2db      	uxtb	r3, r3
 8001b34:	f887 3020 	strb.w	r3, [r7, #32]
		    chassis_can_send_data[5] = motor_data[2].tx_data;
 8001b38:	4b2a      	ldr	r3, [pc, #168]	; (8001be4 <Motor_Data_Sent+0x100>)
 8001b3a:	6d1b      	ldr	r3, [r3, #80]	; 0x50
 8001b3c:	b2db      	uxtb	r3, r3
 8001b3e:	f887 3021 	strb.w	r3, [r7, #33]	; 0x21
		    chassis_can_send_data[6] = motor_data[3].tx_data >> 8;
 8001b42:	4b28      	ldr	r3, [pc, #160]	; (8001be4 <Motor_Data_Sent+0x100>)
 8001b44:	6edb      	ldr	r3, [r3, #108]	; 0x6c
 8001b46:	121b      	asrs	r3, r3, #8
 8001b48:	b2db      	uxtb	r3, r3
 8001b4a:	f887 3022 	strb.w	r3, [r7, #34]	; 0x22
		    chassis_can_send_data[7] = motor_data[3].tx_data;
 8001b4e:	4b25      	ldr	r3, [pc, #148]	; (8001be4 <Motor_Data_Sent+0x100>)
 8001b50:	6edb      	ldr	r3, [r3, #108]	; 0x6c
 8001b52:	b2db      	uxtb	r3, r3
 8001b54:	f887 3023 	strb.w	r3, [r7, #35]	; 0x23
 8001b58:	e032      	b.n	8001bc0 <Motor_Data_Sent+0xdc>
		}
		else {
			chassis_tx_message.StdId = MOTOR_6020_STDID;
 8001b5a:	f240 13ff 	movw	r3, #511	; 0x1ff
 8001b5e:	603b      	str	r3, [r7, #0]

		    chassis_can_send_data[0] = motor_data[4].tx_data >> 8;
 8001b60:	4b20      	ldr	r3, [pc, #128]	; (8001be4 <Motor_Data_Sent+0x100>)
 8001b62:	f8d3 3088 	ldr.w	r3, [r3, #136]	; 0x88
 8001b66:	121b      	asrs	r3, r3, #8
 8001b68:	b2db      	uxtb	r3, r3
 8001b6a:	773b      	strb	r3, [r7, #28]
		    chassis_can_send_data[1] = motor_data[4].tx_data;
 8001b6c:	4b1d      	ldr	r3, [pc, #116]	; (8001be4 <Motor_Data_Sent+0x100>)
 8001b6e:	f8d3 3088 	ldr.w	r3, [r3, #136]	; 0x88
 8001b72:	b2db      	uxtb	r3, r3
 8001b74:	777b      	strb	r3, [r7, #29]
		    chassis_can_send_data[2] = motor_data[5].tx_data >> 8;
 8001b76:	4b1b      	ldr	r3, [pc, #108]	; (8001be4 <Motor_Data_Sent+0x100>)
 8001b78:	f8d3 30a4 	ldr.w	r3, [r3, #164]	; 0xa4
 8001b7c:	121b      	asrs	r3, r3, #8
 8001b7e:	b2db      	uxtb	r3, r3
 8001b80:	77bb      	strb	r3, [r7, #30]
		    chassis_can_send_data[3] = motor_data[5].tx_data;
 8001b82:	4b18      	ldr	r3, [pc, #96]	; (8001be4 <Motor_Data_Sent+0x100>)
 8001b84:	f8d3 30a4 	ldr.w	r3, [r3, #164]	; 0xa4
 8001b88:	b2db      	uxtb	r3, r3
 8001b8a:	77fb      	strb	r3, [r7, #31]
		    chassis_can_send_data[4] = motor_data[6].tx_data >> 8;
 8001b8c:	4b15      	ldr	r3, [pc, #84]	; (8001be4 <Motor_Data_Sent+0x100>)
 8001b8e:	f8d3 30c0 	ldr.w	r3, [r3, #192]	; 0xc0
 8001b92:	121b      	asrs	r3, r3, #8
 8001b94:	b2db      	uxtb	r3, r3
 8001b96:	f887 3020 	strb.w	r3, [r7, #32]
		    chassis_can_send_data[5] = motor_data[6].tx_data;
 8001b9a:	4b12      	ldr	r3, [pc, #72]	; (8001be4 <Motor_Data_Sent+0x100>)
 8001b9c:	f8d3 30c0 	ldr.w	r3, [r3, #192]	; 0xc0
 8001ba0:	b2db      	uxtb	r3, r3
 8001ba2:	f887 3021 	strb.w	r3, [r7, #33]	; 0x21
		    chassis_can_send_data[6] = motor_data[7].tx_data >> 8;
 8001ba6:	4b0f      	ldr	r3, [pc, #60]	; (8001be4 <Motor_Data_Sent+0x100>)
 8001ba8:	f8d3 30dc 	ldr.w	r3, [r3, #220]	; 0xdc
 8001bac:	121b      	asrs	r3, r3, #8
 8001bae:	b2db      	uxtb	r3, r3
 8001bb0:	f887 3022 	strb.w	r3, [r7, #34]	; 0x22
		    chassis_can_send_data[7] = motor_data[7].tx_data;
 8001bb4:	4b0b      	ldr	r3, [pc, #44]	; (8001be4 <Motor_Data_Sent+0x100>)
 8001bb6:	f8d3 30dc 	ldr.w	r3, [r3, #220]	; 0xdc
 8001bba:	b2db      	uxtb	r3, r3
 8001bbc:	f887 3023 	strb.w	r3, [r7, #35]	; 0x23
		}

	    HAL_CAN_AddTxMessage(&hcan1, &chassis_tx_message, chassis_can_send_data, &send_mail_box);
 8001bc0:	f107 0318 	add.w	r3, r7, #24
 8001bc4:	f107 021c 	add.w	r2, r7, #28
 8001bc8:	4639      	mov	r1, r7
 8001bca:	4807      	ldr	r0, [pc, #28]	; (8001be8 <Motor_Data_Sent+0x104>)
 8001bcc:	f001 fee8 	bl	80039a0 <HAL_CAN_AddTxMessage>
	for (int i=0; i<2; i++) {
 8001bd0:	6a7b      	ldr	r3, [r7, #36]	; 0x24
 8001bd2:	3301      	adds	r3, #1
 8001bd4:	627b      	str	r3, [r7, #36]	; 0x24
 8001bd6:	6a7b      	ldr	r3, [r7, #36]	; 0x24
 8001bd8:	2b01      	cmp	r3, #1
 8001bda:	dd8f      	ble.n	8001afc <Motor_Data_Sent+0x18>
	}
}
 8001bdc:	bf00      	nop
 8001bde:	3728      	adds	r7, #40	; 0x28
 8001be0:	46bd      	mov	sp, r7
 8001be2:	bd80      	pop	{r7, pc}
 8001be4:	20004084 	.word	0x20004084
 8001be8:	200041d0 	.word	0x200041d0

08001bec <get_Motor_buffer>:

/**
 * copy destination to origin
 */
void get_Motor_buffer(Motor* origin, Motor* destination) {
 8001bec:	b580      	push	{r7, lr}
 8001bee:	b082      	sub	sp, #8
 8001bf0:	af00      	add	r7, sp, #0
 8001bf2:	6078      	str	r0, [r7, #4]
 8001bf4:	6039      	str	r1, [r7, #0]
	Motor_Data_Replacement(origin, destination);
 8001bf6:	6839      	ldr	r1, [r7, #0]
 8001bf8:	6878      	ldr	r0, [r7, #4]
 8001bfa:	f000 f811 	bl	8001c20 <Motor_Data_Replacement>
}
 8001bfe:	bf00      	nop
 8001c00:	3708      	adds	r7, #8
 8001c02:	46bd      	mov	sp, r7
 8001c04:	bd80      	pop	{r7, pc}

08001c06 <set_Motor_buffer>:
/**
 * copy origin to destination
 */
void set_Motor_buffer(Motor* origin, Motor* destination) {
 8001c06:	b580      	push	{r7, lr}
 8001c08:	b082      	sub	sp, #8
 8001c0a:	af00      	add	r7, sp, #0
 8001c0c:	6078      	str	r0, [r7, #4]
 8001c0e:	6039      	str	r1, [r7, #0]
	Motor_Data_Replacement(origin, destination);
 8001c10:	6839      	ldr	r1, [r7, #0]
 8001c12:	6878      	ldr	r0, [r7, #4]
 8001c14:	f000 f804 	bl	8001c20 <Motor_Data_Replacement>
}
 8001c18:	bf00      	nop
 8001c1a:	3708      	adds	r7, #8
 8001c1c:	46bd      	mov	sp, r7
 8001c1e:	bd80      	pop	{r7, pc}

08001c20 <Motor_Data_Replacement>:

/**
 * copy origin to destination this can be done by memcopy
 * need to implement critical section or Mutex
 */
void Motor_Data_Replacement(Motor* origin, Motor* destination) {
 8001c20:	b480      	push	{r7}
 8001c22:	b083      	sub	sp, #12
 8001c24:	af00      	add	r7, sp, #0
 8001c26:	6078      	str	r0, [r7, #4]
 8001c28:	6039      	str	r1, [r7, #0]
	destination->tx_data = origin->tx_data;
 8001c2a:	687b      	ldr	r3, [r7, #4]
 8001c2c:	699a      	ldr	r2, [r3, #24]
 8001c2e:	683b      	ldr	r3, [r7, #0]
 8001c30:	619a      	str	r2, [r3, #24]

	destination->motor_feedback.rx_angle = origin->motor_feedback.rx_angle;
 8001c32:	687b      	ldr	r3, [r7, #4]
 8001c34:	f9b3 2010 	ldrsh.w	r2, [r3, #16]
 8001c38:	683b      	ldr	r3, [r7, #0]
 8001c3a:	821a      	strh	r2, [r3, #16]
	destination->motor_feedback.rx_current = origin->motor_feedback.rx_current;
 8001c3c:	687b      	ldr	r3, [r7, #4]
 8001c3e:	f9b3 2014 	ldrsh.w	r2, [r3, #20]
 8001c42:	683b      	ldr	r3, [r7, #0]
 8001c44:	829a      	strh	r2, [r3, #20]
	destination->motor_feedback.rx_rpm = origin->motor_feedback.rx_rpm;
 8001c46:	687b      	ldr	r3, [r7, #4]
 8001c48:	f9b3 2012 	ldrsh.w	r2, [r3, #18]
 8001c4c:	683b      	ldr	r3, [r7, #0]
 8001c4e:	825a      	strh	r2, [r3, #18]
	destination->motor_feedback.rx_temp = origin->motor_feedback.rx_temp;
 8001c50:	687b      	ldr	r3, [r7, #4]
 8001c52:	f9b3 2016 	ldrsh.w	r2, [r3, #22]
 8001c56:	683b      	ldr	r3, [r7, #0]
 8001c58:	82da      	strh	r2, [r3, #22]

	destination->motor_info.stdid = origin->motor_info.stdid;
 8001c5a:	687b      	ldr	r3, [r7, #4]
 8001c5c:	681a      	ldr	r2, [r3, #0]
 8001c5e:	683b      	ldr	r3, [r7, #0]
 8001c60:	601a      	str	r2, [r3, #0]

	destination->motor_info.P_parameter = origin->motor_info.P_parameter;
 8001c62:	687b      	ldr	r3, [r7, #4]
 8001c64:	685a      	ldr	r2, [r3, #4]
 8001c66:	683b      	ldr	r3, [r7, #0]
 8001c68:	605a      	str	r2, [r3, #4]
	destination->motor_info.I_parameter = origin->motor_info.I_parameter;
 8001c6a:	687b      	ldr	r3, [r7, #4]
 8001c6c:	689a      	ldr	r2, [r3, #8]
 8001c6e:	683b      	ldr	r3, [r7, #0]
 8001c70:	609a      	str	r2, [r3, #8]
	destination->motor_info.D_parameter = origin->motor_info.D_parameter;
 8001c72:	687b      	ldr	r3, [r7, #4]
 8001c74:	68da      	ldr	r2, [r3, #12]
 8001c76:	683b      	ldr	r3, [r7, #0]
 8001c78:	60da      	str	r2, [r3, #12]
}
 8001c7a:	bf00      	nop
 8001c7c:	370c      	adds	r7, #12
 8001c7e:	46bd      	mov	sp, r7
 8001c80:	f85d 7b04 	ldr.w	r7, [sp], #4
 8001c84:	4770      	bx	lr
	...

08001c88 <Motor_pid_set_angle>:


//PID Function, expects a POINTER to motor structure, target ABSOLUTE angle in DEGREES (between 0 and 360), and P/I/D parameters
void Motor_pid_set_angle(Motor* motor, double angle, int32_t p, int32_t i, int32_t d){
 8001c88:	b590      	push	{r4, r7, lr}
 8001c8a:	b097      	sub	sp, #92	; 0x5c
 8001c8c:	af00      	add	r7, sp, #0
 8001c8e:	6178      	str	r0, [r7, #20]
 8001c90:	ed87 0b02 	vstr	d0, [r7, #8]
 8001c94:	6139      	str	r1, [r7, #16]
 8001c96:	607a      	str	r2, [r7, #4]
 8001c98:	603b      	str	r3, [r7, #0]
	Motor temp_motor_buffer;
	int16_t rx_angle;
	int16_t input_angle;
	int16_t current_error;
	int16_t target_angle;
	int16_t min_speed=1000;
 8001c9a:	f44f 737a 	mov.w	r3, #1000	; 0x3e8
 8001c9e:	f8a7 3046 	strh.w	r3, [r7, #70]	; 0x46
	int16_t tolerance=20;
 8001ca2:	2314      	movs	r3, #20
 8001ca4:	f8a7 3044 	strh.w	r3, [r7, #68]	; 0x44
	int16_t direction=1;
 8001ca8:	2301      	movs	r3, #1
 8001caa:	f8a7 3042 	strh.w	r3, [r7, #66]	; 0x42
	double velocity=0;
 8001cae:	f04f 0300 	mov.w	r3, #0
 8001cb2:	f04f 0400 	mov.w	r4, #0
 8001cb6:	e9c7 3414 	strd	r3, r4, [r7, #80]	; 0x50
	double speed=0;
 8001cba:	f04f 0300 	mov.w	r3, #0
 8001cbe:	f04f 0400 	mov.w	r4, #0
 8001cc2:	e9c7 3412 	strd	r3, r4, [r7, #72]	; 0x48

	input_angle=round(angle/360*8192);
 8001cc6:	f04f 0200 	mov.w	r2, #0
 8001cca:	4b6e      	ldr	r3, [pc, #440]	; (8001e84 <Motor_pid_set_angle+0x1fc>)
 8001ccc:	e9d7 0102 	ldrd	r0, r1, [r7, #8]
 8001cd0:	f7fe fdc4 	bl	800085c <__aeabi_ddiv>
 8001cd4:	4603      	mov	r3, r0
 8001cd6:	460c      	mov	r4, r1
 8001cd8:	4618      	mov	r0, r3
 8001cda:	4621      	mov	r1, r4
 8001cdc:	f04f 0200 	mov.w	r2, #0
 8001ce0:	4b69      	ldr	r3, [pc, #420]	; (8001e88 <Motor_pid_set_angle+0x200>)
 8001ce2:	f7fe fc91 	bl	8000608 <__aeabi_dmul>
 8001ce6:	4603      	mov	r3, r0
 8001ce8:	460c      	mov	r4, r1
 8001cea:	ec44 3b17 	vmov	d7, r3, r4
 8001cee:	eeb0 0a47 	vmov.f32	s0, s14
 8001cf2:	eef0 0a67 	vmov.f32	s1, s15
 8001cf6:	f007 f87d 	bl	8008df4 <round>
 8001cfa:	ec54 3b10 	vmov	r3, r4, d0
 8001cfe:	4618      	mov	r0, r3
 8001d00:	4621      	mov	r1, r4
 8001d02:	f7fe ff31 	bl	8000b68 <__aeabi_d2iz>
 8001d06:	4603      	mov	r3, r0
 8001d08:	f8a7 3040 	strh.w	r3, [r7, #64]	; 0x40

	get_Motor_buffer(motor, &temp_motor_buffer);
 8001d0c:	f107 031c 	add.w	r3, r7, #28
 8001d10:	4619      	mov	r1, r3
 8001d12:	6978      	ldr	r0, [r7, #20]
 8001d14:	f7ff ff6a 	bl	8001bec <get_Motor_buffer>


	temp_motor_buffer.motor_info.P_parameter=p;
 8001d18:	693b      	ldr	r3, [r7, #16]
 8001d1a:	623b      	str	r3, [r7, #32]
	temp_motor_buffer.motor_info.I_parameter=i;
 8001d1c:	687b      	ldr	r3, [r7, #4]
 8001d1e:	627b      	str	r3, [r7, #36]	; 0x24
	temp_motor_buffer.motor_info.D_parameter=d;
 8001d20:	683b      	ldr	r3, [r7, #0]
 8001d22:	62bb      	str	r3, [r7, #40]	; 0x28
	rx_angle=temp_motor_buffer.motor_feedback.rx_angle;
 8001d24:	8dbb      	ldrh	r3, [r7, #44]	; 0x2c
 8001d26:	87fb      	strh	r3, [r7, #62]	; 0x3e

	target_angle=input_angle;
 8001d28:	f8b7 3040 	ldrh.w	r3, [r7, #64]	; 0x40
 8001d2c:	87bb      	strh	r3, [r7, #60]	; 0x3c
	/*if (target_angle % 8192 !=0){
		target_angle=target_angle%8192;
	}*/

	current_error=(target_angle-rx_angle+8192)%8192; //Use target - rx + 8192 to always make it positive, mod 8192 to make sure its within [0,8192]
 8001d2e:	f9b7 203c 	ldrsh.w	r2, [r7, #60]	; 0x3c
 8001d32:	f9b7 303e 	ldrsh.w	r3, [r7, #62]	; 0x3e
 8001d36:	1ad3      	subs	r3, r2, r3
 8001d38:	f503 5300 	add.w	r3, r3, #8192	; 0x2000
 8001d3c:	425a      	negs	r2, r3
 8001d3e:	f3c3 030c 	ubfx	r3, r3, #0, #13
 8001d42:	f3c2 020c 	ubfx	r2, r2, #0, #13
 8001d46:	bf58      	it	pl
 8001d48:	4253      	negpl	r3, r2
 8001d4a:	877b      	strh	r3, [r7, #58]	; 0x3a
	//If error is not small, but motor turns less than 180 degrees, turn as per usual using p*error
	//If error is not small, but motor needs to turn more than 180 degrees, reverse direction, and error is the error "the other way"
	//In cases where error is not small, set minimum speed so that the motor doesnt stop turning due to friction

	////----------------------------This seciton will likely need to be modified if we try to add in I and D control--------------------////
	if (current_error<tolerance){
 8001d4c:	f9b7 203a 	ldrsh.w	r2, [r7, #58]	; 0x3a
 8001d50:	f9b7 3044 	ldrsh.w	r3, [r7, #68]	; 0x44
 8001d54:	429a      	cmp	r2, r3
 8001d56:	da06      	bge.n	8001d66 <Motor_pid_set_angle+0xde>
		velocity=0;
 8001d58:	f04f 0300 	mov.w	r3, #0
 8001d5c:	f04f 0400 	mov.w	r4, #0
 8001d60:	e9c7 3414 	strd	r3, r4, [r7, #80]	; 0x50
 8001d64:	e07d      	b.n	8001e62 <Motor_pid_set_angle+0x1da>
	}
	else{
		if (current_error<=4096){ //If need to turn less than 180 degrees, go CW
 8001d66:	f9b7 303a 	ldrsh.w	r3, [r7, #58]	; 0x3a
 8001d6a:	f5b3 5f80 	cmp.w	r3, #4096	; 0x1000
 8001d6e:	dc39      	bgt.n	8001de4 <Motor_pid_set_angle+0x15c>
			//HAL_GPIO_WritePin(GPIOG, LD_A_Pin, RESET);
			//HAL_GPIO_WritePin(GPIOG, LD_B_Pin, SET);
			direction=1;
 8001d70:	2301      	movs	r3, #1
 8001d72:	f8a7 3042 	strh.w	r3, [r7, #66]	; 0x42

			speed=p*current_error;
 8001d76:	f9b7 303a 	ldrsh.w	r3, [r7, #58]	; 0x3a
 8001d7a:	693a      	ldr	r2, [r7, #16]
 8001d7c:	fb02 f303 	mul.w	r3, r2, r3
 8001d80:	4618      	mov	r0, r3
 8001d82:	f7fe fbd7 	bl	8000534 <__aeabi_i2d>
 8001d86:	4603      	mov	r3, r0
 8001d88:	460c      	mov	r4, r1
 8001d8a:	e9c7 3412 	strd	r3, r4, [r7, #72]	; 0x48

			if (speed<min_speed){
 8001d8e:	f9b7 3046 	ldrsh.w	r3, [r7, #70]	; 0x46
 8001d92:	4618      	mov	r0, r3
 8001d94:	f7fe fbce 	bl	8000534 <__aeabi_i2d>
 8001d98:	4603      	mov	r3, r0
 8001d9a:	460c      	mov	r4, r1
 8001d9c:	461a      	mov	r2, r3
 8001d9e:	4623      	mov	r3, r4
 8001da0:	e9d7 0112 	ldrd	r0, r1, [r7, #72]	; 0x48
 8001da4:	f7fe fea2 	bl	8000aec <__aeabi_dcmplt>
 8001da8:	4603      	mov	r3, r0
 8001daa:	2b00      	cmp	r3, #0
 8001dac:	d008      	beq.n	8001dc0 <Motor_pid_set_angle+0x138>
				speed=min_speed;
 8001dae:	f9b7 3046 	ldrsh.w	r3, [r7, #70]	; 0x46
 8001db2:	4618      	mov	r0, r3
 8001db4:	f7fe fbbe 	bl	8000534 <__aeabi_i2d>
 8001db8:	4603      	mov	r3, r0
 8001dba:	460c      	mov	r4, r1
 8001dbc:	e9c7 3412 	strd	r3, r4, [r7, #72]	; 0x48
			}

			velocity=direction*speed;
 8001dc0:	f9b7 3042 	ldrsh.w	r3, [r7, #66]	; 0x42
 8001dc4:	4618      	mov	r0, r3
 8001dc6:	f7fe fbb5 	bl	8000534 <__aeabi_i2d>
 8001dca:	4603      	mov	r3, r0
 8001dcc:	460c      	mov	r4, r1
 8001dce:	461a      	mov	r2, r3
 8001dd0:	4623      	mov	r3, r4
 8001dd2:	e9d7 0112 	ldrd	r0, r1, [r7, #72]	; 0x48
 8001dd6:	f7fe fc17 	bl	8000608 <__aeabi_dmul>
 8001dda:	4603      	mov	r3, r0
 8001ddc:	460c      	mov	r4, r1
 8001dde:	e9c7 3414 	strd	r3, r4, [r7, #80]	; 0x50
 8001de2:	e03e      	b.n	8001e62 <Motor_pid_set_angle+0x1da>
		}
		else{ //Otherwise, go CCW
			//HAL_GPIO_WritePin(GPIOG, LD_B_Pin, RESET);
			//HAL_GPIO_WritePin(GPIOG, LD_A_Pin, SET);
			current_error=(8192-current_error); //Error from "the other side" obtained by 8192-error if CCW
 8001de4:	8f7b      	ldrh	r3, [r7, #58]	; 0x3a
 8001de6:	f5c3 5300 	rsb	r3, r3, #8192	; 0x2000
 8001dea:	b29b      	uxth	r3, r3
 8001dec:	877b      	strh	r3, [r7, #58]	; 0x3a
			direction=-1;
 8001dee:	f64f 73ff 	movw	r3, #65535	; 0xffff
 8001df2:	f8a7 3042 	strh.w	r3, [r7, #66]	; 0x42

			speed=p*current_error;
 8001df6:	f9b7 303a 	ldrsh.w	r3, [r7, #58]	; 0x3a
 8001dfa:	693a      	ldr	r2, [r7, #16]
 8001dfc:	fb02 f303 	mul.w	r3, r2, r3
 8001e00:	4618      	mov	r0, r3
 8001e02:	f7fe fb97 	bl	8000534 <__aeabi_i2d>
 8001e06:	4603      	mov	r3, r0
 8001e08:	460c      	mov	r4, r1
 8001e0a:	e9c7 3412 	strd	r3, r4, [r7, #72]	; 0x48

			if (speed<min_speed){
 8001e0e:	f9b7 3046 	ldrsh.w	r3, [r7, #70]	; 0x46
 8001e12:	4618      	mov	r0, r3
 8001e14:	f7fe fb8e 	bl	8000534 <__aeabi_i2d>
 8001e18:	4603      	mov	r3, r0
 8001e1a:	460c      	mov	r4, r1
 8001e1c:	461a      	mov	r2, r3
 8001e1e:	4623      	mov	r3, r4
 8001e20:	e9d7 0112 	ldrd	r0, r1, [r7, #72]	; 0x48
 8001e24:	f7fe fe62 	bl	8000aec <__aeabi_dcmplt>
 8001e28:	4603      	mov	r3, r0
 8001e2a:	2b00      	cmp	r3, #0
 8001e2c:	d008      	beq.n	8001e40 <Motor_pid_set_angle+0x1b8>
				speed=min_speed;
 8001e2e:	f9b7 3046 	ldrsh.w	r3, [r7, #70]	; 0x46
 8001e32:	4618      	mov	r0, r3
 8001e34:	f7fe fb7e 	bl	8000534 <__aeabi_i2d>
 8001e38:	4603      	mov	r3, r0
 8001e3a:	460c      	mov	r4, r1
 8001e3c:	e9c7 3412 	strd	r3, r4, [r7, #72]	; 0x48
			}

			velocity=direction*speed;
 8001e40:	f9b7 3042 	ldrsh.w	r3, [r7, #66]	; 0x42
 8001e44:	4618      	mov	r0, r3
 8001e46:	f7fe fb75 	bl	8000534 <__aeabi_i2d>
 8001e4a:	4603      	mov	r3, r0
 8001e4c:	460c      	mov	r4, r1
 8001e4e:	461a      	mov	r2, r3
 8001e50:	4623      	mov	r3, r4
 8001e52:	e9d7 0112 	ldrd	r0, r1, [r7, #72]	; 0x48
 8001e56:	f7fe fbd7 	bl	8000608 <__aeabi_dmul>
 8001e5a:	4603      	mov	r3, r0
 8001e5c:	460c      	mov	r4, r1
 8001e5e:	e9c7 3414 	strd	r3, r4, [r7, #80]	; 0x50
	////----------------------------This seciton will likely need to be modified if we try to add in I and D control--------------------////
	//current_error=3000;



	temp_motor_buffer.tx_data=velocity;
 8001e62:	e9d7 0114 	ldrd	r0, r1, [r7, #80]	; 0x50
 8001e66:	f7fe fe7f 	bl	8000b68 <__aeabi_d2iz>
 8001e6a:	4603      	mov	r3, r0
 8001e6c:	637b      	str	r3, [r7, #52]	; 0x34
	set_Motor_buffer(&temp_motor_buffer,motor);
 8001e6e:	f107 031c 	add.w	r3, r7, #28
 8001e72:	6979      	ldr	r1, [r7, #20]
 8001e74:	4618      	mov	r0, r3
 8001e76:	f7ff fec6 	bl	8001c06 <set_Motor_buffer>

}
 8001e7a:	bf00      	nop
 8001e7c:	375c      	adds	r7, #92	; 0x5c
 8001e7e:	46bd      	mov	sp, r7
 8001e80:	bd90      	pop	{r4, r7, pc}
 8001e82:	bf00      	nop
 8001e84:	40768000 	.word	0x40768000
 8001e88:	40c00000 	.word	0x40c00000

08001e8c <Motor_set_raw_value>:

//Sets a raw value to a motor - look at datasheets to see what values the motor supports
//Quick reference: P2006 - 10000, M3508 - 16000, GM6020 - 30000
void Motor_set_raw_value(Motor* motor, double value){
 8001e8c:	b580      	push	{r7, lr}
 8001e8e:	b08c      	sub	sp, #48	; 0x30
 8001e90:	af00      	add	r7, sp, #0
 8001e92:	60f8      	str	r0, [r7, #12]
 8001e94:	ed87 0b00 	vstr	d0, [r7]
	Motor temp_motor_buffer;
	get_Motor_buffer(motor, &temp_motor_buffer);
 8001e98:	f107 0314 	add.w	r3, r7, #20
 8001e9c:	4619      	mov	r1, r3
 8001e9e:	68f8      	ldr	r0, [r7, #12]
 8001ea0:	f7ff fea4 	bl	8001bec <get_Motor_buffer>
	temp_motor_buffer.tx_data=(int32_t)value;
 8001ea4:	e9d7 0100 	ldrd	r0, r1, [r7]
 8001ea8:	f7fe fe5e 	bl	8000b68 <__aeabi_d2iz>
 8001eac:	4603      	mov	r3, r0
 8001eae:	62fb      	str	r3, [r7, #44]	; 0x2c
	set_Motor_buffer(&temp_motor_buffer,motor);
 8001eb0:	f107 0314 	add.w	r3, r7, #20
 8001eb4:	68f9      	ldr	r1, [r7, #12]
 8001eb6:	4618      	mov	r0, r3
 8001eb8:	f7ff fea5 	bl	8001c06 <set_Motor_buffer>
}
 8001ebc:	bf00      	nop
 8001ebe:	3730      	adds	r7, #48	; 0x30
 8001ec0:	46bd      	mov	sp, r7
 8001ec2:	bd80      	pop	{r7, pc}

08001ec4 <buzzer_init>:
 *      Use HAL_Delay instead of OS_delay if you want to use it before free RTOS kicks in
 */

#include "buzzer.h"

void buzzer_init(void){
 8001ec4:	b580      	push	{r7, lr}
 8001ec6:	af00      	add	r7, sp, #0
	HAL_TIM_PWM_Start(&htim12, TIM_CHANNEL_1);
 8001ec8:	2100      	movs	r1, #0
 8001eca:	4802      	ldr	r0, [pc, #8]	; (8001ed4 <buzzer_init+0x10>)
 8001ecc:	f003 f986 	bl	80051dc <HAL_TIM_PWM_Start>

}
 8001ed0:	bf00      	nop
 8001ed2:	bd80      	pop	{r7, pc}
 8001ed4:	20004238 	.word	0x20004238

08001ed8 <buzzer_play_g0>:

void buzzer_play_g0(int32_t duration){
 8001ed8:	b580      	push	{r7, lr}
 8001eda:	b082      	sub	sp, #8
 8001edc:	af00      	add	r7, sp, #0
 8001ede:	6078      	str	r0, [r7, #4]
	__HAL_TIM_SET_COUNTER(&htim12,0);
 8001ee0:	4b0e      	ldr	r3, [pc, #56]	; (8001f1c <buzzer_play_g0+0x44>)
 8001ee2:	681b      	ldr	r3, [r3, #0]
 8001ee4:	2200      	movs	r2, #0
 8001ee6:	625a      	str	r2, [r3, #36]	; 0x24
	//__HAL_TIM_PRESCALER(&htim12, 35);
	__HAL_TIM_SET_AUTORELOAD(&htim12,9523);
 8001ee8:	4b0c      	ldr	r3, [pc, #48]	; (8001f1c <buzzer_play_g0+0x44>)
 8001eea:	681b      	ldr	r3, [r3, #0]
 8001eec:	f242 5233 	movw	r2, #9523	; 0x2533
 8001ef0:	62da      	str	r2, [r3, #44]	; 0x2c
 8001ef2:	4b0a      	ldr	r3, [pc, #40]	; (8001f1c <buzzer_play_g0+0x44>)
 8001ef4:	f242 5233 	movw	r2, #9523	; 0x2533
 8001ef8:	60da      	str	r2, [r3, #12]
	__HAL_TIM_SET_COMPARE(&htim12,TIM_CHANNEL_1,100);
 8001efa:	4b08      	ldr	r3, [pc, #32]	; (8001f1c <buzzer_play_g0+0x44>)
 8001efc:	681b      	ldr	r3, [r3, #0]
 8001efe:	2264      	movs	r2, #100	; 0x64
 8001f00:	635a      	str	r2, [r3, #52]	; 0x34
	osDelay(duration);
 8001f02:	687b      	ldr	r3, [r7, #4]
 8001f04:	4618      	mov	r0, r3
 8001f06:	f004 fe46 	bl	8006b96 <osDelay>
	__HAL_TIM_SET_COMPARE(&htim12,TIM_CHANNEL_1,0);
 8001f0a:	4b04      	ldr	r3, [pc, #16]	; (8001f1c <buzzer_play_g0+0x44>)
 8001f0c:	681b      	ldr	r3, [r3, #0]
 8001f0e:	2200      	movs	r2, #0
 8001f10:	635a      	str	r2, [r3, #52]	; 0x34
}
 8001f12:	bf00      	nop
 8001f14:	3708      	adds	r7, #8
 8001f16:	46bd      	mov	sp, r7
 8001f18:	bd80      	pop	{r7, pc}
 8001f1a:	bf00      	nop
 8001f1c:	20004238 	.word	0x20004238

08001f20 <buzzer_play_c1>:

void buzzer_play_c1(int32_t duration){
 8001f20:	b580      	push	{r7, lr}
 8001f22:	b082      	sub	sp, #8
 8001f24:	af00      	add	r7, sp, #0
 8001f26:	6078      	str	r0, [r7, #4]
	__HAL_TIM_SET_COUNTER(&htim12,0);
 8001f28:	4b0e      	ldr	r3, [pc, #56]	; (8001f64 <buzzer_play_c1+0x44>)
 8001f2a:	681b      	ldr	r3, [r3, #0]
 8001f2c:	2200      	movs	r2, #0
 8001f2e:	625a      	str	r2, [r3, #36]	; 0x24
	//__HAL_TIM_PRESCALER(&htim12, 35);
	__HAL_TIM_SET_AUTORELOAD(&htim12,7135);
 8001f30:	4b0c      	ldr	r3, [pc, #48]	; (8001f64 <buzzer_play_c1+0x44>)
 8001f32:	681b      	ldr	r3, [r3, #0]
 8001f34:	f641 32df 	movw	r2, #7135	; 0x1bdf
 8001f38:	62da      	str	r2, [r3, #44]	; 0x2c
 8001f3a:	4b0a      	ldr	r3, [pc, #40]	; (8001f64 <buzzer_play_c1+0x44>)
 8001f3c:	f641 32df 	movw	r2, #7135	; 0x1bdf
 8001f40:	60da      	str	r2, [r3, #12]
	__HAL_TIM_SET_COMPARE(&htim12,TIM_CHANNEL_1,100);
 8001f42:	4b08      	ldr	r3, [pc, #32]	; (8001f64 <buzzer_play_c1+0x44>)
 8001f44:	681b      	ldr	r3, [r3, #0]
 8001f46:	2264      	movs	r2, #100	; 0x64
 8001f48:	635a      	str	r2, [r3, #52]	; 0x34
	osDelay(duration);
 8001f4a:	687b      	ldr	r3, [r7, #4]
 8001f4c:	4618      	mov	r0, r3
 8001f4e:	f004 fe22 	bl	8006b96 <osDelay>
	__HAL_TIM_SET_COMPARE(&htim12,TIM_CHANNEL_1,0);
 8001f52:	4b04      	ldr	r3, [pc, #16]	; (8001f64 <buzzer_play_c1+0x44>)
 8001f54:	681b      	ldr	r3, [r3, #0]
 8001f56:	2200      	movs	r2, #0
 8001f58:	635a      	str	r2, [r3, #52]	; 0x34
}
 8001f5a:	bf00      	nop
 8001f5c:	3708      	adds	r7, #8
 8001f5e:	46bd      	mov	sp, r7
 8001f60:	bd80      	pop	{r7, pc}
 8001f62:	bf00      	nop
 8001f64:	20004238 	.word	0x20004238

08001f68 <buzzer_play_e1>:
	__HAL_TIM_SET_COMPARE(&htim12,TIM_CHANNEL_1,100);
	osDelay(duration);
	__HAL_TIM_SET_COMPARE(&htim12,TIM_CHANNEL_1,0);
}

void buzzer_play_e1(int32_t duration){
 8001f68:	b580      	push	{r7, lr}
 8001f6a:	b082      	sub	sp, #8
 8001f6c:	af00      	add	r7, sp, #0
 8001f6e:	6078      	str	r0, [r7, #4]
	//__HAL_TIM_PRESCALER(&htim12, 25);
	__HAL_TIM_SET_COUNTER(&htim12,0);
 8001f70:	4b0e      	ldr	r3, [pc, #56]	; (8001fac <buzzer_play_e1+0x44>)
 8001f72:	681b      	ldr	r3, [r3, #0]
 8001f74:	2200      	movs	r2, #0
 8001f76:	625a      	str	r2, [r3, #36]	; 0x24
	__HAL_TIM_SET_AUTORELOAD(&htim12,5662);
 8001f78:	4b0c      	ldr	r3, [pc, #48]	; (8001fac <buzzer_play_e1+0x44>)
 8001f7a:	681b      	ldr	r3, [r3, #0]
 8001f7c:	f241 621e 	movw	r2, #5662	; 0x161e
 8001f80:	62da      	str	r2, [r3, #44]	; 0x2c
 8001f82:	4b0a      	ldr	r3, [pc, #40]	; (8001fac <buzzer_play_e1+0x44>)
 8001f84:	f241 621e 	movw	r2, #5662	; 0x161e
 8001f88:	60da      	str	r2, [r3, #12]
	__HAL_TIM_SET_COMPARE(&htim12,TIM_CHANNEL_1,100);
 8001f8a:	4b08      	ldr	r3, [pc, #32]	; (8001fac <buzzer_play_e1+0x44>)
 8001f8c:	681b      	ldr	r3, [r3, #0]
 8001f8e:	2264      	movs	r2, #100	; 0x64
 8001f90:	635a      	str	r2, [r3, #52]	; 0x34
	osDelay(duration);
 8001f92:	687b      	ldr	r3, [r7, #4]
 8001f94:	4618      	mov	r0, r3
 8001f96:	f004 fdfe 	bl	8006b96 <osDelay>
	__HAL_TIM_SET_COMPARE(&htim12,TIM_CHANNEL_1,0);
 8001f9a:	4b04      	ldr	r3, [pc, #16]	; (8001fac <buzzer_play_e1+0x44>)
 8001f9c:	681b      	ldr	r3, [r3, #0]
 8001f9e:	2200      	movs	r2, #0
 8001fa0:	635a      	str	r2, [r3, #52]	; 0x34
}
 8001fa2:	bf00      	nop
 8001fa4:	3708      	adds	r7, #8
 8001fa6:	46bd      	mov	sp, r7
 8001fa8:	bd80      	pop	{r7, pc}
 8001faa:	bf00      	nop
 8001fac:	20004238 	.word	0x20004238

08001fb0 <buzzer_play_g1>:
	__HAL_TIM_SET_COMPARE(&htim12,TIM_CHANNEL_1,100);
	osDelay(duration);
	__HAL_TIM_SET_COMPARE(&htim12,TIM_CHANNEL_1,0);
}

void buzzer_play_g1(int32_t duration){
 8001fb0:	b580      	push	{r7, lr}
 8001fb2:	b082      	sub	sp, #8
 8001fb4:	af00      	add	r7, sp, #0
 8001fb6:	6078      	str	r0, [r7, #4]
	//__HAL_TIM_PRESCALER(&htim12, 21);
	__HAL_TIM_SET_COUNTER(&htim12,0);
 8001fb8:	4b0e      	ldr	r3, [pc, #56]	; (8001ff4 <buzzer_play_g1+0x44>)
 8001fba:	681b      	ldr	r3, [r3, #0]
 8001fbc:	2200      	movs	r2, #0
 8001fbe:	625a      	str	r2, [r3, #36]	; 0x24
	__HAL_TIM_SET_AUTORELOAD(&htim12,4761);
 8001fc0:	4b0c      	ldr	r3, [pc, #48]	; (8001ff4 <buzzer_play_g1+0x44>)
 8001fc2:	681b      	ldr	r3, [r3, #0]
 8001fc4:	f241 2299 	movw	r2, #4761	; 0x1299
 8001fc8:	62da      	str	r2, [r3, #44]	; 0x2c
 8001fca:	4b0a      	ldr	r3, [pc, #40]	; (8001ff4 <buzzer_play_g1+0x44>)
 8001fcc:	f241 2299 	movw	r2, #4761	; 0x1299
 8001fd0:	60da      	str	r2, [r3, #12]
	__HAL_TIM_SET_COMPARE(&htim12,TIM_CHANNEL_1,100);
 8001fd2:	4b08      	ldr	r3, [pc, #32]	; (8001ff4 <buzzer_play_g1+0x44>)
 8001fd4:	681b      	ldr	r3, [r3, #0]
 8001fd6:	2264      	movs	r2, #100	; 0x64
 8001fd8:	635a      	str	r2, [r3, #52]	; 0x34
	osDelay(duration);
 8001fda:	687b      	ldr	r3, [r7, #4]
 8001fdc:	4618      	mov	r0, r3
 8001fde:	f004 fdda 	bl	8006b96 <osDelay>
	__HAL_TIM_SET_COMPARE(&htim12,TIM_CHANNEL_1,0);
 8001fe2:	4b04      	ldr	r3, [pc, #16]	; (8001ff4 <buzzer_play_g1+0x44>)
 8001fe4:	681b      	ldr	r3, [r3, #0]
 8001fe6:	2200      	movs	r2, #0
 8001fe8:	635a      	str	r2, [r3, #52]	; 0x34
}
 8001fea:	bf00      	nop
 8001fec:	3708      	adds	r7, #8
 8001fee:	46bd      	mov	sp, r7
 8001ff0:	bd80      	pop	{r7, pc}
 8001ff2:	bf00      	nop
 8001ff4:	20004238 	.word	0x20004238

08001ff8 <buzzer_rest>:
	__HAL_TIM_SET_COMPARE(&htim12,TIM_CHANNEL_1,100);
	osDelay(duration);
	__HAL_TIM_SET_COMPARE(&htim12,TIM_CHANNEL_1,0);
}

void buzzer_rest(int32_t duration){
 8001ff8:	b580      	push	{r7, lr}
 8001ffa:	b082      	sub	sp, #8
 8001ffc:	af00      	add	r7, sp, #0
 8001ffe:	6078      	str	r0, [r7, #4]
	osDelay(duration);
 8002000:	687b      	ldr	r3, [r7, #4]
 8002002:	4618      	mov	r0, r3
 8002004:	f004 fdc7 	bl	8006b96 <osDelay>
}
 8002008:	bf00      	nop
 800200a:	3708      	adds	r7, #8
 800200c:	46bd      	mov	sp, r7
 800200e:	bd80      	pop	{r7, pc}

08002010 <buzzer_play_mario>:



}

void buzzer_play_mario(int32_t bpm){
 8002010:	b590      	push	{r4, r7, lr}
 8002012:	b08d      	sub	sp, #52	; 0x34
 8002014:	af00      	add	r7, sp, #0
 8002016:	6078      	str	r0, [r7, #4]
	int32_t quarter=(double)60/bpm*1000;
 8002018:	6878      	ldr	r0, [r7, #4]
 800201a:	f7fe fa8b 	bl	8000534 <__aeabi_i2d>
 800201e:	4603      	mov	r3, r0
 8002020:	460c      	mov	r4, r1
 8002022:	461a      	mov	r2, r3
 8002024:	4623      	mov	r3, r4
 8002026:	f04f 0000 	mov.w	r0, #0
 800202a:	49bf      	ldr	r1, [pc, #764]	; (8002328 <buzzer_play_mario+0x318>)
 800202c:	f7fe fc16 	bl	800085c <__aeabi_ddiv>
 8002030:	4603      	mov	r3, r0
 8002032:	460c      	mov	r4, r1
 8002034:	4618      	mov	r0, r3
 8002036:	4621      	mov	r1, r4
 8002038:	f04f 0200 	mov.w	r2, #0
 800203c:	4bbb      	ldr	r3, [pc, #748]	; (800232c <buzzer_play_mario+0x31c>)
 800203e:	f7fe fae3 	bl	8000608 <__aeabi_dmul>
 8002042:	4603      	mov	r3, r0
 8002044:	460c      	mov	r4, r1
 8002046:	4618      	mov	r0, r3
 8002048:	4621      	mov	r1, r4
 800204a:	f7fe fd8d 	bl	8000b68 <__aeabi_d2iz>
 800204e:	4603      	mov	r3, r0
 8002050:	62fb      	str	r3, [r7, #44]	; 0x2c
	int32_t quarter_dot=(double)60/bpm*1000*1.5;
 8002052:	6878      	ldr	r0, [r7, #4]
 8002054:	f7fe fa6e 	bl	8000534 <__aeabi_i2d>
 8002058:	4603      	mov	r3, r0
 800205a:	460c      	mov	r4, r1
 800205c:	461a      	mov	r2, r3
 800205e:	4623      	mov	r3, r4
 8002060:	f04f 0000 	mov.w	r0, #0
 8002064:	49b0      	ldr	r1, [pc, #704]	; (8002328 <buzzer_play_mario+0x318>)
 8002066:	f7fe fbf9 	bl	800085c <__aeabi_ddiv>
 800206a:	4603      	mov	r3, r0
 800206c:	460c      	mov	r4, r1
 800206e:	4618      	mov	r0, r3
 8002070:	4621      	mov	r1, r4
 8002072:	f04f 0200 	mov.w	r2, #0
 8002076:	4bad      	ldr	r3, [pc, #692]	; (800232c <buzzer_play_mario+0x31c>)
 8002078:	f7fe fac6 	bl	8000608 <__aeabi_dmul>
 800207c:	4603      	mov	r3, r0
 800207e:	460c      	mov	r4, r1
 8002080:	4618      	mov	r0, r3
 8002082:	4621      	mov	r1, r4
 8002084:	f04f 0200 	mov.w	r2, #0
 8002088:	4ba9      	ldr	r3, [pc, #676]	; (8002330 <buzzer_play_mario+0x320>)
 800208a:	f7fe fabd 	bl	8000608 <__aeabi_dmul>
 800208e:	4603      	mov	r3, r0
 8002090:	460c      	mov	r4, r1
 8002092:	4618      	mov	r0, r3
 8002094:	4621      	mov	r1, r4
 8002096:	f7fe fd67 	bl	8000b68 <__aeabi_d2iz>
 800209a:	4603      	mov	r3, r0
 800209c:	62bb      	str	r3, [r7, #40]	; 0x28
	int32_t eighth=(double)60/bpm*1000*0.5;
 800209e:	6878      	ldr	r0, [r7, #4]
 80020a0:	f7fe fa48 	bl	8000534 <__aeabi_i2d>
 80020a4:	4603      	mov	r3, r0
 80020a6:	460c      	mov	r4, r1
 80020a8:	461a      	mov	r2, r3
 80020aa:	4623      	mov	r3, r4
 80020ac:	f04f 0000 	mov.w	r0, #0
 80020b0:	499d      	ldr	r1, [pc, #628]	; (8002328 <buzzer_play_mario+0x318>)
 80020b2:	f7fe fbd3 	bl	800085c <__aeabi_ddiv>
 80020b6:	4603      	mov	r3, r0
 80020b8:	460c      	mov	r4, r1
 80020ba:	4618      	mov	r0, r3
 80020bc:	4621      	mov	r1, r4
 80020be:	f04f 0200 	mov.w	r2, #0
 80020c2:	4b9a      	ldr	r3, [pc, #616]	; (800232c <buzzer_play_mario+0x31c>)
 80020c4:	f7fe faa0 	bl	8000608 <__aeabi_dmul>
 80020c8:	4603      	mov	r3, r0
 80020ca:	460c      	mov	r4, r1
 80020cc:	4618      	mov	r0, r3
 80020ce:	4621      	mov	r1, r4
 80020d0:	f04f 0200 	mov.w	r2, #0
 80020d4:	4b97      	ldr	r3, [pc, #604]	; (8002334 <buzzer_play_mario+0x324>)
 80020d6:	f7fe fa97 	bl	8000608 <__aeabi_dmul>
 80020da:	4603      	mov	r3, r0
 80020dc:	460c      	mov	r4, r1
 80020de:	4618      	mov	r0, r3
 80020e0:	4621      	mov	r1, r4
 80020e2:	f7fe fd41 	bl	8000b68 <__aeabi_d2iz>
 80020e6:	4603      	mov	r3, r0
 80020e8:	627b      	str	r3, [r7, #36]	; 0x24
	int32_t eighth_dot=(double)60/bpm*1000*0.5*1.5;
 80020ea:	6878      	ldr	r0, [r7, #4]
 80020ec:	f7fe fa22 	bl	8000534 <__aeabi_i2d>
 80020f0:	4603      	mov	r3, r0
 80020f2:	460c      	mov	r4, r1
 80020f4:	461a      	mov	r2, r3
 80020f6:	4623      	mov	r3, r4
 80020f8:	f04f 0000 	mov.w	r0, #0
 80020fc:	498a      	ldr	r1, [pc, #552]	; (8002328 <buzzer_play_mario+0x318>)
 80020fe:	f7fe fbad 	bl	800085c <__aeabi_ddiv>
 8002102:	4603      	mov	r3, r0
 8002104:	460c      	mov	r4, r1
 8002106:	4618      	mov	r0, r3
 8002108:	4621      	mov	r1, r4
 800210a:	f04f 0200 	mov.w	r2, #0
 800210e:	4b87      	ldr	r3, [pc, #540]	; (800232c <buzzer_play_mario+0x31c>)
 8002110:	f7fe fa7a 	bl	8000608 <__aeabi_dmul>
 8002114:	4603      	mov	r3, r0
 8002116:	460c      	mov	r4, r1
 8002118:	4618      	mov	r0, r3
 800211a:	4621      	mov	r1, r4
 800211c:	f04f 0200 	mov.w	r2, #0
 8002120:	4b84      	ldr	r3, [pc, #528]	; (8002334 <buzzer_play_mario+0x324>)
 8002122:	f7fe fa71 	bl	8000608 <__aeabi_dmul>
 8002126:	4603      	mov	r3, r0
 8002128:	460c      	mov	r4, r1
 800212a:	4618      	mov	r0, r3
 800212c:	4621      	mov	r1, r4
 800212e:	f04f 0200 	mov.w	r2, #0
 8002132:	4b7f      	ldr	r3, [pc, #508]	; (8002330 <buzzer_play_mario+0x320>)
 8002134:	f7fe fa68 	bl	8000608 <__aeabi_dmul>
 8002138:	4603      	mov	r3, r0
 800213a:	460c      	mov	r4, r1
 800213c:	4618      	mov	r0, r3
 800213e:	4621      	mov	r1, r4
 8002140:	f7fe fd12 	bl	8000b68 <__aeabi_d2iz>
 8002144:	4603      	mov	r3, r0
 8002146:	623b      	str	r3, [r7, #32]
	int32_t sixteenth=(double)60/bpm*0.25*1000;
 8002148:	6878      	ldr	r0, [r7, #4]
 800214a:	f7fe f9f3 	bl	8000534 <__aeabi_i2d>
 800214e:	4603      	mov	r3, r0
 8002150:	460c      	mov	r4, r1
 8002152:	461a      	mov	r2, r3
 8002154:	4623      	mov	r3, r4
 8002156:	f04f 0000 	mov.w	r0, #0
 800215a:	4973      	ldr	r1, [pc, #460]	; (8002328 <buzzer_play_mario+0x318>)
 800215c:	f7fe fb7e 	bl	800085c <__aeabi_ddiv>
 8002160:	4603      	mov	r3, r0
 8002162:	460c      	mov	r4, r1
 8002164:	4618      	mov	r0, r3
 8002166:	4621      	mov	r1, r4
 8002168:	f04f 0200 	mov.w	r2, #0
 800216c:	4b72      	ldr	r3, [pc, #456]	; (8002338 <buzzer_play_mario+0x328>)
 800216e:	f7fe fa4b 	bl	8000608 <__aeabi_dmul>
 8002172:	4603      	mov	r3, r0
 8002174:	460c      	mov	r4, r1
 8002176:	4618      	mov	r0, r3
 8002178:	4621      	mov	r1, r4
 800217a:	f04f 0200 	mov.w	r2, #0
 800217e:	4b6b      	ldr	r3, [pc, #428]	; (800232c <buzzer_play_mario+0x31c>)
 8002180:	f7fe fa42 	bl	8000608 <__aeabi_dmul>
 8002184:	4603      	mov	r3, r0
 8002186:	460c      	mov	r4, r1
 8002188:	4618      	mov	r0, r3
 800218a:	4621      	mov	r1, r4
 800218c:	f7fe fcec 	bl	8000b68 <__aeabi_d2iz>
 8002190:	4603      	mov	r3, r0
 8002192:	61fb      	str	r3, [r7, #28]
	int32_t sixteenth_dot=(double)60/bpm*0.25*1000*1.5;
 8002194:	6878      	ldr	r0, [r7, #4]
 8002196:	f7fe f9cd 	bl	8000534 <__aeabi_i2d>
 800219a:	4603      	mov	r3, r0
 800219c:	460c      	mov	r4, r1
 800219e:	461a      	mov	r2, r3
 80021a0:	4623      	mov	r3, r4
 80021a2:	f04f 0000 	mov.w	r0, #0
 80021a6:	4960      	ldr	r1, [pc, #384]	; (8002328 <buzzer_play_mario+0x318>)
 80021a8:	f7fe fb58 	bl	800085c <__aeabi_ddiv>
 80021ac:	4603      	mov	r3, r0
 80021ae:	460c      	mov	r4, r1
 80021b0:	4618      	mov	r0, r3
 80021b2:	4621      	mov	r1, r4
 80021b4:	f04f 0200 	mov.w	r2, #0
 80021b8:	4b5f      	ldr	r3, [pc, #380]	; (8002338 <buzzer_play_mario+0x328>)
 80021ba:	f7fe fa25 	bl	8000608 <__aeabi_dmul>
 80021be:	4603      	mov	r3, r0
 80021c0:	460c      	mov	r4, r1
 80021c2:	4618      	mov	r0, r3
 80021c4:	4621      	mov	r1, r4
 80021c6:	f04f 0200 	mov.w	r2, #0
 80021ca:	4b58      	ldr	r3, [pc, #352]	; (800232c <buzzer_play_mario+0x31c>)
 80021cc:	f7fe fa1c 	bl	8000608 <__aeabi_dmul>
 80021d0:	4603      	mov	r3, r0
 80021d2:	460c      	mov	r4, r1
 80021d4:	4618      	mov	r0, r3
 80021d6:	4621      	mov	r1, r4
 80021d8:	f04f 0200 	mov.w	r2, #0
 80021dc:	4b54      	ldr	r3, [pc, #336]	; (8002330 <buzzer_play_mario+0x320>)
 80021de:	f7fe fa13 	bl	8000608 <__aeabi_dmul>
 80021e2:	4603      	mov	r3, r0
 80021e4:	460c      	mov	r4, r1
 80021e6:	4618      	mov	r0, r3
 80021e8:	4621      	mov	r1, r4
 80021ea:	f7fe fcbd 	bl	8000b68 <__aeabi_d2iz>
 80021ee:	4603      	mov	r3, r0
 80021f0:	61bb      	str	r3, [r7, #24]
	int32_t half=(double)60/bpm*2*1000;
 80021f2:	6878      	ldr	r0, [r7, #4]
 80021f4:	f7fe f99e 	bl	8000534 <__aeabi_i2d>
 80021f8:	4603      	mov	r3, r0
 80021fa:	460c      	mov	r4, r1
 80021fc:	461a      	mov	r2, r3
 80021fe:	4623      	mov	r3, r4
 8002200:	f04f 0000 	mov.w	r0, #0
 8002204:	4948      	ldr	r1, [pc, #288]	; (8002328 <buzzer_play_mario+0x318>)
 8002206:	f7fe fb29 	bl	800085c <__aeabi_ddiv>
 800220a:	4603      	mov	r3, r0
 800220c:	460c      	mov	r4, r1
 800220e:	4618      	mov	r0, r3
 8002210:	4621      	mov	r1, r4
 8002212:	4602      	mov	r2, r0
 8002214:	460b      	mov	r3, r1
 8002216:	f7fe f841 	bl	800029c <__adddf3>
 800221a:	4603      	mov	r3, r0
 800221c:	460c      	mov	r4, r1
 800221e:	4618      	mov	r0, r3
 8002220:	4621      	mov	r1, r4
 8002222:	f04f 0200 	mov.w	r2, #0
 8002226:	4b41      	ldr	r3, [pc, #260]	; (800232c <buzzer_play_mario+0x31c>)
 8002228:	f7fe f9ee 	bl	8000608 <__aeabi_dmul>
 800222c:	4603      	mov	r3, r0
 800222e:	460c      	mov	r4, r1
 8002230:	4618      	mov	r0, r3
 8002232:	4621      	mov	r1, r4
 8002234:	f7fe fc98 	bl	8000b68 <__aeabi_d2iz>
 8002238:	4603      	mov	r3, r0
 800223a:	617b      	str	r3, [r7, #20]
	int32_t half_dot=(double)60/bpm*2*1000*1.5;
 800223c:	6878      	ldr	r0, [r7, #4]
 800223e:	f7fe f979 	bl	8000534 <__aeabi_i2d>
 8002242:	4603      	mov	r3, r0
 8002244:	460c      	mov	r4, r1
 8002246:	461a      	mov	r2, r3
 8002248:	4623      	mov	r3, r4
 800224a:	f04f 0000 	mov.w	r0, #0
 800224e:	4936      	ldr	r1, [pc, #216]	; (8002328 <buzzer_play_mario+0x318>)
 8002250:	f7fe fb04 	bl	800085c <__aeabi_ddiv>
 8002254:	4603      	mov	r3, r0
 8002256:	460c      	mov	r4, r1
 8002258:	4618      	mov	r0, r3
 800225a:	4621      	mov	r1, r4
 800225c:	4602      	mov	r2, r0
 800225e:	460b      	mov	r3, r1
 8002260:	f7fe f81c 	bl	800029c <__adddf3>
 8002264:	4603      	mov	r3, r0
 8002266:	460c      	mov	r4, r1
 8002268:	4618      	mov	r0, r3
 800226a:	4621      	mov	r1, r4
 800226c:	f04f 0200 	mov.w	r2, #0
 8002270:	4b2e      	ldr	r3, [pc, #184]	; (800232c <buzzer_play_mario+0x31c>)
 8002272:	f7fe f9c9 	bl	8000608 <__aeabi_dmul>
 8002276:	4603      	mov	r3, r0
 8002278:	460c      	mov	r4, r1
 800227a:	4618      	mov	r0, r3
 800227c:	4621      	mov	r1, r4
 800227e:	f04f 0200 	mov.w	r2, #0
 8002282:	4b2b      	ldr	r3, [pc, #172]	; (8002330 <buzzer_play_mario+0x320>)
 8002284:	f7fe f9c0 	bl	8000608 <__aeabi_dmul>
 8002288:	4603      	mov	r3, r0
 800228a:	460c      	mov	r4, r1
 800228c:	4618      	mov	r0, r3
 800228e:	4621      	mov	r1, r4
 8002290:	f7fe fc6a 	bl	8000b68 <__aeabi_d2iz>
 8002294:	4603      	mov	r3, r0
 8002296:	613b      	str	r3, [r7, #16]
	int32_t whole=(double)60/bpm*4*1000;
 8002298:	6878      	ldr	r0, [r7, #4]
 800229a:	f7fe f94b 	bl	8000534 <__aeabi_i2d>
 800229e:	4603      	mov	r3, r0
 80022a0:	460c      	mov	r4, r1
 80022a2:	461a      	mov	r2, r3
 80022a4:	4623      	mov	r3, r4
 80022a6:	f04f 0000 	mov.w	r0, #0
 80022aa:	491f      	ldr	r1, [pc, #124]	; (8002328 <buzzer_play_mario+0x318>)
 80022ac:	f7fe fad6 	bl	800085c <__aeabi_ddiv>
 80022b0:	4603      	mov	r3, r0
 80022b2:	460c      	mov	r4, r1
 80022b4:	4618      	mov	r0, r3
 80022b6:	4621      	mov	r1, r4
 80022b8:	f04f 0200 	mov.w	r2, #0
 80022bc:	4b1f      	ldr	r3, [pc, #124]	; (800233c <buzzer_play_mario+0x32c>)
 80022be:	f7fe f9a3 	bl	8000608 <__aeabi_dmul>
 80022c2:	4603      	mov	r3, r0
 80022c4:	460c      	mov	r4, r1
 80022c6:	4618      	mov	r0, r3
 80022c8:	4621      	mov	r1, r4
 80022ca:	f04f 0200 	mov.w	r2, #0
 80022ce:	4b17      	ldr	r3, [pc, #92]	; (800232c <buzzer_play_mario+0x31c>)
 80022d0:	f7fe f99a 	bl	8000608 <__aeabi_dmul>
 80022d4:	4603      	mov	r3, r0
 80022d6:	460c      	mov	r4, r1
 80022d8:	4618      	mov	r0, r3
 80022da:	4621      	mov	r1, r4
 80022dc:	f7fe fc44 	bl	8000b68 <__aeabi_d2iz>
 80022e0:	4603      	mov	r3, r0
 80022e2:	60fb      	str	r3, [r7, #12]

	buzzer_play_e1(eighth);
 80022e4:	6a78      	ldr	r0, [r7, #36]	; 0x24
 80022e6:	f7ff fe3f 	bl	8001f68 <buzzer_play_e1>
	buzzer_play_e1(eighth);
 80022ea:	6a78      	ldr	r0, [r7, #36]	; 0x24
 80022ec:	f7ff fe3c 	bl	8001f68 <buzzer_play_e1>
	buzzer_rest(eighth);
 80022f0:	6a78      	ldr	r0, [r7, #36]	; 0x24
 80022f2:	f7ff fe81 	bl	8001ff8 <buzzer_rest>
	buzzer_play_e1(eighth);
 80022f6:	6a78      	ldr	r0, [r7, #36]	; 0x24
 80022f8:	f7ff fe36 	bl	8001f68 <buzzer_play_e1>
	buzzer_rest(eighth);
 80022fc:	6a78      	ldr	r0, [r7, #36]	; 0x24
 80022fe:	f7ff fe7b 	bl	8001ff8 <buzzer_rest>
	buzzer_play_c1(eighth);
 8002302:	6a78      	ldr	r0, [r7, #36]	; 0x24
 8002304:	f7ff fe0c 	bl	8001f20 <buzzer_play_c1>
	buzzer_play_e1(quarter);
 8002308:	6af8      	ldr	r0, [r7, #44]	; 0x2c
 800230a:	f7ff fe2d 	bl	8001f68 <buzzer_play_e1>
	buzzer_play_g1(quarter);
 800230e:	6af8      	ldr	r0, [r7, #44]	; 0x2c
 8002310:	f7ff fe4e 	bl	8001fb0 <buzzer_play_g1>
	buzzer_rest(quarter);
 8002314:	6af8      	ldr	r0, [r7, #44]	; 0x2c
 8002316:	f7ff fe6f 	bl	8001ff8 <buzzer_rest>
	buzzer_play_g0(quarter);
 800231a:	6af8      	ldr	r0, [r7, #44]	; 0x2c
 800231c:	f7ff fddc 	bl	8001ed8 <buzzer_play_g0>


}
 8002320:	bf00      	nop
 8002322:	3734      	adds	r7, #52	; 0x34
 8002324:	46bd      	mov	sp, r7
 8002326:	bd90      	pop	{r4, r7, pc}
 8002328:	404e0000 	.word	0x404e0000
 800232c:	408f4000 	.word	0x408f4000
 8002330:	3ff80000 	.word	0x3ff80000
 8002334:	3fe00000 	.word	0x3fe00000
 8002338:	3fd00000 	.word	0x3fd00000
 800233c:	40100000 	.word	0x40100000

08002340 <MX_CAN1_Init>:

CAN_HandleTypeDef hcan1;

/* CAN1 init function */
void MX_CAN1_Init(void)
{
 8002340:	b580      	push	{r7, lr}
 8002342:	af00      	add	r7, sp, #0

  hcan1.Instance = CAN1;
 8002344:	4b17      	ldr	r3, [pc, #92]	; (80023a4 <MX_CAN1_Init+0x64>)
 8002346:	4a18      	ldr	r2, [pc, #96]	; (80023a8 <MX_CAN1_Init+0x68>)
 8002348:	601a      	str	r2, [r3, #0]
  hcan1.Init.Prescaler = 3;
 800234a:	4b16      	ldr	r3, [pc, #88]	; (80023a4 <MX_CAN1_Init+0x64>)
 800234c:	2203      	movs	r2, #3
 800234e:	605a      	str	r2, [r3, #4]
  hcan1.Init.Mode = CAN_MODE_NORMAL;
 8002350:	4b14      	ldr	r3, [pc, #80]	; (80023a4 <MX_CAN1_Init+0x64>)
 8002352:	2200      	movs	r2, #0
 8002354:	609a      	str	r2, [r3, #8]
  hcan1.Init.SyncJumpWidth = CAN_SJW_1TQ;
 8002356:	4b13      	ldr	r3, [pc, #76]	; (80023a4 <MX_CAN1_Init+0x64>)
 8002358:	2200      	movs	r2, #0
 800235a:	60da      	str	r2, [r3, #12]
  hcan1.Init.TimeSeg1 = CAN_BS1_10TQ;
 800235c:	4b11      	ldr	r3, [pc, #68]	; (80023a4 <MX_CAN1_Init+0x64>)
 800235e:	f44f 2210 	mov.w	r2, #589824	; 0x90000
 8002362:	611a      	str	r2, [r3, #16]
  hcan1.Init.TimeSeg2 = CAN_BS2_3TQ;
 8002364:	4b0f      	ldr	r3, [pc, #60]	; (80023a4 <MX_CAN1_Init+0x64>)
 8002366:	f44f 1200 	mov.w	r2, #2097152	; 0x200000
 800236a:	615a      	str	r2, [r3, #20]
  hcan1.Init.TimeTriggeredMode = DISABLE;
 800236c:	4b0d      	ldr	r3, [pc, #52]	; (80023a4 <MX_CAN1_Init+0x64>)
 800236e:	2200      	movs	r2, #0
 8002370:	761a      	strb	r2, [r3, #24]
  hcan1.Init.AutoBusOff = ENABLE;
 8002372:	4b0c      	ldr	r3, [pc, #48]	; (80023a4 <MX_CAN1_Init+0x64>)
 8002374:	2201      	movs	r2, #1
 8002376:	765a      	strb	r2, [r3, #25]
  hcan1.Init.AutoWakeUp = ENABLE;
 8002378:	4b0a      	ldr	r3, [pc, #40]	; (80023a4 <MX_CAN1_Init+0x64>)
 800237a:	2201      	movs	r2, #1
 800237c:	769a      	strb	r2, [r3, #26]
  hcan1.Init.AutoRetransmission = ENABLE;
 800237e:	4b09      	ldr	r3, [pc, #36]	; (80023a4 <MX_CAN1_Init+0x64>)
 8002380:	2201      	movs	r2, #1
 8002382:	76da      	strb	r2, [r3, #27]
  hcan1.Init.ReceiveFifoLocked = DISABLE;
 8002384:	4b07      	ldr	r3, [pc, #28]	; (80023a4 <MX_CAN1_Init+0x64>)
 8002386:	2200      	movs	r2, #0
 8002388:	771a      	strb	r2, [r3, #28]
  hcan1.Init.TransmitFifoPriority = ENABLE;
 800238a:	4b06      	ldr	r3, [pc, #24]	; (80023a4 <MX_CAN1_Init+0x64>)
 800238c:	2201      	movs	r2, #1
 800238e:	775a      	strb	r2, [r3, #29]
  if (HAL_CAN_Init(&hcan1) != HAL_OK)
 8002390:	4804      	ldr	r0, [pc, #16]	; (80023a4 <MX_CAN1_Init+0x64>)
 8002392:	f001 f8e5 	bl	8003560 <HAL_CAN_Init>
 8002396:	4603      	mov	r3, r0
 8002398:	2b00      	cmp	r3, #0
 800239a:	d001      	beq.n	80023a0 <MX_CAN1_Init+0x60>
  {
    Error_Handler();
 800239c:	f000 fb50 	bl	8002a40 <Error_Handler>
  }

}
 80023a0:	bf00      	nop
 80023a2:	bd80      	pop	{r7, pc}
 80023a4:	200041d0 	.word	0x200041d0
 80023a8:	40006400 	.word	0x40006400

080023ac <HAL_CAN_MspInit>:

void HAL_CAN_MspInit(CAN_HandleTypeDef* canHandle)
{
 80023ac:	b580      	push	{r7, lr}
 80023ae:	b08a      	sub	sp, #40	; 0x28
 80023b0:	af00      	add	r7, sp, #0
 80023b2:	6078      	str	r0, [r7, #4]

  GPIO_InitTypeDef GPIO_InitStruct = {0};
 80023b4:	f107 0314 	add.w	r3, r7, #20
 80023b8:	2200      	movs	r2, #0
 80023ba:	601a      	str	r2, [r3, #0]
 80023bc:	605a      	str	r2, [r3, #4]
 80023be:	609a      	str	r2, [r3, #8]
 80023c0:	60da      	str	r2, [r3, #12]
 80023c2:	611a      	str	r2, [r3, #16]
  if(canHandle->Instance==CAN1)
 80023c4:	687b      	ldr	r3, [r7, #4]
 80023c6:	681b      	ldr	r3, [r3, #0]
 80023c8:	4a21      	ldr	r2, [pc, #132]	; (8002450 <HAL_CAN_MspInit+0xa4>)
 80023ca:	4293      	cmp	r3, r2
 80023cc:	d13b      	bne.n	8002446 <HAL_CAN_MspInit+0x9a>
  {
  /* USER CODE BEGIN CAN1_MspInit 0 */

  /* USER CODE END CAN1_MspInit 0 */
    /* CAN1 clock enable */
    __HAL_RCC_CAN1_CLK_ENABLE();
 80023ce:	2300      	movs	r3, #0
 80023d0:	613b      	str	r3, [r7, #16]
 80023d2:	4b20      	ldr	r3, [pc, #128]	; (8002454 <HAL_CAN_MspInit+0xa8>)
 80023d4:	6c1b      	ldr	r3, [r3, #64]	; 0x40
 80023d6:	4a1f      	ldr	r2, [pc, #124]	; (8002454 <HAL_CAN_MspInit+0xa8>)
 80023d8:	f043 7300 	orr.w	r3, r3, #33554432	; 0x2000000
 80023dc:	6413      	str	r3, [r2, #64]	; 0x40
 80023de:	4b1d      	ldr	r3, [pc, #116]	; (8002454 <HAL_CAN_MspInit+0xa8>)
 80023e0:	6c1b      	ldr	r3, [r3, #64]	; 0x40
 80023e2:	f003 7300 	and.w	r3, r3, #33554432	; 0x2000000
 80023e6:	613b      	str	r3, [r7, #16]
 80023e8:	693b      	ldr	r3, [r7, #16]

    __HAL_RCC_GPIOD_CLK_ENABLE();
 80023ea:	2300      	movs	r3, #0
 80023ec:	60fb      	str	r3, [r7, #12]
 80023ee:	4b19      	ldr	r3, [pc, #100]	; (8002454 <HAL_CAN_MspInit+0xa8>)
 80023f0:	6b1b      	ldr	r3, [r3, #48]	; 0x30
 80023f2:	4a18      	ldr	r2, [pc, #96]	; (8002454 <HAL_CAN_MspInit+0xa8>)
 80023f4:	f043 0308 	orr.w	r3, r3, #8
 80023f8:	6313      	str	r3, [r2, #48]	; 0x30
 80023fa:	4b16      	ldr	r3, [pc, #88]	; (8002454 <HAL_CAN_MspInit+0xa8>)
 80023fc:	6b1b      	ldr	r3, [r3, #48]	; 0x30
 80023fe:	f003 0308 	and.w	r3, r3, #8
 8002402:	60fb      	str	r3, [r7, #12]
 8002404:	68fb      	ldr	r3, [r7, #12]
    /**CAN1 GPIO Configuration
    PD0     ------> CAN1_RX
    PD1     ------> CAN1_TX
    */
    GPIO_InitStruct.Pin = GPIO_PIN_0|GPIO_PIN_1;
 8002406:	2303      	movs	r3, #3
 8002408:	617b      	str	r3, [r7, #20]
    GPIO_InitStruct.Mode = GPIO_MODE_AF_PP;
 800240a:	2302      	movs	r3, #2
 800240c:	61bb      	str	r3, [r7, #24]
    GPIO_InitStruct.Pull = GPIO_NOPULL;
 800240e:	2300      	movs	r3, #0
 8002410:	61fb      	str	r3, [r7, #28]
    GPIO_InitStruct.Speed = GPIO_SPEED_FREQ_VERY_HIGH;
 8002412:	2303      	movs	r3, #3
 8002414:	623b      	str	r3, [r7, #32]
    GPIO_InitStruct.Alternate = GPIO_AF9_CAN1;
 8002416:	2309      	movs	r3, #9
 8002418:	627b      	str	r3, [r7, #36]	; 0x24
    HAL_GPIO_Init(GPIOD, &GPIO_InitStruct);
 800241a:	f107 0314 	add.w	r3, r7, #20
 800241e:	4619      	mov	r1, r3
 8002420:	480d      	ldr	r0, [pc, #52]	; (8002458 <HAL_CAN_MspInit+0xac>)
 8002422:	f001 fffd 	bl	8004420 <HAL_GPIO_Init>

    /* CAN1 interrupt Init */
    HAL_NVIC_SetPriority(CAN1_TX_IRQn, 5, 0);
 8002426:	2200      	movs	r2, #0
 8002428:	2105      	movs	r1, #5
 800242a:	2013      	movs	r0, #19
 800242c:	f001 ffac 	bl	8004388 <HAL_NVIC_SetPriority>
    HAL_NVIC_EnableIRQ(CAN1_TX_IRQn);
 8002430:	2013      	movs	r0, #19
 8002432:	f001 ffc5 	bl	80043c0 <HAL_NVIC_EnableIRQ>
    HAL_NVIC_SetPriority(CAN1_RX0_IRQn, 5, 0);
 8002436:	2200      	movs	r2, #0
 8002438:	2105      	movs	r1, #5
 800243a:	2014      	movs	r0, #20
 800243c:	f001 ffa4 	bl	8004388 <HAL_NVIC_SetPriority>
    HAL_NVIC_EnableIRQ(CAN1_RX0_IRQn);
 8002440:	2014      	movs	r0, #20
 8002442:	f001 ffbd 	bl	80043c0 <HAL_NVIC_EnableIRQ>
  /* USER CODE BEGIN CAN1_MspInit 1 */

  /* USER CODE END CAN1_MspInit 1 */
  }
}
 8002446:	bf00      	nop
 8002448:	3728      	adds	r7, #40	; 0x28
 800244a:	46bd      	mov	sp, r7
 800244c:	bd80      	pop	{r7, pc}
 800244e:	bf00      	nop
 8002450:	40006400 	.word	0x40006400
 8002454:	40023800 	.word	0x40023800
 8002458:	40020c00 	.word	0x40020c00

0800245c <can_filter_enable>:
  }
}

/* USER CODE BEGIN 1 */

void can_filter_enable(CAN_HandleTypeDef* hcan){
 800245c:	b580      	push	{r7, lr}
 800245e:	b08c      	sub	sp, #48	; 0x30
 8002460:	af00      	add	r7, sp, #0
 8002462:	6078      	str	r0, [r7, #4]
	CAN_FilterTypeDef CAN_FilterConfigStructure;

	CAN_FilterConfigStructure.FilterIdHigh = 0x0000;
 8002464:	2300      	movs	r3, #0
 8002466:	60bb      	str	r3, [r7, #8]
	CAN_FilterConfigStructure.FilterIdLow = 0x0000;
 8002468:	2300      	movs	r3, #0
 800246a:	60fb      	str	r3, [r7, #12]
	CAN_FilterConfigStructure.FilterMaskIdHigh = 0x0000;
 800246c:	2300      	movs	r3, #0
 800246e:	613b      	str	r3, [r7, #16]
	CAN_FilterConfigStructure.FilterMaskIdLow = 0x0000;
 8002470:	2300      	movs	r3, #0
 8002472:	617b      	str	r3, [r7, #20]
	CAN_FilterConfigStructure.FilterFIFOAssignment = CAN_FILTER_FIFO0;
 8002474:	2300      	movs	r3, #0
 8002476:	61bb      	str	r3, [r7, #24]
	CAN_FilterConfigStructure.FilterMode = CAN_FILTERMODE_IDMASK;
 8002478:	2300      	movs	r3, #0
 800247a:	623b      	str	r3, [r7, #32]
	CAN_FilterConfigStructure.FilterScale = CAN_FILTERSCALE_32BIT;
 800247c:	2301      	movs	r3, #1
 800247e:	627b      	str	r3, [r7, #36]	; 0x24
	CAN_FilterConfigStructure.FilterActivation = ENABLE;
 8002480:	2301      	movs	r3, #1
 8002482:	62bb      	str	r3, [r7, #40]	; 0x28
	CAN_FilterConfigStructure.SlaveStartFilterBank = 27;
 8002484:	231b      	movs	r3, #27
 8002486:	62fb      	str	r3, [r7, #44]	; 0x2c

	CAN_FilterConfigStructure.FilterBank = 0;
 8002488:	2300      	movs	r3, #0
 800248a:	61fb      	str	r3, [r7, #28]

	HAL_CAN_ConfigFilter(hcan, &CAN_FilterConfigStructure);
 800248c:	f107 0308 	add.w	r3, r7, #8
 8002490:	4619      	mov	r1, r3
 8002492:	6878      	ldr	r0, [r7, #4]
 8002494:	f001 f960 	bl	8003758 <HAL_CAN_ConfigFilter>
}
 8002498:	bf00      	nop
 800249a:	3730      	adds	r7, #48	; 0x30
 800249c:	46bd      	mov	sp, r7
 800249e:	bd80      	pop	{r7, pc}

080024a0 <can_filter_disable>:



void can_filter_disable(CAN_HandleTypeDef* hcan){
 80024a0:	b580      	push	{r7, lr}
 80024a2:	b08c      	sub	sp, #48	; 0x30
 80024a4:	af00      	add	r7, sp, #0
 80024a6:	6078      	str	r0, [r7, #4]
	CAN_FilterTypeDef CAN_FilterConfigStructure;

	CAN_FilterConfigStructure.FilterIdHigh = 0x0000;
 80024a8:	2300      	movs	r3, #0
 80024aa:	60bb      	str	r3, [r7, #8]
	CAN_FilterConfigStructure.FilterIdLow = 0x0000;
 80024ac:	2300      	movs	r3, #0
 80024ae:	60fb      	str	r3, [r7, #12]
	CAN_FilterConfigStructure.FilterMaskIdHigh = 0x0000;
 80024b0:	2300      	movs	r3, #0
 80024b2:	613b      	str	r3, [r7, #16]
	CAN_FilterConfigStructure.FilterMaskIdLow = 0x0000;
 80024b4:	2300      	movs	r3, #0
 80024b6:	617b      	str	r3, [r7, #20]
	CAN_FilterConfigStructure.FilterFIFOAssignment = CAN_FILTER_FIFO0;
 80024b8:	2300      	movs	r3, #0
 80024ba:	61bb      	str	r3, [r7, #24]
	CAN_FilterConfigStructure.FilterMode = CAN_FILTERMODE_IDMASK;
 80024bc:	2300      	movs	r3, #0
 80024be:	623b      	str	r3, [r7, #32]
	CAN_FilterConfigStructure.FilterScale = CAN_FILTERSCALE_32BIT;
 80024c0:	2301      	movs	r3, #1
 80024c2:	627b      	str	r3, [r7, #36]	; 0x24
	CAN_FilterConfigStructure.FilterActivation = DISABLE;
 80024c4:	2300      	movs	r3, #0
 80024c6:	62bb      	str	r3, [r7, #40]	; 0x28
	CAN_FilterConfigStructure.SlaveStartFilterBank = 27;
 80024c8:	231b      	movs	r3, #27
 80024ca:	62fb      	str	r3, [r7, #44]	; 0x2c

	CAN_FilterConfigStructure.FilterBank = 0;
 80024cc:	2300      	movs	r3, #0
 80024ce:	61fb      	str	r3, [r7, #28]

	HAL_CAN_ConfigFilter(hcan, &CAN_FilterConfigStructure);
 80024d0:	f107 0308 	add.w	r3, r7, #8
 80024d4:	4619      	mov	r1, r3
 80024d6:	6878      	ldr	r0, [r7, #4]
 80024d8:	f001 f93e 	bl	8003758 <HAL_CAN_ConfigFilter>
}
 80024dc:	bf00      	nop
 80024de:	3730      	adds	r7, #48	; 0x30
 80024e0:	46bd      	mov	sp, r7
 80024e2:	bd80      	pop	{r7, pc}

080024e4 <HAL_CAN_RxFifo0MsgPendingCallback>:
 * The StdId is obtained from the can message, then it is written into the buffer array (it is an array of arrays)
 * To figure out which motor it is for the read/write functions, we will refer to a table - see notes from March 25, 2021
 * There may be a better table later

*/
void HAL_CAN_RxFifo0MsgPendingCallback(CAN_HandleTypeDef *hcan){
 80024e4:	b580      	push	{r7, lr}
 80024e6:	b08a      	sub	sp, #40	; 0x28
 80024e8:	af00      	add	r7, sp, #0
 80024ea:	6078      	str	r0, [r7, #4]
	CAN_RxHeaderTypeDef rx_header;
	rx_header.StdId = (CAN_RI0R_STID & hcan->Instance->sFIFOMailBox[CAN_RX_FIFO0].RIR) >> CAN_TI0R_STID_Pos;
 80024ec:	687b      	ldr	r3, [r7, #4]
 80024ee:	681b      	ldr	r3, [r3, #0]
 80024f0:	f8d3 31b0 	ldr.w	r3, [r3, #432]	; 0x1b0
 80024f4:	0d5b      	lsrs	r3, r3, #21
 80024f6:	f3c3 030a 	ubfx	r3, r3, #0, #11
 80024fa:	60bb      	str	r3, [r7, #8]
	uint8_t idx=rx_header.StdId-CAN_RX_ID_START;
 80024fc:	68bb      	ldr	r3, [r7, #8]
 80024fe:	b2db      	uxtb	r3, r3
 8002500:	3b01      	subs	r3, #1
 8002502:	f887 3027 	strb.w	r3, [r7, #39]	; 0x27
	HAL_CAN_GetRxMessage(hcan, CAN_RX_FIFO0, &rx_header, can_rx_buffer[idx]);
 8002506:	f897 3027 	ldrb.w	r3, [r7, #39]	; 0x27
 800250a:	00db      	lsls	r3, r3, #3
 800250c:	4a05      	ldr	r2, [pc, #20]	; (8002524 <HAL_CAN_RxFifo0MsgPendingCallback+0x40>)
 800250e:	4413      	add	r3, r2
 8002510:	f107 0208 	add.w	r2, r7, #8
 8002514:	2100      	movs	r1, #0
 8002516:	6878      	ldr	r0, [r7, #4]
 8002518:	f001 fb1d 	bl	8003b56 <HAL_CAN_GetRxMessage>
}
 800251c:	bf00      	nop
 800251e:	3728      	adds	r7, #40	; 0x28
 8002520:	46bd      	mov	sp, r7
 8002522:	bd80      	pop	{r7, pc}
 8002524:	200041f8 	.word	0x200041f8

08002528 <vApplicationGetIdleTaskMemory>:
/* USER CODE BEGIN GET_IDLE_TASK_MEMORY */
static StaticTask_t xIdleTaskTCBBuffer;
static StackType_t xIdleStack[configMINIMAL_STACK_SIZE];

void vApplicationGetIdleTaskMemory( StaticTask_t **ppxIdleTaskTCBBuffer, StackType_t **ppxIdleTaskStackBuffer, uint32_t *pulIdleTaskStackSize )
{
 8002528:	b480      	push	{r7}
 800252a:	b085      	sub	sp, #20
 800252c:	af00      	add	r7, sp, #0
 800252e:	60f8      	str	r0, [r7, #12]
 8002530:	60b9      	str	r1, [r7, #8]
 8002532:	607a      	str	r2, [r7, #4]
  *ppxIdleTaskTCBBuffer = &xIdleTaskTCBBuffer;
 8002534:	68fb      	ldr	r3, [r7, #12]
 8002536:	4a07      	ldr	r2, [pc, #28]	; (8002554 <vApplicationGetIdleTaskMemory+0x2c>)
 8002538:	601a      	str	r2, [r3, #0]
  *ppxIdleTaskStackBuffer = &xIdleStack[0];
 800253a:	68bb      	ldr	r3, [r7, #8]
 800253c:	4a06      	ldr	r2, [pc, #24]	; (8002558 <vApplicationGetIdleTaskMemory+0x30>)
 800253e:	601a      	str	r2, [r3, #0]
  *pulIdleTaskStackSize = configMINIMAL_STACK_SIZE;
 8002540:	687b      	ldr	r3, [r7, #4]
 8002542:	2280      	movs	r2, #128	; 0x80
 8002544:	601a      	str	r2, [r3, #0]
  /* place for user code */
}
 8002546:	bf00      	nop
 8002548:	3714      	adds	r7, #20
 800254a:	46bd      	mov	sp, r7
 800254c:	f85d 7b04 	ldr.w	r7, [sp], #4
 8002550:	4770      	bx	lr
 8002552:	bf00      	nop
 8002554:	20000094 	.word	0x20000094
 8002558:	200000e8 	.word	0x200000e8

0800255c <MX_FREERTOS_Init>:
/**
  * @brief  FreeRTOS initialization
  * @param  None
  * @retval None
  */
void MX_FREERTOS_Init(void) {
 800255c:	b5b0      	push	{r4, r5, r7, lr}
 800255e:	b0a8      	sub	sp, #160	; 0xa0
 8002560:	af00      	add	r7, sp, #0
  /* add queues, ... */
  /* USER CODE END RTOS_QUEUES */

  /* Create the thread(s) */
  /* definition and creation of defaultTask */
  osThreadDef(defaultTask, StartDefaultTask, osPriorityIdle, 0, 128);
 8002562:	4b2e      	ldr	r3, [pc, #184]	; (800261c <MX_FREERTOS_Init+0xc0>)
 8002564:	f107 0474 	add.w	r4, r7, #116	; 0x74
 8002568:	461d      	mov	r5, r3
 800256a:	cd0f      	ldmia	r5!, {r0, r1, r2, r3}
 800256c:	c40f      	stmia	r4!, {r0, r1, r2, r3}
 800256e:	e895 0007 	ldmia.w	r5, {r0, r1, r2}
 8002572:	e884 0007 	stmia.w	r4, {r0, r1, r2}
  defaultTaskHandle = osThreadCreate(osThread(defaultTask), NULL);
 8002576:	f107 0374 	add.w	r3, r7, #116	; 0x74
 800257a:	2100      	movs	r1, #0
 800257c:	4618      	mov	r0, r3
 800257e:	f004 fabe 	bl	8006afe <osThreadCreate>
 8002582:	4602      	mov	r2, r0
 8002584:	4b26      	ldr	r3, [pc, #152]	; (8002620 <MX_FREERTOS_Init+0xc4>)
 8002586:	601a      	str	r2, [r3, #0]

  /* USER CODE BEGIN RTOS_THREADS */
  	osThreadDef(ChassisTask, Chassis_Task_Func, osPriorityNormal, 0, 128);
 8002588:	4b26      	ldr	r3, [pc, #152]	; (8002624 <MX_FREERTOS_Init+0xc8>)
 800258a:	f107 0458 	add.w	r4, r7, #88	; 0x58
 800258e:	461d      	mov	r5, r3
 8002590:	cd0f      	ldmia	r5!, {r0, r1, r2, r3}
 8002592:	c40f      	stmia	r4!, {r0, r1, r2, r3}
 8002594:	e895 0007 	ldmia.w	r5, {r0, r1, r2}
 8002598:	e884 0007 	stmia.w	r4, {r0, r1, r2}
    ChassisTaskHandle = osThreadCreate(osThread(ChassisTask), NULL);
 800259c:	f107 0358 	add.w	r3, r7, #88	; 0x58
 80025a0:	2100      	movs	r1, #0
 80025a2:	4618      	mov	r0, r3
 80025a4:	f004 faab 	bl	8006afe <osThreadCreate>
 80025a8:	f8c7 009c 	str.w	r0, [r7, #156]	; 0x9c

    osThreadDef(GimbalTask, Gimbal_Task_Function, osPriorityNormal, 0, 128);
 80025ac:	4b1e      	ldr	r3, [pc, #120]	; (8002628 <MX_FREERTOS_Init+0xcc>)
 80025ae:	f107 043c 	add.w	r4, r7, #60	; 0x3c
 80025b2:	461d      	mov	r5, r3
 80025b4:	cd0f      	ldmia	r5!, {r0, r1, r2, r3}
 80025b6:	c40f      	stmia	r4!, {r0, r1, r2, r3}
 80025b8:	e895 0007 	ldmia.w	r5, {r0, r1, r2}
 80025bc:	e884 0007 	stmia.w	r4, {r0, r1, r2}
    GimbalTaskHandle = osThreadCreate(osThread(GimbalTask), NULL);
 80025c0:	f107 033c 	add.w	r3, r7, #60	; 0x3c
 80025c4:	2100      	movs	r1, #0
 80025c6:	4618      	mov	r0, r3
 80025c8:	f004 fa99 	bl	8006afe <osThreadCreate>
 80025cc:	f8c7 0098 	str.w	r0, [r7, #152]	; 0x98

    osThreadDef(ShootTask, Shoot_Task_Func, osPriorityNormal, 0, 128);
 80025d0:	4b16      	ldr	r3, [pc, #88]	; (800262c <MX_FREERTOS_Init+0xd0>)
 80025d2:	f107 0420 	add.w	r4, r7, #32
 80025d6:	461d      	mov	r5, r3
 80025d8:	cd0f      	ldmia	r5!, {r0, r1, r2, r3}
 80025da:	c40f      	stmia	r4!, {r0, r1, r2, r3}
 80025dc:	e895 0007 	ldmia.w	r5, {r0, r1, r2}
 80025e0:	e884 0007 	stmia.w	r4, {r0, r1, r2}
    ShootTaskHandle = osThreadCreate(osThread(ShootTask), NULL);
 80025e4:	f107 0320 	add.w	r3, r7, #32
 80025e8:	2100      	movs	r1, #0
 80025ea:	4618      	mov	r0, r3
 80025ec:	f004 fa87 	bl	8006afe <osThreadCreate>
 80025f0:	f8c7 0094 	str.w	r0, [r7, #148]	; 0x94

    osThreadDef(TimerTask, Timer_Task_Func, osPriorityAboveNormal, 0, 128);
 80025f4:	4b0e      	ldr	r3, [pc, #56]	; (8002630 <MX_FREERTOS_Init+0xd4>)
 80025f6:	1d3c      	adds	r4, r7, #4
 80025f8:	461d      	mov	r5, r3
 80025fa:	cd0f      	ldmia	r5!, {r0, r1, r2, r3}
 80025fc:	c40f      	stmia	r4!, {r0, r1, r2, r3}
 80025fe:	e895 0007 	ldmia.w	r5, {r0, r1, r2}
 8002602:	e884 0007 	stmia.w	r4, {r0, r1, r2}
    TimerTaskHandle = osThreadCreate(osThread(TimerTask), NULL);
 8002606:	1d3b      	adds	r3, r7, #4
 8002608:	2100      	movs	r1, #0
 800260a:	4618      	mov	r0, r3
 800260c:	f004 fa77 	bl	8006afe <osThreadCreate>
 8002610:	f8c7 0090 	str.w	r0, [r7, #144]	; 0x90
  /* add threads, ... */
  /* USER CODE END RTOS_THREADS */

}
 8002614:	bf00      	nop
 8002616:	37a0      	adds	r7, #160	; 0xa0
 8002618:	46bd      	mov	sp, r7
 800261a:	bdb0      	pop	{r4, r5, r7, pc}
 800261c:	08009f70 	.word	0x08009f70
 8002620:	20004330 	.word	0x20004330
 8002624:	08009f98 	.word	0x08009f98
 8002628:	08009fc0 	.word	0x08009fc0
 800262c:	08009fe8 	.word	0x08009fe8
 8002630:	0800a010 	.word	0x0800a010

08002634 <StartDefaultTask>:
  * @param  argument: Not used
  * @retval None
  */
/* USER CODE END Header_StartDefaultTask */
void StartDefaultTask(void const * argument)
{
 8002634:	b580      	push	{r7, lr}
 8002636:	b082      	sub	sp, #8
 8002638:	af00      	add	r7, sp, #0
 800263a:	6078      	str	r0, [r7, #4]
  /* USER CODE BEGIN StartDefaultTask */
  /* Infinite loop */
  for(;;)
  {
    osDelay(1);
 800263c:	2001      	movs	r0, #1
 800263e:	f004 faaa 	bl	8006b96 <osDelay>
 8002642:	e7fb      	b.n	800263c <StartDefaultTask+0x8>

08002644 <MX_GPIO_Init>:
        * Output
        * EVENT_OUT
        * EXTI
*/
void MX_GPIO_Init(void)
{
 8002644:	b580      	push	{r7, lr}
 8002646:	b08c      	sub	sp, #48	; 0x30
 8002648:	af00      	add	r7, sp, #0

  GPIO_InitTypeDef GPIO_InitStruct = {0};
 800264a:	f107 031c 	add.w	r3, r7, #28
 800264e:	2200      	movs	r2, #0
 8002650:	601a      	str	r2, [r3, #0]
 8002652:	605a      	str	r2, [r3, #4]
 8002654:	609a      	str	r2, [r3, #8]
 8002656:	60da      	str	r2, [r3, #12]
 8002658:	611a      	str	r2, [r3, #16]

  /* GPIO Ports Clock Enable */
  __HAL_RCC_GPIOA_CLK_ENABLE();
 800265a:	2300      	movs	r3, #0
 800265c:	61bb      	str	r3, [r7, #24]
 800265e:	4b74      	ldr	r3, [pc, #464]	; (8002830 <MX_GPIO_Init+0x1ec>)
 8002660:	6b1b      	ldr	r3, [r3, #48]	; 0x30
 8002662:	4a73      	ldr	r2, [pc, #460]	; (8002830 <MX_GPIO_Init+0x1ec>)
 8002664:	f043 0301 	orr.w	r3, r3, #1
 8002668:	6313      	str	r3, [r2, #48]	; 0x30
 800266a:	4b71      	ldr	r3, [pc, #452]	; (8002830 <MX_GPIO_Init+0x1ec>)
 800266c:	6b1b      	ldr	r3, [r3, #48]	; 0x30
 800266e:	f003 0301 	and.w	r3, r3, #1
 8002672:	61bb      	str	r3, [r7, #24]
 8002674:	69bb      	ldr	r3, [r7, #24]
  __HAL_RCC_GPIOE_CLK_ENABLE();
 8002676:	2300      	movs	r3, #0
 8002678:	617b      	str	r3, [r7, #20]
 800267a:	4b6d      	ldr	r3, [pc, #436]	; (8002830 <MX_GPIO_Init+0x1ec>)
 800267c:	6b1b      	ldr	r3, [r3, #48]	; 0x30
 800267e:	4a6c      	ldr	r2, [pc, #432]	; (8002830 <MX_GPIO_Init+0x1ec>)
 8002680:	f043 0310 	orr.w	r3, r3, #16
 8002684:	6313      	str	r3, [r2, #48]	; 0x30
 8002686:	4b6a      	ldr	r3, [pc, #424]	; (8002830 <MX_GPIO_Init+0x1ec>)
 8002688:	6b1b      	ldr	r3, [r3, #48]	; 0x30
 800268a:	f003 0310 	and.w	r3, r3, #16
 800268e:	617b      	str	r3, [r7, #20]
 8002690:	697b      	ldr	r3, [r7, #20]
  __HAL_RCC_GPIOD_CLK_ENABLE();
 8002692:	2300      	movs	r3, #0
 8002694:	613b      	str	r3, [r7, #16]
 8002696:	4b66      	ldr	r3, [pc, #408]	; (8002830 <MX_GPIO_Init+0x1ec>)
 8002698:	6b1b      	ldr	r3, [r3, #48]	; 0x30
 800269a:	4a65      	ldr	r2, [pc, #404]	; (8002830 <MX_GPIO_Init+0x1ec>)
 800269c:	f043 0308 	orr.w	r3, r3, #8
 80026a0:	6313      	str	r3, [r2, #48]	; 0x30
 80026a2:	4b63      	ldr	r3, [pc, #396]	; (8002830 <MX_GPIO_Init+0x1ec>)
 80026a4:	6b1b      	ldr	r3, [r3, #48]	; 0x30
 80026a6:	f003 0308 	and.w	r3, r3, #8
 80026aa:	613b      	str	r3, [r7, #16]
 80026ac:	693b      	ldr	r3, [r7, #16]
  __HAL_RCC_GPIOH_CLK_ENABLE();
 80026ae:	2300      	movs	r3, #0
 80026b0:	60fb      	str	r3, [r7, #12]
 80026b2:	4b5f      	ldr	r3, [pc, #380]	; (8002830 <MX_GPIO_Init+0x1ec>)
 80026b4:	6b1b      	ldr	r3, [r3, #48]	; 0x30
 80026b6:	4a5e      	ldr	r2, [pc, #376]	; (8002830 <MX_GPIO_Init+0x1ec>)
 80026b8:	f043 0380 	orr.w	r3, r3, #128	; 0x80
 80026bc:	6313      	str	r3, [r2, #48]	; 0x30
 80026be:	4b5c      	ldr	r3, [pc, #368]	; (8002830 <MX_GPIO_Init+0x1ec>)
 80026c0:	6b1b      	ldr	r3, [r3, #48]	; 0x30
 80026c2:	f003 0380 	and.w	r3, r3, #128	; 0x80
 80026c6:	60fb      	str	r3, [r7, #12]
 80026c8:	68fb      	ldr	r3, [r7, #12]
  __HAL_RCC_GPIOG_CLK_ENABLE();
 80026ca:	2300      	movs	r3, #0
 80026cc:	60bb      	str	r3, [r7, #8]
 80026ce:	4b58      	ldr	r3, [pc, #352]	; (8002830 <MX_GPIO_Init+0x1ec>)
 80026d0:	6b1b      	ldr	r3, [r3, #48]	; 0x30
 80026d2:	4a57      	ldr	r2, [pc, #348]	; (8002830 <MX_GPIO_Init+0x1ec>)
 80026d4:	f043 0340 	orr.w	r3, r3, #64	; 0x40
 80026d8:	6313      	str	r3, [r2, #48]	; 0x30
 80026da:	4b55      	ldr	r3, [pc, #340]	; (8002830 <MX_GPIO_Init+0x1ec>)
 80026dc:	6b1b      	ldr	r3, [r3, #48]	; 0x30
 80026de:	f003 0340 	and.w	r3, r3, #64	; 0x40
 80026e2:	60bb      	str	r3, [r7, #8]
 80026e4:	68bb      	ldr	r3, [r7, #8]
  __HAL_RCC_GPIOF_CLK_ENABLE();
 80026e6:	2300      	movs	r3, #0
 80026e8:	607b      	str	r3, [r7, #4]
 80026ea:	4b51      	ldr	r3, [pc, #324]	; (8002830 <MX_GPIO_Init+0x1ec>)
 80026ec:	6b1b      	ldr	r3, [r3, #48]	; 0x30
 80026ee:	4a50      	ldr	r2, [pc, #320]	; (8002830 <MX_GPIO_Init+0x1ec>)
 80026f0:	f043 0320 	orr.w	r3, r3, #32
 80026f4:	6313      	str	r3, [r2, #48]	; 0x30
 80026f6:	4b4e      	ldr	r3, [pc, #312]	; (8002830 <MX_GPIO_Init+0x1ec>)
 80026f8:	6b1b      	ldr	r3, [r3, #48]	; 0x30
 80026fa:	f003 0320 	and.w	r3, r3, #32
 80026fe:	607b      	str	r3, [r7, #4]
 8002700:	687b      	ldr	r3, [r7, #4]
  __HAL_RCC_GPIOB_CLK_ENABLE();
 8002702:	2300      	movs	r3, #0
 8002704:	603b      	str	r3, [r7, #0]
 8002706:	4b4a      	ldr	r3, [pc, #296]	; (8002830 <MX_GPIO_Init+0x1ec>)
 8002708:	6b1b      	ldr	r3, [r3, #48]	; 0x30
 800270a:	4a49      	ldr	r2, [pc, #292]	; (8002830 <MX_GPIO_Init+0x1ec>)
 800270c:	f043 0302 	orr.w	r3, r3, #2
 8002710:	6313      	str	r3, [r2, #48]	; 0x30
 8002712:	4b47      	ldr	r3, [pc, #284]	; (8002830 <MX_GPIO_Init+0x1ec>)
 8002714:	6b1b      	ldr	r3, [r3, #48]	; 0x30
 8002716:	f003 0302 	and.w	r3, r3, #2
 800271a:	603b      	str	r3, [r7, #0]
 800271c:	683b      	ldr	r3, [r7, #0]

  /*Configure GPIO pin Output Level */
  HAL_GPIO_WritePin(GPIOG, LD_A_Pin|LD_B_Pin|LD_C_Pin|LD_D_Pin, GPIO_PIN_SET);
 800271e:	2201      	movs	r2, #1
 8002720:	f44f 71f0 	mov.w	r1, #480	; 0x1e0
 8002724:	4843      	ldr	r0, [pc, #268]	; (8002834 <MX_GPIO_Init+0x1f0>)
 8002726:	f002 f825 	bl	8004774 <HAL_GPIO_WritePin>

  /*Configure GPIO pin Output Level */
  HAL_GPIO_WritePin(GPIOG, LD_E_Pin|LD_F_Pin|LD_G_Pin|LD_H_Pin, GPIO_PIN_SET);
 800272a:	2201      	movs	r2, #1
 800272c:	211e      	movs	r1, #30
 800272e:	4841      	ldr	r0, [pc, #260]	; (8002834 <MX_GPIO_Init+0x1f0>)
 8002730:	f002 f820 	bl	8004774 <HAL_GPIO_WritePin>

  /*Configure GPIO pin Output Level */
  HAL_GPIO_WritePin(LED_Red_GPIO_Port, LED_Red_Pin, GPIO_PIN_RESET);
 8002734:	2200      	movs	r2, #0
 8002736:	f44f 6100 	mov.w	r1, #2048	; 0x800
 800273a:	483f      	ldr	r0, [pc, #252]	; (8002838 <MX_GPIO_Init+0x1f4>)
 800273c:	f002 f81a 	bl	8004774 <HAL_GPIO_WritePin>

  /*Configure GPIO pin Output Level */
  HAL_GPIO_WritePin(LED_Green_GPIO_Port, LED_Green_Pin, GPIO_PIN_RESET);
 8002740:	2200      	movs	r2, #0
 8002742:	f44f 4180 	mov.w	r1, #16384	; 0x4000
 8002746:	483d      	ldr	r0, [pc, #244]	; (800283c <MX_GPIO_Init+0x1f8>)
 8002748:	f002 f814 	bl	8004774 <HAL_GPIO_WritePin>

  /*Configure GPIO pin : PtPin */
  GPIO_InitStruct.Pin = UltraSound_Trig_Pin;
 800274c:	2320      	movs	r3, #32
 800274e:	61fb      	str	r3, [r7, #28]
  GPIO_InitStruct.Mode = GPIO_MODE_INPUT;
 8002750:	2300      	movs	r3, #0
 8002752:	623b      	str	r3, [r7, #32]
  GPIO_InitStruct.Pull = GPIO_PULLUP;
 8002754:	2301      	movs	r3, #1
 8002756:	627b      	str	r3, [r7, #36]	; 0x24
  HAL_GPIO_Init(UltraSound_Trig_GPIO_Port, &GPIO_InitStruct);
 8002758:	f107 031c 	add.w	r3, r7, #28
 800275c:	4619      	mov	r1, r3
 800275e:	4836      	ldr	r0, [pc, #216]	; (8002838 <MX_GPIO_Init+0x1f4>)
 8002760:	f001 fe5e 	bl	8004420 <HAL_GPIO_Init>

  /*Configure GPIO pins : PGPin PGPin PGPin PGPin
                           PGPin PGPin PGPin PGPin */
  GPIO_InitStruct.Pin = LD_A_Pin|LD_B_Pin|LD_C_Pin|LD_D_Pin
 8002764:	f44f 73ff 	mov.w	r3, #510	; 0x1fe
 8002768:	61fb      	str	r3, [r7, #28]
                          |LD_E_Pin|LD_F_Pin|LD_G_Pin|LD_H_Pin;
  GPIO_InitStruct.Mode = GPIO_MODE_OUTPUT_PP;
 800276a:	2301      	movs	r3, #1
 800276c:	623b      	str	r3, [r7, #32]
  GPIO_InitStruct.Pull = GPIO_NOPULL;
 800276e:	2300      	movs	r3, #0
 8002770:	627b      	str	r3, [r7, #36]	; 0x24
  GPIO_InitStruct.Speed = GPIO_SPEED_FREQ_LOW;
 8002772:	2300      	movs	r3, #0
 8002774:	62bb      	str	r3, [r7, #40]	; 0x28
  HAL_GPIO_Init(GPIOG, &GPIO_InitStruct);
 8002776:	f107 031c 	add.w	r3, r7, #28
 800277a:	4619      	mov	r1, r3
 800277c:	482d      	ldr	r0, [pc, #180]	; (8002834 <MX_GPIO_Init+0x1f0>)
 800277e:	f001 fe4f 	bl	8004420 <HAL_GPIO_Init>

  /*Configure GPIO pin : PtPin */
  GPIO_InitStruct.Pin = UltraSound_Echo_Pin;
 8002782:	f44f 6380 	mov.w	r3, #1024	; 0x400
 8002786:	61fb      	str	r3, [r7, #28]
  GPIO_InitStruct.Mode = GPIO_MODE_INPUT;
 8002788:	2300      	movs	r3, #0
 800278a:	623b      	str	r3, [r7, #32]
  GPIO_InitStruct.Pull = GPIO_PULLUP;
 800278c:	2301      	movs	r3, #1
 800278e:	627b      	str	r3, [r7, #36]	; 0x24
  HAL_GPIO_Init(UltraSound_Echo_GPIO_Port, &GPIO_InitStruct);
 8002790:	f107 031c 	add.w	r3, r7, #28
 8002794:	4619      	mov	r1, r3
 8002796:	4829      	ldr	r0, [pc, #164]	; (800283c <MX_GPIO_Init+0x1f8>)
 8002798:	f001 fe42 	bl	8004420 <HAL_GPIO_Init>

  /*Configure GPIO pin : PtPin */
  GPIO_InitStruct.Pin = Button_Pin;
 800279c:	2304      	movs	r3, #4
 800279e:	61fb      	str	r3, [r7, #28]
  GPIO_InitStruct.Mode = GPIO_MODE_IT_RISING;
 80027a0:	4b27      	ldr	r3, [pc, #156]	; (8002840 <MX_GPIO_Init+0x1fc>)
 80027a2:	623b      	str	r3, [r7, #32]
  GPIO_InitStruct.Pull = GPIO_NOPULL;
 80027a4:	2300      	movs	r3, #0
 80027a6:	627b      	str	r3, [r7, #36]	; 0x24
  HAL_GPIO_Init(Button_GPIO_Port, &GPIO_InitStruct);
 80027a8:	f107 031c 	add.w	r3, r7, #28
 80027ac:	4619      	mov	r1, r3
 80027ae:	4825      	ldr	r0, [pc, #148]	; (8002844 <MX_GPIO_Init+0x200>)
 80027b0:	f001 fe36 	bl	8004420 <HAL_GPIO_Init>

  /*Configure GPIO pin : PtPin */
  GPIO_InitStruct.Pin = LED_Red_Pin;
 80027b4:	f44f 6300 	mov.w	r3, #2048	; 0x800
 80027b8:	61fb      	str	r3, [r7, #28]
  GPIO_InitStruct.Mode = GPIO_MODE_OUTPUT_PP;
 80027ba:	2301      	movs	r3, #1
 80027bc:	623b      	str	r3, [r7, #32]
  GPIO_InitStruct.Pull = GPIO_NOPULL;
 80027be:	2300      	movs	r3, #0
 80027c0:	627b      	str	r3, [r7, #36]	; 0x24
  GPIO_InitStruct.Speed = GPIO_SPEED_FREQ_LOW;
 80027c2:	2300      	movs	r3, #0
 80027c4:	62bb      	str	r3, [r7, #40]	; 0x28
  HAL_GPIO_Init(LED_Red_GPIO_Port, &GPIO_InitStruct);
 80027c6:	f107 031c 	add.w	r3, r7, #28
 80027ca:	4619      	mov	r1, r3
 80027cc:	481a      	ldr	r0, [pc, #104]	; (8002838 <MX_GPIO_Init+0x1f4>)
 80027ce:	f001 fe27 	bl	8004420 <HAL_GPIO_Init>

  /*Configure GPIO pin : PtPin */
  GPIO_InitStruct.Pin = LED_Green_Pin;
 80027d2:	f44f 4380 	mov.w	r3, #16384	; 0x4000
 80027d6:	61fb      	str	r3, [r7, #28]
  GPIO_InitStruct.Mode = GPIO_MODE_OUTPUT_PP;
 80027d8:	2301      	movs	r3, #1
 80027da:	623b      	str	r3, [r7, #32]
  GPIO_InitStruct.Pull = GPIO_NOPULL;
 80027dc:	2300      	movs	r3, #0
 80027de:	627b      	str	r3, [r7, #36]	; 0x24
  GPIO_InitStruct.Speed = GPIO_SPEED_FREQ_LOW;
 80027e0:	2300      	movs	r3, #0
 80027e2:	62bb      	str	r3, [r7, #40]	; 0x28
  HAL_GPIO_Init(LED_Green_GPIO_Port, &GPIO_InitStruct);
 80027e4:	f107 031c 	add.w	r3, r7, #28
 80027e8:	4619      	mov	r1, r3
 80027ea:	4814      	ldr	r0, [pc, #80]	; (800283c <MX_GPIO_Init+0x1f8>)
 80027ec:	f001 fe18 	bl	8004420 <HAL_GPIO_Init>

  /* USER CODE BEGIN 2 */
  //Configure voltage output pins
  HAL_GPIO_WritePin(GPIOH, VCC_1_Pin|VCC_2_Pin|VCC_3_Pin|VCC_4_Pin, GPIO_PIN_SET);
 80027f0:	2201      	movs	r2, #1
 80027f2:	213c      	movs	r1, #60	; 0x3c
 80027f4:	4814      	ldr	r0, [pc, #80]	; (8002848 <MX_GPIO_Init+0x204>)
 80027f6:	f001 ffbd 	bl	8004774 <HAL_GPIO_WritePin>

  /*Configure GPIO pins : PHPin PHPin PHPin PHPin */
  GPIO_InitStruct.Pin = VCC_1_Pin|VCC_2_Pin|VCC_3_Pin|VCC_4_Pin;
 80027fa:	233c      	movs	r3, #60	; 0x3c
 80027fc:	61fb      	str	r3, [r7, #28]
  GPIO_InitStruct.Mode = GPIO_MODE_OUTPUT_PP;
 80027fe:	2301      	movs	r3, #1
 8002800:	623b      	str	r3, [r7, #32]
  GPIO_InitStruct.Pull = GPIO_NOPULL;
 8002802:	2300      	movs	r3, #0
 8002804:	627b      	str	r3, [r7, #36]	; 0x24
  GPIO_InitStruct.Speed = GPIO_SPEED_FREQ_LOW;
 8002806:	2300      	movs	r3, #0
 8002808:	62bb      	str	r3, [r7, #40]	; 0x28
  HAL_GPIO_Init(GPIOH, &GPIO_InitStruct);
 800280a:	f107 031c 	add.w	r3, r7, #28
 800280e:	4619      	mov	r1, r3
 8002810:	480d      	ldr	r0, [pc, #52]	; (8002848 <MX_GPIO_Init+0x204>)
 8002812:	f001 fe05 	bl	8004420 <HAL_GPIO_Init>


  /* EXTI interrupt init*/
  HAL_NVIC_SetPriority(EXTI2_IRQn, 5, 0);
 8002816:	2200      	movs	r2, #0
 8002818:	2105      	movs	r1, #5
 800281a:	2008      	movs	r0, #8
 800281c:	f001 fdb4 	bl	8004388 <HAL_NVIC_SetPriority>
  HAL_NVIC_EnableIRQ(EXTI2_IRQn);
 8002820:	2008      	movs	r0, #8
 8002822:	f001 fdcd 	bl	80043c0 <HAL_NVIC_EnableIRQ>
}
 8002826:	bf00      	nop
 8002828:	3730      	adds	r7, #48	; 0x30
 800282a:	46bd      	mov	sp, r7
 800282c:	bd80      	pop	{r7, pc}
 800282e:	bf00      	nop
 8002830:	40023800 	.word	0x40023800
 8002834:	40021800 	.word	0x40021800
 8002838:	40021000 	.word	0x40021000
 800283c:	40021400 	.word	0x40021400
 8002840:	10110000 	.word	0x10110000
 8002844:	40020400 	.word	0x40020400
 8002848:	40021c00 	.word	0x40021c00

0800284c <HAL_GPIO_EXTI_Callback>:




//This function occurs whenever an EXTI line is called, the EXTI needs to be setup in the ioc file, and button pin is setup as interrupt (EXTI2) right now, and hence, whenver the white button is pressed, this function below is activated
void HAL_GPIO_EXTI_Callback(uint16_t GPIO_Pin){
 800284c:	b580      	push	{r7, lr}
 800284e:	b086      	sub	sp, #24
 8002850:	af02      	add	r7, sp, #8
 8002852:	4603      	mov	r3, r0
 8002854:	80fb      	strh	r3, [r7, #6]
	if(GPIO_Pin == Button_Pin){
 8002856:	88fb      	ldrh	r3, [r7, #6]
 8002858:	2b04      	cmp	r3, #4
 800285a:	d12b      	bne.n	80028b4 <HAL_GPIO_EXTI_Callback+0x68>
		//can_filter_enable(&hcan1);
		can_filter_enable(&hcan1);
 800285c:	4817      	ldr	r0, [pc, #92]	; (80028bc <HAL_GPIO_EXTI_Callback+0x70>)
 800285e:	f7ff fdfd 	bl	800245c <can_filter_enable>
		uint8_t motorStatus[8];
		memcpy(motorStatus, can_rx_buffer,8);
 8002862:	4a17      	ldr	r2, [pc, #92]	; (80028c0 <HAL_GPIO_EXTI_Callback+0x74>)
 8002864:	f107 0308 	add.w	r3, r7, #8
 8002868:	6810      	ldr	r0, [r2, #0]
 800286a:	6851      	ldr	r1, [r2, #4]
 800286c:	c303      	stmia	r3!, {r0, r1}
	             "ID           %d\r\n"
	             "Angle        %d\r\n"
	             "Current      %d\r\n"
	             "Speed        %d\r\n"
	             "Temperature  %u\r\n"
	             "=================================\r\n\r\n",1,(int16_t)(motorStatus[0] << 8 | motorStatus[1]),(int16_t)(motorStatus[2] << 8 | motorStatus[3]),(int16_t)(motorStatus[4] << 8 | motorStatus[5]),(int16_t)(motorStatus[6]));
 800286e:	7a3b      	ldrb	r3, [r7, #8]
 8002870:	021b      	lsls	r3, r3, #8
 8002872:	b21a      	sxth	r2, r3
 8002874:	7a7b      	ldrb	r3, [r7, #9]
 8002876:	b21b      	sxth	r3, r3
 8002878:	4313      	orrs	r3, r2
 800287a:	b21b      	sxth	r3, r3
		printf("\n======== 6020 DATA REPORT ========\r\n"
 800287c:	4619      	mov	r1, r3
	             "=================================\r\n\r\n",1,(int16_t)(motorStatus[0] << 8 | motorStatus[1]),(int16_t)(motorStatus[2] << 8 | motorStatus[3]),(int16_t)(motorStatus[4] << 8 | motorStatus[5]),(int16_t)(motorStatus[6]));
 800287e:	7abb      	ldrb	r3, [r7, #10]
 8002880:	021b      	lsls	r3, r3, #8
 8002882:	b21a      	sxth	r2, r3
 8002884:	7afb      	ldrb	r3, [r7, #11]
 8002886:	b21b      	sxth	r3, r3
 8002888:	4313      	orrs	r3, r2
 800288a:	b21b      	sxth	r3, r3
		printf("\n======== 6020 DATA REPORT ========\r\n"
 800288c:	4618      	mov	r0, r3
	             "=================================\r\n\r\n",1,(int16_t)(motorStatus[0] << 8 | motorStatus[1]),(int16_t)(motorStatus[2] << 8 | motorStatus[3]),(int16_t)(motorStatus[4] << 8 | motorStatus[5]),(int16_t)(motorStatus[6]));
 800288e:	7b3b      	ldrb	r3, [r7, #12]
 8002890:	021b      	lsls	r3, r3, #8
 8002892:	b21a      	sxth	r2, r3
 8002894:	7b7b      	ldrb	r3, [r7, #13]
 8002896:	b21b      	sxth	r3, r3
 8002898:	4313      	orrs	r3, r2
 800289a:	b21b      	sxth	r3, r3
 800289c:	7bba      	ldrb	r2, [r7, #14]
		printf("\n======== 6020 DATA REPORT ========\r\n"
 800289e:	9201      	str	r2, [sp, #4]
 80028a0:	9300      	str	r3, [sp, #0]
 80028a2:	4603      	mov	r3, r0
 80028a4:	460a      	mov	r2, r1
 80028a6:	2101      	movs	r1, #1
 80028a8:	4806      	ldr	r0, [pc, #24]	; (80028c4 <HAL_GPIO_EXTI_Callback+0x78>)
 80028aa:	f005 fb5b 	bl	8007f64 <iprintf>

		//Adding HAL_Delay would stop the entire code!
		//HAL_Delay(5000);

		can_filter_disable(&hcan1);
 80028ae:	4803      	ldr	r0, [pc, #12]	; (80028bc <HAL_GPIO_EXTI_Callback+0x70>)
 80028b0:	f7ff fdf6 	bl	80024a0 <can_filter_disable>


	}
}
 80028b4:	bf00      	nop
 80028b6:	3710      	adds	r7, #16
 80028b8:	46bd      	mov	sp, r7
 80028ba:	bd80      	pop	{r7, pc}
 80028bc:	200041d0 	.word	0x200041d0
 80028c0:	200041f8 	.word	0x200041f8
 80028c4:	0800a02c 	.word	0x0800a02c

080028c8 <main>:
/**
  * @brief  The application entry point.
  * @retval int
  */
int main(void)
{
 80028c8:	b580      	push	{r7, lr}
 80028ca:	af00      	add	r7, sp, #0
  /* USER CODE END 1 */

  /* MCU Configuration--------------------------------------------------------*/

  /* Reset of all peripherals, Initializes the Flash interface and the Systick. */
  HAL_Init();
 80028cc:	f000 fe06 	bl	80034dc <HAL_Init>
  /* USER CODE BEGIN Init */

  /* USER CODE END Init */

  /* Configure the system clock */
  SystemClock_Config();
 80028d0:	f000 f824 	bl	800291c <SystemClock_Config>
  /* USER CODE BEGIN SysInit */

  /* USER CODE END SysInit */

  /* Initialize all configured peripherals */
  MX_GPIO_Init();
 80028d4:	f7ff feb6 	bl	8002644 <MX_GPIO_Init>
  MX_CAN1_Init();
 80028d8:	f7ff fd32 	bl	8002340 <MX_CAN1_Init>
  MX_TIM4_Init();
 80028dc:	f000 fa4e 	bl	8002d7c <MX_TIM4_Init>
  MX_TIM2_Init();
 80028e0:	f000 fab2 	bl	8002e48 <MX_TIM2_Init>
  MX_TIM12_Init();
 80028e4:	f000 fb14 	bl	8002f10 <MX_TIM12_Init>
  MX_UART7_Init();
 80028e8:	f000 fce6 	bl	80032b8 <MX_UART7_Init>
  MX_USART6_Init();
 80028ec:	f000 fd0e 	bl	800330c <MX_USART6_Init>
  MX_TIM14_Init();
 80028f0:	f000 fb78 	bl	8002fe4 <MX_TIM14_Init>
  MX_TIM13_Init();
 80028f4:	f000 fb52 	bl	8002f9c <MX_TIM13_Init>
  /* USER CODE BEGIN 2 */

  buzzer_init();
 80028f8:	f7ff fae4 	bl	8001ec4 <buzzer_init>
  HAL_CAN_Start(&hcan1);
 80028fc:	4805      	ldr	r0, [pc, #20]	; (8002914 <main+0x4c>)
 80028fe:	f001 f80b 	bl	8003918 <HAL_CAN_Start>
  //HAL_TIM_Base_Start_IT(&htim14);
  HAL_TIM_Base_Start_IT(&htim13);
 8002902:	4805      	ldr	r0, [pc, #20]	; (8002918 <main+0x50>)
 8002904:	f002 fc1b 	bl	800513e <HAL_TIM_Base_Start_IT>


  /* USER CODE END 2 */

  /* Call init function for freertos objects (in freertos.c) */
  MX_FREERTOS_Init();
 8002908:	f7ff fe28 	bl	800255c <MX_FREERTOS_Init>
  /* Start scheduler */
  osKernelStart();
 800290c:	f004 f8f0 	bl	8006af0 <osKernelStart>

  /* We should never get here as control is now taken by the scheduler */
  /* Infinite loop */
  /* USER CODE BEGIN WHILE */
  while (1)
 8002910:	e7fe      	b.n	8002910 <main+0x48>
 8002912:	bf00      	nop
 8002914:	200041d0 	.word	0x200041d0
 8002918:	20004374 	.word	0x20004374

0800291c <SystemClock_Config>:
/**
  * @brief System Clock Configuration
  * @retval None
  */
void SystemClock_Config(void)
{
 800291c:	b580      	push	{r7, lr}
 800291e:	b094      	sub	sp, #80	; 0x50
 8002920:	af00      	add	r7, sp, #0
  RCC_OscInitTypeDef RCC_OscInitStruct = {0};
 8002922:	f107 0320 	add.w	r3, r7, #32
 8002926:	2230      	movs	r2, #48	; 0x30
 8002928:	2100      	movs	r1, #0
 800292a:	4618      	mov	r0, r3
 800292c:	f005 fb12 	bl	8007f54 <memset>
  RCC_ClkInitTypeDef RCC_ClkInitStruct = {0};
 8002930:	f107 030c 	add.w	r3, r7, #12
 8002934:	2200      	movs	r2, #0
 8002936:	601a      	str	r2, [r3, #0]
 8002938:	605a      	str	r2, [r3, #4]
 800293a:	609a      	str	r2, [r3, #8]
 800293c:	60da      	str	r2, [r3, #12]
 800293e:	611a      	str	r2, [r3, #16]

  /** Configure the main internal regulator output voltage
  */
  __HAL_RCC_PWR_CLK_ENABLE();
 8002940:	2300      	movs	r3, #0
 8002942:	60bb      	str	r3, [r7, #8]
 8002944:	4b29      	ldr	r3, [pc, #164]	; (80029ec <SystemClock_Config+0xd0>)
 8002946:	6c1b      	ldr	r3, [r3, #64]	; 0x40
 8002948:	4a28      	ldr	r2, [pc, #160]	; (80029ec <SystemClock_Config+0xd0>)
 800294a:	f043 5380 	orr.w	r3, r3, #268435456	; 0x10000000
 800294e:	6413      	str	r3, [r2, #64]	; 0x40
 8002950:	4b26      	ldr	r3, [pc, #152]	; (80029ec <SystemClock_Config+0xd0>)
 8002952:	6c1b      	ldr	r3, [r3, #64]	; 0x40
 8002954:	f003 5380 	and.w	r3, r3, #268435456	; 0x10000000
 8002958:	60bb      	str	r3, [r7, #8]
 800295a:	68bb      	ldr	r3, [r7, #8]
  __HAL_PWR_VOLTAGESCALING_CONFIG(PWR_REGULATOR_VOLTAGE_SCALE3);
 800295c:	2300      	movs	r3, #0
 800295e:	607b      	str	r3, [r7, #4]
 8002960:	4b23      	ldr	r3, [pc, #140]	; (80029f0 <SystemClock_Config+0xd4>)
 8002962:	681b      	ldr	r3, [r3, #0]
 8002964:	f423 4340 	bic.w	r3, r3, #49152	; 0xc000
 8002968:	4a21      	ldr	r2, [pc, #132]	; (80029f0 <SystemClock_Config+0xd4>)
 800296a:	f443 4380 	orr.w	r3, r3, #16384	; 0x4000
 800296e:	6013      	str	r3, [r2, #0]
 8002970:	4b1f      	ldr	r3, [pc, #124]	; (80029f0 <SystemClock_Config+0xd4>)
 8002972:	681b      	ldr	r3, [r3, #0]
 8002974:	f403 4340 	and.w	r3, r3, #49152	; 0xc000
 8002978:	607b      	str	r3, [r7, #4]
 800297a:	687b      	ldr	r3, [r7, #4]
  /** Initializes the RCC Oscillators according to the specified parameters
  * in the RCC_OscInitTypeDef structure.
  */
  RCC_OscInitStruct.OscillatorType = RCC_OSCILLATORTYPE_HSE;
 800297c:	2301      	movs	r3, #1
 800297e:	623b      	str	r3, [r7, #32]
  RCC_OscInitStruct.HSEState = RCC_HSE_ON;
 8002980:	f44f 3380 	mov.w	r3, #65536	; 0x10000
 8002984:	627b      	str	r3, [r7, #36]	; 0x24
  RCC_OscInitStruct.PLL.PLLState = RCC_PLL_ON;
 8002986:	2302      	movs	r3, #2
 8002988:	63bb      	str	r3, [r7, #56]	; 0x38
  RCC_OscInitStruct.PLL.PLLSource = RCC_PLLSOURCE_HSE;
 800298a:	f44f 0380 	mov.w	r3, #4194304	; 0x400000
 800298e:	63fb      	str	r3, [r7, #60]	; 0x3c
  RCC_OscInitStruct.PLL.PLLM = 6;
 8002990:	2306      	movs	r3, #6
 8002992:	643b      	str	r3, [r7, #64]	; 0x40
  RCC_OscInitStruct.PLL.PLLN = 168;
 8002994:	23a8      	movs	r3, #168	; 0xa8
 8002996:	647b      	str	r3, [r7, #68]	; 0x44
  RCC_OscInitStruct.PLL.PLLP = RCC_PLLP_DIV2;
 8002998:	2302      	movs	r3, #2
 800299a:	64bb      	str	r3, [r7, #72]	; 0x48
  RCC_OscInitStruct.PLL.PLLQ = 4;
 800299c:	2304      	movs	r3, #4
 800299e:	64fb      	str	r3, [r7, #76]	; 0x4c
  if (HAL_RCC_OscConfig(&RCC_OscInitStruct) != HAL_OK)
 80029a0:	f107 0320 	add.w	r3, r7, #32
 80029a4:	4618      	mov	r0, r3
 80029a6:	f001 ff31 	bl	800480c <HAL_RCC_OscConfig>
 80029aa:	4603      	mov	r3, r0
 80029ac:	2b00      	cmp	r3, #0
 80029ae:	d001      	beq.n	80029b4 <SystemClock_Config+0x98>
  {
    Error_Handler();
 80029b0:	f000 f846 	bl	8002a40 <Error_Handler>
  }
  /** Initializes the CPU, AHB and APB buses clocks
  */
  RCC_ClkInitStruct.ClockType = RCC_CLOCKTYPE_HCLK|RCC_CLOCKTYPE_SYSCLK
 80029b4:	230f      	movs	r3, #15
 80029b6:	60fb      	str	r3, [r7, #12]
                              |RCC_CLOCKTYPE_PCLK1|RCC_CLOCKTYPE_PCLK2;
  RCC_ClkInitStruct.SYSCLKSource = RCC_SYSCLKSOURCE_PLLCLK;
 80029b8:	2302      	movs	r3, #2
 80029ba:	613b      	str	r3, [r7, #16]
  RCC_ClkInitStruct.AHBCLKDivider = RCC_SYSCLK_DIV2;
 80029bc:	2380      	movs	r3, #128	; 0x80
 80029be:	617b      	str	r3, [r7, #20]
  RCC_ClkInitStruct.APB1CLKDivider = RCC_HCLK_DIV2;
 80029c0:	f44f 5380 	mov.w	r3, #4096	; 0x1000
 80029c4:	61bb      	str	r3, [r7, #24]
  RCC_ClkInitStruct.APB2CLKDivider = RCC_HCLK_DIV2;
 80029c6:	f44f 5380 	mov.w	r3, #4096	; 0x1000
 80029ca:	61fb      	str	r3, [r7, #28]

  if (HAL_RCC_ClockConfig(&RCC_ClkInitStruct, FLASH_LATENCY_2) != HAL_OK)
 80029cc:	f107 030c 	add.w	r3, r7, #12
 80029d0:	2102      	movs	r1, #2
 80029d2:	4618      	mov	r0, r3
 80029d4:	f002 f98a 	bl	8004cec <HAL_RCC_ClockConfig>
 80029d8:	4603      	mov	r3, r0
 80029da:	2b00      	cmp	r3, #0
 80029dc:	d001      	beq.n	80029e2 <SystemClock_Config+0xc6>
  {
    Error_Handler();
 80029de:	f000 f82f 	bl	8002a40 <Error_Handler>
  }
}
 80029e2:	bf00      	nop
 80029e4:	3750      	adds	r7, #80	; 0x50
 80029e6:	46bd      	mov	sp, r7
 80029e8:	bd80      	pop	{r7, pc}
 80029ea:	bf00      	nop
 80029ec:	40023800 	.word	0x40023800
 80029f0:	40007000 	.word	0x40007000

080029f4 <HAL_TIM_PeriodElapsedCallback>:
  * a global variable "uwTick" used as application time base.
  * @param  htim : TIM handle
  * @retval None
  */
void HAL_TIM_PeriodElapsedCallback(TIM_HandleTypeDef *htim)
{
 80029f4:	b580      	push	{r7, lr}
 80029f6:	b082      	sub	sp, #8
 80029f8:	af00      	add	r7, sp, #0
 80029fa:	6078      	str	r0, [r7, #4]
  /* USER CODE BEGIN Callback 0 */
  if (htim->Instance == TIM14){
	//HAL_GPIO_TogglePin(LED_Red_GPIO_Port,LED_Red_Pin);
  }

  if(htim->Instance == TIM13)
 80029fc:	687b      	ldr	r3, [r7, #4]
 80029fe:	681b      	ldr	r3, [r3, #0]
 8002a00:	4a0b      	ldr	r2, [pc, #44]	; (8002a30 <HAL_TIM_PeriodElapsedCallback+0x3c>)
 8002a02:	4293      	cmp	r3, r2
 8002a04:	d109      	bne.n	8002a1a <HAL_TIM_PeriodElapsedCallback+0x26>
  {
	 period_counter++;
 8002a06:	4b0b      	ldr	r3, [pc, #44]	; (8002a34 <HAL_TIM_PeriodElapsedCallback+0x40>)
 8002a08:	681b      	ldr	r3, [r3, #0]
 8002a0a:	3301      	adds	r3, #1
 8002a0c:	4a09      	ldr	r2, [pc, #36]	; (8002a34 <HAL_TIM_PeriodElapsedCallback+0x40>)
 8002a0e:	6013      	str	r3, [r2, #0]
	 HAL_GPIO_TogglePin(LED_Red_GPIO_Port,LED_Red_Pin);
 8002a10:	f44f 6100 	mov.w	r1, #2048	; 0x800
 8002a14:	4808      	ldr	r0, [pc, #32]	; (8002a38 <HAL_TIM_PeriodElapsedCallback+0x44>)
 8002a16:	f001 fec6 	bl	80047a6 <HAL_GPIO_TogglePin>
  }

  /* USER CODE END Callback 0 */
  if (htim->Instance == TIM5) {
 8002a1a:	687b      	ldr	r3, [r7, #4]
 8002a1c:	681b      	ldr	r3, [r3, #0]
 8002a1e:	4a07      	ldr	r2, [pc, #28]	; (8002a3c <HAL_TIM_PeriodElapsedCallback+0x48>)
 8002a20:	4293      	cmp	r3, r2
 8002a22:	d101      	bne.n	8002a28 <HAL_TIM_PeriodElapsedCallback+0x34>
    HAL_IncTick();
 8002a24:	f000 fd7c 	bl	8003520 <HAL_IncTick>
  }
  /* USER CODE BEGIN Callback 1 */

  /* USER CODE END Callback 1 */
}
 8002a28:	bf00      	nop
 8002a2a:	3708      	adds	r7, #8
 8002a2c:	46bd      	mov	sp, r7
 8002a2e:	bd80      	pop	{r7, pc}
 8002a30:	40001c00 	.word	0x40001c00
 8002a34:	200002e8 	.word	0x200002e8
 8002a38:	40021000 	.word	0x40021000
 8002a3c:	40000c00 	.word	0x40000c00

08002a40 <Error_Handler>:
/**
  * @brief  This function is executed in case of error occurrence.
  * @retval None
  */
void Error_Handler(void)
{
 8002a40:	b480      	push	{r7}
 8002a42:	af00      	add	r7, sp, #0
  \details Disables IRQ interrupts by setting the I-bit in the CPSR.
           Can only be executed in Privileged modes.
 */
__STATIC_FORCEINLINE void __disable_irq(void)
{
  __ASM volatile ("cpsid i" : : : "memory");
 8002a44:	b672      	cpsid	i
  /* USER CODE BEGIN Error_Handler_Debug */
  /* User can add his own implementation to report the HAL error return state */
  __disable_irq();
  while (1)
 8002a46:	e7fe      	b.n	8002a46 <Error_Handler+0x6>

08002a48 <HAL_MspInit>:
/* USER CODE END 0 */
/**
  * Initializes the Global MSP.
  */
void HAL_MspInit(void)
{
 8002a48:	b580      	push	{r7, lr}
 8002a4a:	b082      	sub	sp, #8
 8002a4c:	af00      	add	r7, sp, #0
  /* USER CODE BEGIN MspInit 0 */

  /* USER CODE END MspInit 0 */

  __HAL_RCC_SYSCFG_CLK_ENABLE();
 8002a4e:	2300      	movs	r3, #0
 8002a50:	607b      	str	r3, [r7, #4]
 8002a52:	4b12      	ldr	r3, [pc, #72]	; (8002a9c <HAL_MspInit+0x54>)
 8002a54:	6c5b      	ldr	r3, [r3, #68]	; 0x44
 8002a56:	4a11      	ldr	r2, [pc, #68]	; (8002a9c <HAL_MspInit+0x54>)
 8002a58:	f443 4380 	orr.w	r3, r3, #16384	; 0x4000
 8002a5c:	6453      	str	r3, [r2, #68]	; 0x44
 8002a5e:	4b0f      	ldr	r3, [pc, #60]	; (8002a9c <HAL_MspInit+0x54>)
 8002a60:	6c5b      	ldr	r3, [r3, #68]	; 0x44
 8002a62:	f403 4380 	and.w	r3, r3, #16384	; 0x4000
 8002a66:	607b      	str	r3, [r7, #4]
 8002a68:	687b      	ldr	r3, [r7, #4]
  __HAL_RCC_PWR_CLK_ENABLE();
 8002a6a:	2300      	movs	r3, #0
 8002a6c:	603b      	str	r3, [r7, #0]
 8002a6e:	4b0b      	ldr	r3, [pc, #44]	; (8002a9c <HAL_MspInit+0x54>)
 8002a70:	6c1b      	ldr	r3, [r3, #64]	; 0x40
 8002a72:	4a0a      	ldr	r2, [pc, #40]	; (8002a9c <HAL_MspInit+0x54>)
 8002a74:	f043 5380 	orr.w	r3, r3, #268435456	; 0x10000000
 8002a78:	6413      	str	r3, [r2, #64]	; 0x40
 8002a7a:	4b08      	ldr	r3, [pc, #32]	; (8002a9c <HAL_MspInit+0x54>)
 8002a7c:	6c1b      	ldr	r3, [r3, #64]	; 0x40
 8002a7e:	f003 5380 	and.w	r3, r3, #268435456	; 0x10000000
 8002a82:	603b      	str	r3, [r7, #0]
 8002a84:	683b      	ldr	r3, [r7, #0]

  /* System interrupt init*/
  /* PendSV_IRQn interrupt configuration */
  HAL_NVIC_SetPriority(PendSV_IRQn, 15, 0);
 8002a86:	2200      	movs	r2, #0
 8002a88:	210f      	movs	r1, #15
 8002a8a:	f06f 0001 	mvn.w	r0, #1
 8002a8e:	f001 fc7b 	bl	8004388 <HAL_NVIC_SetPriority>

  /* USER CODE BEGIN MspInit 1 */

  /* USER CODE END MspInit 1 */
}
 8002a92:	bf00      	nop
 8002a94:	3708      	adds	r7, #8
 8002a96:	46bd      	mov	sp, r7
 8002a98:	bd80      	pop	{r7, pc}
 8002a9a:	bf00      	nop
 8002a9c:	40023800 	.word	0x40023800

08002aa0 <HAL_InitTick>:
  *         reset by HAL_Init() or at any time when clock is configured, by HAL_RCC_ClockConfig().
  * @param  TickPriority: Tick interrupt priority.
  * @retval HAL status
  */
HAL_StatusTypeDef HAL_InitTick(uint32_t TickPriority)
{
 8002aa0:	b580      	push	{r7, lr}
 8002aa2:	b08c      	sub	sp, #48	; 0x30
 8002aa4:	af00      	add	r7, sp, #0
 8002aa6:	6078      	str	r0, [r7, #4]
  RCC_ClkInitTypeDef    clkconfig;
  uint32_t              uwTimclock = 0;
 8002aa8:	2300      	movs	r3, #0
 8002aaa:	62fb      	str	r3, [r7, #44]	; 0x2c
  uint32_t              uwPrescalerValue = 0;
 8002aac:	2300      	movs	r3, #0
 8002aae:	62bb      	str	r3, [r7, #40]	; 0x28
  uint32_t              pFLatency;
  /*Configure the TIM5 IRQ priority */
  HAL_NVIC_SetPriority(TIM5_IRQn, TickPriority ,0);
 8002ab0:	2200      	movs	r2, #0
 8002ab2:	6879      	ldr	r1, [r7, #4]
 8002ab4:	2032      	movs	r0, #50	; 0x32
 8002ab6:	f001 fc67 	bl	8004388 <HAL_NVIC_SetPriority>

  /* Enable the TIM5 global Interrupt */
  HAL_NVIC_EnableIRQ(TIM5_IRQn);
 8002aba:	2032      	movs	r0, #50	; 0x32
 8002abc:	f001 fc80 	bl	80043c0 <HAL_NVIC_EnableIRQ>
  /* Enable TIM5 clock */
  __HAL_RCC_TIM5_CLK_ENABLE();
 8002ac0:	2300      	movs	r3, #0
 8002ac2:	60fb      	str	r3, [r7, #12]
 8002ac4:	4b1f      	ldr	r3, [pc, #124]	; (8002b44 <HAL_InitTick+0xa4>)
 8002ac6:	6c1b      	ldr	r3, [r3, #64]	; 0x40
 8002ac8:	4a1e      	ldr	r2, [pc, #120]	; (8002b44 <HAL_InitTick+0xa4>)
 8002aca:	f043 0308 	orr.w	r3, r3, #8
 8002ace:	6413      	str	r3, [r2, #64]	; 0x40
 8002ad0:	4b1c      	ldr	r3, [pc, #112]	; (8002b44 <HAL_InitTick+0xa4>)
 8002ad2:	6c1b      	ldr	r3, [r3, #64]	; 0x40
 8002ad4:	f003 0308 	and.w	r3, r3, #8
 8002ad8:	60fb      	str	r3, [r7, #12]
 8002ada:	68fb      	ldr	r3, [r7, #12]

  /* Get clock configuration */
  HAL_RCC_GetClockConfig(&clkconfig, &pFLatency);
 8002adc:	f107 0210 	add.w	r2, r7, #16
 8002ae0:	f107 0314 	add.w	r3, r7, #20
 8002ae4:	4611      	mov	r1, r2
 8002ae6:	4618      	mov	r0, r3
 8002ae8:	f002 facc 	bl	8005084 <HAL_RCC_GetClockConfig>

  /* Compute TIM5 clock */
  uwTimclock = 2*HAL_RCC_GetPCLK1Freq();
 8002aec:	f002 faa2 	bl	8005034 <HAL_RCC_GetPCLK1Freq>
 8002af0:	4603      	mov	r3, r0
 8002af2:	005b      	lsls	r3, r3, #1
 8002af4:	62fb      	str	r3, [r7, #44]	; 0x2c
  /* Compute the prescaler value to have TIM5 counter clock equal to 1MHz */
  uwPrescalerValue = (uint32_t) ((uwTimclock / 1000000U) - 1U);
 8002af6:	6afb      	ldr	r3, [r7, #44]	; 0x2c
 8002af8:	4a13      	ldr	r2, [pc, #76]	; (8002b48 <HAL_InitTick+0xa8>)
 8002afa:	fba2 2303 	umull	r2, r3, r2, r3
 8002afe:	0c9b      	lsrs	r3, r3, #18
 8002b00:	3b01      	subs	r3, #1
 8002b02:	62bb      	str	r3, [r7, #40]	; 0x28

  /* Initialize TIM5 */
  htim5.Instance = TIM5;
 8002b04:	4b11      	ldr	r3, [pc, #68]	; (8002b4c <HAL_InitTick+0xac>)
 8002b06:	4a12      	ldr	r2, [pc, #72]	; (8002b50 <HAL_InitTick+0xb0>)
 8002b08:	601a      	str	r2, [r3, #0]
  + Period = [(TIM5CLK/1000) - 1]. to have a (1/1000) s time base.
  + Prescaler = (uwTimclock/1000000 - 1) to have a 1MHz counter clock.
  + ClockDivision = 0
  + Counter direction = Up
  */
  htim5.Init.Period = (1000000U / 1000U) - 1U;
 8002b0a:	4b10      	ldr	r3, [pc, #64]	; (8002b4c <HAL_InitTick+0xac>)
 8002b0c:	f240 32e7 	movw	r2, #999	; 0x3e7
 8002b10:	60da      	str	r2, [r3, #12]
  htim5.Init.Prescaler = uwPrescalerValue;
 8002b12:	4a0e      	ldr	r2, [pc, #56]	; (8002b4c <HAL_InitTick+0xac>)
 8002b14:	6abb      	ldr	r3, [r7, #40]	; 0x28
 8002b16:	6053      	str	r3, [r2, #4]
  htim5.Init.ClockDivision = 0;
 8002b18:	4b0c      	ldr	r3, [pc, #48]	; (8002b4c <HAL_InitTick+0xac>)
 8002b1a:	2200      	movs	r2, #0
 8002b1c:	611a      	str	r2, [r3, #16]
  htim5.Init.CounterMode = TIM_COUNTERMODE_UP;
 8002b1e:	4b0b      	ldr	r3, [pc, #44]	; (8002b4c <HAL_InitTick+0xac>)
 8002b20:	2200      	movs	r2, #0
 8002b22:	609a      	str	r2, [r3, #8]
  if(HAL_TIM_Base_Init(&htim5) == HAL_OK)
 8002b24:	4809      	ldr	r0, [pc, #36]	; (8002b4c <HAL_InitTick+0xac>)
 8002b26:	f002 fadf 	bl	80050e8 <HAL_TIM_Base_Init>
 8002b2a:	4603      	mov	r3, r0
 8002b2c:	2b00      	cmp	r3, #0
 8002b2e:	d104      	bne.n	8002b3a <HAL_InitTick+0x9a>
  {
    /* Start the TIM time Base generation in interrupt mode */
    return HAL_TIM_Base_Start_IT(&htim5);
 8002b30:	4806      	ldr	r0, [pc, #24]	; (8002b4c <HAL_InitTick+0xac>)
 8002b32:	f002 fb04 	bl	800513e <HAL_TIM_Base_Start_IT>
 8002b36:	4603      	mov	r3, r0
 8002b38:	e000      	b.n	8002b3c <HAL_InitTick+0x9c>
  }

  /* Return function status */
  return HAL_ERROR;
 8002b3a:	2301      	movs	r3, #1
}
 8002b3c:	4618      	mov	r0, r3
 8002b3e:	3730      	adds	r7, #48	; 0x30
 8002b40:	46bd      	mov	sp, r7
 8002b42:	bd80      	pop	{r7, pc}
 8002b44:	40023800 	.word	0x40023800
 8002b48:	431bde83 	.word	0x431bde83
 8002b4c:	20004334 	.word	0x20004334
 8002b50:	40000c00 	.word	0x40000c00

08002b54 <NMI_Handler>:
/******************************************************************************/
/**
  * @brief This function handles Non maskable interrupt.
  */
void NMI_Handler(void)
{
 8002b54:	b480      	push	{r7}
 8002b56:	af00      	add	r7, sp, #0
  /* USER CODE BEGIN NonMaskableInt_IRQn 0 */

  /* USER CODE END NonMaskableInt_IRQn 0 */
  /* USER CODE BEGIN NonMaskableInt_IRQn 1 */
  while (1)
 8002b58:	e7fe      	b.n	8002b58 <NMI_Handler+0x4>

08002b5a <HardFault_Handler>:

/**
  * @brief This function handles Hard fault interrupt.
  */
void HardFault_Handler(void)
{
 8002b5a:	b480      	push	{r7}
 8002b5c:	af00      	add	r7, sp, #0
  /* USER CODE BEGIN HardFault_IRQn 0 */

  /* USER CODE END HardFault_IRQn 0 */
  while (1)
 8002b5e:	e7fe      	b.n	8002b5e <HardFault_Handler+0x4>

08002b60 <MemManage_Handler>:

/**
  * @brief This function handles Memory management fault.
  */
void MemManage_Handler(void)
{
 8002b60:	b480      	push	{r7}
 8002b62:	af00      	add	r7, sp, #0
  /* USER CODE BEGIN MemoryManagement_IRQn 0 */

  /* USER CODE END MemoryManagement_IRQn 0 */
  while (1)
 8002b64:	e7fe      	b.n	8002b64 <MemManage_Handler+0x4>

08002b66 <BusFault_Handler>:

/**
  * @brief This function handles Pre-fetch fault, memory access fault.
  */
void BusFault_Handler(void)
{
 8002b66:	b480      	push	{r7}
 8002b68:	af00      	add	r7, sp, #0
  /* USER CODE BEGIN BusFault_IRQn 0 */

  /* USER CODE END BusFault_IRQn 0 */
  while (1)
 8002b6a:	e7fe      	b.n	8002b6a <BusFault_Handler+0x4>

08002b6c <UsageFault_Handler>:

/**
  * @brief This function handles Undefined instruction or illegal state.
  */
void UsageFault_Handler(void)
{
 8002b6c:	b480      	push	{r7}
 8002b6e:	af00      	add	r7, sp, #0
  /* USER CODE BEGIN UsageFault_IRQn 0 */

  /* USER CODE END UsageFault_IRQn 0 */
  while (1)
 8002b70:	e7fe      	b.n	8002b70 <UsageFault_Handler+0x4>

08002b72 <DebugMon_Handler>:

/**
  * @brief This function handles Debug monitor.
  */
void DebugMon_Handler(void)
{
 8002b72:	b480      	push	{r7}
 8002b74:	af00      	add	r7, sp, #0

  /* USER CODE END DebugMonitor_IRQn 0 */
  /* USER CODE BEGIN DebugMonitor_IRQn 1 */

  /* USER CODE END DebugMonitor_IRQn 1 */
}
 8002b76:	bf00      	nop
 8002b78:	46bd      	mov	sp, r7
 8002b7a:	f85d 7b04 	ldr.w	r7, [sp], #4
 8002b7e:	4770      	bx	lr

08002b80 <EXTI2_IRQHandler>:

/**
  * @brief This function handles EXTI line2 interrupt.
  */
void EXTI2_IRQHandler(void)
{
 8002b80:	b580      	push	{r7, lr}
 8002b82:	af00      	add	r7, sp, #0
  /* USER CODE BEGIN EXTI2_IRQn 0 */

  /* USER CODE END EXTI2_IRQn 0 */
  HAL_GPIO_EXTI_IRQHandler(GPIO_PIN_2);
 8002b84:	2004      	movs	r0, #4
 8002b86:	f001 fe29 	bl	80047dc <HAL_GPIO_EXTI_IRQHandler>
  /* USER CODE BEGIN EXTI2_IRQn 1 */

  /* USER CODE END EXTI2_IRQn 1 */
}
 8002b8a:	bf00      	nop
 8002b8c:	bd80      	pop	{r7, pc}
	...

08002b90 <CAN1_TX_IRQHandler>:

/**
  * @brief This function handles CAN1 TX interrupts.
  */
void CAN1_TX_IRQHandler(void)
{
 8002b90:	b580      	push	{r7, lr}
 8002b92:	af00      	add	r7, sp, #0
  /* USER CODE BEGIN CAN1_TX_IRQn 0 */

  /* USER CODE END CAN1_TX_IRQn 0 */
  HAL_CAN_IRQHandler(&hcan1);
 8002b94:	4802      	ldr	r0, [pc, #8]	; (8002ba0 <CAN1_TX_IRQHandler+0x10>)
 8002b96:	f001 f916 	bl	8003dc6 <HAL_CAN_IRQHandler>
  /* USER CODE BEGIN CAN1_TX_IRQn 1 */

  /* USER CODE END CAN1_TX_IRQn 1 */
}
 8002b9a:	bf00      	nop
 8002b9c:	bd80      	pop	{r7, pc}
 8002b9e:	bf00      	nop
 8002ba0:	200041d0 	.word	0x200041d0

08002ba4 <CAN1_RX0_IRQHandler>:

/**
  * @brief This function handles CAN1 RX0 interrupts.
  */
void CAN1_RX0_IRQHandler(void)
{
 8002ba4:	b580      	push	{r7, lr}
 8002ba6:	af00      	add	r7, sp, #0
  /* USER CODE BEGIN CAN1_RX0_IRQn 0 */

  /* USER CODE END CAN1_RX0_IRQn 0 */
  HAL_CAN_IRQHandler(&hcan1);
 8002ba8:	4802      	ldr	r0, [pc, #8]	; (8002bb4 <CAN1_RX0_IRQHandler+0x10>)
 8002baa:	f001 f90c 	bl	8003dc6 <HAL_CAN_IRQHandler>
  /* USER CODE BEGIN CAN1_RX0_IRQn 1 */

  /* USER CODE END CAN1_RX0_IRQn 1 */
}
 8002bae:	bf00      	nop
 8002bb0:	bd80      	pop	{r7, pc}
 8002bb2:	bf00      	nop
 8002bb4:	200041d0 	.word	0x200041d0

08002bb8 <TIM8_UP_TIM13_IRQHandler>:

/**
  * @brief This function handles TIM8 update interrupt and TIM13 global interrupt.
  */
void TIM8_UP_TIM13_IRQHandler(void)
{
 8002bb8:	b580      	push	{r7, lr}
 8002bba:	af00      	add	r7, sp, #0
  /* USER CODE BEGIN TIM8_UP_TIM13_IRQn 0 */

  /* USER CODE END TIM8_UP_TIM13_IRQn 0 */
  HAL_TIM_IRQHandler(&htim13);
 8002bbc:	4802      	ldr	r0, [pc, #8]	; (8002bc8 <TIM8_UP_TIM13_IRQHandler+0x10>)
 8002bbe:	f002 fb4b 	bl	8005258 <HAL_TIM_IRQHandler>
  /* USER CODE BEGIN TIM8_UP_TIM13_IRQn 1 */

  /* USER CODE END TIM8_UP_TIM13_IRQn 1 */
}
 8002bc2:	bf00      	nop
 8002bc4:	bd80      	pop	{r7, pc}
 8002bc6:	bf00      	nop
 8002bc8:	20004374 	.word	0x20004374

08002bcc <TIM8_TRG_COM_TIM14_IRQHandler>:

/**
  * @brief This function handles TIM8 trigger and commutation interrupts and TIM14 global interrupt.
  */
void TIM8_TRG_COM_TIM14_IRQHandler(void)
{
 8002bcc:	b580      	push	{r7, lr}
 8002bce:	af00      	add	r7, sp, #0
  /* USER CODE BEGIN TIM8_TRG_COM_TIM14_IRQn 0 */

  /* USER CODE END TIM8_TRG_COM_TIM14_IRQn 0 */
  HAL_TIM_IRQHandler(&htim14);
 8002bd0:	4802      	ldr	r0, [pc, #8]	; (8002bdc <TIM8_TRG_COM_TIM14_IRQHandler+0x10>)
 8002bd2:	f002 fb41 	bl	8005258 <HAL_TIM_IRQHandler>
  /* USER CODE BEGIN TIM8_TRG_COM_TIM14_IRQn 1 */

  /* USER CODE END TIM8_TRG_COM_TIM14_IRQn 1 */
}
 8002bd6:	bf00      	nop
 8002bd8:	bd80      	pop	{r7, pc}
 8002bda:	bf00      	nop
 8002bdc:	200043b4 	.word	0x200043b4

08002be0 <TIM5_IRQHandler>:

/**
  * @brief This function handles TIM5 global interrupt.
  */
void TIM5_IRQHandler(void)
{
 8002be0:	b580      	push	{r7, lr}
 8002be2:	af00      	add	r7, sp, #0
  /* USER CODE BEGIN TIM5_IRQn 0 */

  /* USER CODE END TIM5_IRQn 0 */
  HAL_TIM_IRQHandler(&htim5);
 8002be4:	4802      	ldr	r0, [pc, #8]	; (8002bf0 <TIM5_IRQHandler+0x10>)
 8002be6:	f002 fb37 	bl	8005258 <HAL_TIM_IRQHandler>
  /* USER CODE BEGIN TIM5_IRQn 1 */

  /* USER CODE END TIM5_IRQn 1 */
}
 8002bea:	bf00      	nop
 8002bec:	bd80      	pop	{r7, pc}
 8002bee:	bf00      	nop
 8002bf0:	20004334 	.word	0x20004334

08002bf4 <USART6_IRQHandler>:
/* USER CODE BEGIN 1 */
/**
  * @brief This function handles USART6 global interrupt.
  */
void USART6_IRQHandler(void)
{
 8002bf4:	b580      	push	{r7, lr}
 8002bf6:	af00      	add	r7, sp, #0
  /* USER CODE BEGIN USART6_IRQn 0 */

  /* USER CODE END USART6_IRQn 0 */
  HAL_UART_IRQHandler(&husart6);
 8002bf8:	4802      	ldr	r0, [pc, #8]	; (8002c04 <USART6_IRQHandler+0x10>)
 8002bfa:	f003 f965 	bl	8005ec8 <HAL_UART_IRQHandler>
  /* USER CODE BEGIN USART6_IRQn 1 */

  /* USER CODE END USART6_IRQn 1 */
}
 8002bfe:	bf00      	nop
 8002c00:	bd80      	pop	{r7, pc}
 8002c02:	bf00      	nop
 8002c04:	200043f4 	.word	0x200043f4

08002c08 <_read>:
	_kill(status, -1);
	while (1) {}		/* Make sure we hang here */
}

__attribute__((weak)) int _read(int file, char *ptr, int len)
{
 8002c08:	b580      	push	{r7, lr}
 8002c0a:	b086      	sub	sp, #24
 8002c0c:	af00      	add	r7, sp, #0
 8002c0e:	60f8      	str	r0, [r7, #12]
 8002c10:	60b9      	str	r1, [r7, #8]
 8002c12:	607a      	str	r2, [r7, #4]
	int DataIdx;

	for (DataIdx = 0; DataIdx < len; DataIdx++)
 8002c14:	2300      	movs	r3, #0
 8002c16:	617b      	str	r3, [r7, #20]
 8002c18:	e00a      	b.n	8002c30 <_read+0x28>
	{
		*ptr++ = __io_getchar();
 8002c1a:	f3af 8000 	nop.w
 8002c1e:	4601      	mov	r1, r0
 8002c20:	68bb      	ldr	r3, [r7, #8]
 8002c22:	1c5a      	adds	r2, r3, #1
 8002c24:	60ba      	str	r2, [r7, #8]
 8002c26:	b2ca      	uxtb	r2, r1
 8002c28:	701a      	strb	r2, [r3, #0]
	for (DataIdx = 0; DataIdx < len; DataIdx++)
 8002c2a:	697b      	ldr	r3, [r7, #20]
 8002c2c:	3301      	adds	r3, #1
 8002c2e:	617b      	str	r3, [r7, #20]
 8002c30:	697a      	ldr	r2, [r7, #20]
 8002c32:	687b      	ldr	r3, [r7, #4]
 8002c34:	429a      	cmp	r2, r3
 8002c36:	dbf0      	blt.n	8002c1a <_read+0x12>
	}

return len;
 8002c38:	687b      	ldr	r3, [r7, #4]
}
 8002c3a:	4618      	mov	r0, r3
 8002c3c:	3718      	adds	r7, #24
 8002c3e:	46bd      	mov	sp, r7
 8002c40:	bd80      	pop	{r7, pc}

08002c42 <_write>:

__attribute__((weak)) int _write(int file, char *ptr, int len)
{
 8002c42:	b580      	push	{r7, lr}
 8002c44:	b086      	sub	sp, #24
 8002c46:	af00      	add	r7, sp, #0
 8002c48:	60f8      	str	r0, [r7, #12]
 8002c4a:	60b9      	str	r1, [r7, #8]
 8002c4c:	607a      	str	r2, [r7, #4]
	int DataIdx;

	for (DataIdx = 0; DataIdx < len; DataIdx++)
 8002c4e:	2300      	movs	r3, #0
 8002c50:	617b      	str	r3, [r7, #20]
 8002c52:	e009      	b.n	8002c68 <_write+0x26>
	{
		__io_putchar(*ptr++);
 8002c54:	68bb      	ldr	r3, [r7, #8]
 8002c56:	1c5a      	adds	r2, r3, #1
 8002c58:	60ba      	str	r2, [r7, #8]
 8002c5a:	781b      	ldrb	r3, [r3, #0]
 8002c5c:	4618      	mov	r0, r3
 8002c5e:	f000 fb19 	bl	8003294 <__io_putchar>
	for (DataIdx = 0; DataIdx < len; DataIdx++)
 8002c62:	697b      	ldr	r3, [r7, #20]
 8002c64:	3301      	adds	r3, #1
 8002c66:	617b      	str	r3, [r7, #20]
 8002c68:	697a      	ldr	r2, [r7, #20]
 8002c6a:	687b      	ldr	r3, [r7, #4]
 8002c6c:	429a      	cmp	r2, r3
 8002c6e:	dbf1      	blt.n	8002c54 <_write+0x12>
	}
	return len;
 8002c70:	687b      	ldr	r3, [r7, #4]
}
 8002c72:	4618      	mov	r0, r3
 8002c74:	3718      	adds	r7, #24
 8002c76:	46bd      	mov	sp, r7
 8002c78:	bd80      	pop	{r7, pc}

08002c7a <_close>:

int _close(int file)
{
 8002c7a:	b480      	push	{r7}
 8002c7c:	b083      	sub	sp, #12
 8002c7e:	af00      	add	r7, sp, #0
 8002c80:	6078      	str	r0, [r7, #4]
	return -1;
 8002c82:	f04f 33ff 	mov.w	r3, #4294967295
}
 8002c86:	4618      	mov	r0, r3
 8002c88:	370c      	adds	r7, #12
 8002c8a:	46bd      	mov	sp, r7
 8002c8c:	f85d 7b04 	ldr.w	r7, [sp], #4
 8002c90:	4770      	bx	lr

08002c92 <_fstat>:


int _fstat(int file, struct stat *st)
{
 8002c92:	b480      	push	{r7}
 8002c94:	b083      	sub	sp, #12
 8002c96:	af00      	add	r7, sp, #0
 8002c98:	6078      	str	r0, [r7, #4]
 8002c9a:	6039      	str	r1, [r7, #0]
	st->st_mode = S_IFCHR;
 8002c9c:	683b      	ldr	r3, [r7, #0]
 8002c9e:	f44f 5200 	mov.w	r2, #8192	; 0x2000
 8002ca2:	605a      	str	r2, [r3, #4]
	return 0;
 8002ca4:	2300      	movs	r3, #0
}
 8002ca6:	4618      	mov	r0, r3
 8002ca8:	370c      	adds	r7, #12
 8002caa:	46bd      	mov	sp, r7
 8002cac:	f85d 7b04 	ldr.w	r7, [sp], #4
 8002cb0:	4770      	bx	lr

08002cb2 <_isatty>:

int _isatty(int file)
{
 8002cb2:	b480      	push	{r7}
 8002cb4:	b083      	sub	sp, #12
 8002cb6:	af00      	add	r7, sp, #0
 8002cb8:	6078      	str	r0, [r7, #4]
	return 1;
 8002cba:	2301      	movs	r3, #1
}
 8002cbc:	4618      	mov	r0, r3
 8002cbe:	370c      	adds	r7, #12
 8002cc0:	46bd      	mov	sp, r7
 8002cc2:	f85d 7b04 	ldr.w	r7, [sp], #4
 8002cc6:	4770      	bx	lr

08002cc8 <_lseek>:

int _lseek(int file, int ptr, int dir)
{
 8002cc8:	b480      	push	{r7}
 8002cca:	b085      	sub	sp, #20
 8002ccc:	af00      	add	r7, sp, #0
 8002cce:	60f8      	str	r0, [r7, #12]
 8002cd0:	60b9      	str	r1, [r7, #8]
 8002cd2:	607a      	str	r2, [r7, #4]
	return 0;
 8002cd4:	2300      	movs	r3, #0
}
 8002cd6:	4618      	mov	r0, r3
 8002cd8:	3714      	adds	r7, #20
 8002cda:	46bd      	mov	sp, r7
 8002cdc:	f85d 7b04 	ldr.w	r7, [sp], #4
 8002ce0:	4770      	bx	lr
	...

08002ce4 <_sbrk>:
 *
 * @param incr Memory size
 * @return Pointer to allocated memory
 */
void *_sbrk(ptrdiff_t incr)
{
 8002ce4:	b580      	push	{r7, lr}
 8002ce6:	b086      	sub	sp, #24
 8002ce8:	af00      	add	r7, sp, #0
 8002cea:	6078      	str	r0, [r7, #4]
  extern uint8_t _end; /* Symbol defined in the linker script */
  extern uint8_t _estack; /* Symbol defined in the linker script */
  extern uint32_t _Min_Stack_Size; /* Symbol defined in the linker script */
  const uint32_t stack_limit = (uint32_t)&_estack - (uint32_t)&_Min_Stack_Size;
 8002cec:	4a14      	ldr	r2, [pc, #80]	; (8002d40 <_sbrk+0x5c>)
 8002cee:	4b15      	ldr	r3, [pc, #84]	; (8002d44 <_sbrk+0x60>)
 8002cf0:	1ad3      	subs	r3, r2, r3
 8002cf2:	617b      	str	r3, [r7, #20]
  const uint8_t *max_heap = (uint8_t *)stack_limit;
 8002cf4:	697b      	ldr	r3, [r7, #20]
 8002cf6:	613b      	str	r3, [r7, #16]
  uint8_t *prev_heap_end;

  /* Initialize heap end at first call */
  if (NULL == __sbrk_heap_end)
 8002cf8:	4b13      	ldr	r3, [pc, #76]	; (8002d48 <_sbrk+0x64>)
 8002cfa:	681b      	ldr	r3, [r3, #0]
 8002cfc:	2b00      	cmp	r3, #0
 8002cfe:	d102      	bne.n	8002d06 <_sbrk+0x22>
  {
    __sbrk_heap_end = &_end;
 8002d00:	4b11      	ldr	r3, [pc, #68]	; (8002d48 <_sbrk+0x64>)
 8002d02:	4a12      	ldr	r2, [pc, #72]	; (8002d4c <_sbrk+0x68>)
 8002d04:	601a      	str	r2, [r3, #0]
  }

  /* Protect heap from growing into the reserved MSP stack */
  if (__sbrk_heap_end + incr > max_heap)
 8002d06:	4b10      	ldr	r3, [pc, #64]	; (8002d48 <_sbrk+0x64>)
 8002d08:	681a      	ldr	r2, [r3, #0]
 8002d0a:	687b      	ldr	r3, [r7, #4]
 8002d0c:	4413      	add	r3, r2
 8002d0e:	693a      	ldr	r2, [r7, #16]
 8002d10:	429a      	cmp	r2, r3
 8002d12:	d207      	bcs.n	8002d24 <_sbrk+0x40>
  {
    errno = ENOMEM;
 8002d14:	f005 f8f4 	bl	8007f00 <__errno>
 8002d18:	4602      	mov	r2, r0
 8002d1a:	230c      	movs	r3, #12
 8002d1c:	6013      	str	r3, [r2, #0]
    return (void *)-1;
 8002d1e:	f04f 33ff 	mov.w	r3, #4294967295
 8002d22:	e009      	b.n	8002d38 <_sbrk+0x54>
  }

  prev_heap_end = __sbrk_heap_end;
 8002d24:	4b08      	ldr	r3, [pc, #32]	; (8002d48 <_sbrk+0x64>)
 8002d26:	681b      	ldr	r3, [r3, #0]
 8002d28:	60fb      	str	r3, [r7, #12]
  __sbrk_heap_end += incr;
 8002d2a:	4b07      	ldr	r3, [pc, #28]	; (8002d48 <_sbrk+0x64>)
 8002d2c:	681a      	ldr	r2, [r3, #0]
 8002d2e:	687b      	ldr	r3, [r7, #4]
 8002d30:	4413      	add	r3, r2
 8002d32:	4a05      	ldr	r2, [pc, #20]	; (8002d48 <_sbrk+0x64>)
 8002d34:	6013      	str	r3, [r2, #0]

  return (void *)prev_heap_end;
 8002d36:	68fb      	ldr	r3, [r7, #12]
}
 8002d38:	4618      	mov	r0, r3
 8002d3a:	3718      	adds	r7, #24
 8002d3c:	46bd      	mov	sp, r7
 8002d3e:	bd80      	pop	{r7, pc}
 8002d40:	20030000 	.word	0x20030000
 8002d44:	00000400 	.word	0x00000400
 8002d48:	200002ec 	.word	0x200002ec
 8002d4c:	20004480 	.word	0x20004480

08002d50 <SystemInit>:
  *         configuration.
  * @param  None
  * @retval None
  */
void SystemInit(void)
{
 8002d50:	b480      	push	{r7}
 8002d52:	af00      	add	r7, sp, #0
  /* FPU settings ------------------------------------------------------------*/
  #if (__FPU_PRESENT == 1) && (__FPU_USED == 1)
    SCB->CPACR |= ((3UL << 10*2)|(3UL << 11*2));  /* set CP10 and CP11 Full Access */
 8002d54:	4b08      	ldr	r3, [pc, #32]	; (8002d78 <SystemInit+0x28>)
 8002d56:	f8d3 3088 	ldr.w	r3, [r3, #136]	; 0x88
 8002d5a:	4a07      	ldr	r2, [pc, #28]	; (8002d78 <SystemInit+0x28>)
 8002d5c:	f443 0370 	orr.w	r3, r3, #15728640	; 0xf00000
 8002d60:	f8c2 3088 	str.w	r3, [r2, #136]	; 0x88

  /* Configure the Vector Table location add offset address ------------------*/
#ifdef VECT_TAB_SRAM
  SCB->VTOR = SRAM_BASE | VECT_TAB_OFFSET; /* Vector Table Relocation in Internal SRAM */
#else
  SCB->VTOR = FLASH_BASE | VECT_TAB_OFFSET; /* Vector Table Relocation in Internal FLASH */
 8002d64:	4b04      	ldr	r3, [pc, #16]	; (8002d78 <SystemInit+0x28>)
 8002d66:	f04f 6200 	mov.w	r2, #134217728	; 0x8000000
 8002d6a:	609a      	str	r2, [r3, #8]
#endif
}
 8002d6c:	bf00      	nop
 8002d6e:	46bd      	mov	sp, r7
 8002d70:	f85d 7b04 	ldr.w	r7, [sp], #4
 8002d74:	4770      	bx	lr
 8002d76:	bf00      	nop
 8002d78:	e000ed00 	.word	0xe000ed00

08002d7c <MX_TIM4_Init>:
TIM_HandleTypeDef htim14;
TIM_HandleTypeDef htim2;

/* TIM4 init function */
void MX_TIM4_Init(void)
{
 8002d7c:	b580      	push	{r7, lr}
 8002d7e:	b08a      	sub	sp, #40	; 0x28
 8002d80:	af00      	add	r7, sp, #0
  TIM_MasterConfigTypeDef sMasterConfig = {0};
 8002d82:	f107 0320 	add.w	r3, r7, #32
 8002d86:	2200      	movs	r2, #0
 8002d88:	601a      	str	r2, [r3, #0]
 8002d8a:	605a      	str	r2, [r3, #4]
  TIM_OC_InitTypeDef sConfigOC = {0};
 8002d8c:	1d3b      	adds	r3, r7, #4
 8002d8e:	2200      	movs	r2, #0
 8002d90:	601a      	str	r2, [r3, #0]
 8002d92:	605a      	str	r2, [r3, #4]
 8002d94:	609a      	str	r2, [r3, #8]
 8002d96:	60da      	str	r2, [r3, #12]
 8002d98:	611a      	str	r2, [r3, #16]
 8002d9a:	615a      	str	r2, [r3, #20]
 8002d9c:	619a      	str	r2, [r3, #24]

  htim4.Instance = TIM4;
 8002d9e:	4b28      	ldr	r3, [pc, #160]	; (8002e40 <MX_TIM4_Init+0xc4>)
 8002da0:	4a28      	ldr	r2, [pc, #160]	; (8002e44 <MX_TIM4_Init+0xc8>)
 8002da2:	601a      	str	r2, [r3, #0]
  htim4.Init.Prescaler = 83;
 8002da4:	4b26      	ldr	r3, [pc, #152]	; (8002e40 <MX_TIM4_Init+0xc4>)
 8002da6:	2253      	movs	r2, #83	; 0x53
 8002da8:	605a      	str	r2, [r3, #4]
  htim4.Init.CounterMode = TIM_COUNTERMODE_UP;
 8002daa:	4b25      	ldr	r3, [pc, #148]	; (8002e40 <MX_TIM4_Init+0xc4>)
 8002dac:	2200      	movs	r2, #0
 8002dae:	609a      	str	r2, [r3, #8]
  htim4.Init.Period = 2500-1;
 8002db0:	4b23      	ldr	r3, [pc, #140]	; (8002e40 <MX_TIM4_Init+0xc4>)
 8002db2:	f640 12c3 	movw	r2, #2499	; 0x9c3
 8002db6:	60da      	str	r2, [r3, #12]
  htim4.Init.ClockDivision = TIM_CLOCKDIVISION_DIV1;
 8002db8:	4b21      	ldr	r3, [pc, #132]	; (8002e40 <MX_TIM4_Init+0xc4>)
 8002dba:	2200      	movs	r2, #0
 8002dbc:	611a      	str	r2, [r3, #16]
  htim4.Init.AutoReloadPreload = TIM_AUTORELOAD_PRELOAD_DISABLE;
 8002dbe:	4b20      	ldr	r3, [pc, #128]	; (8002e40 <MX_TIM4_Init+0xc4>)
 8002dc0:	2200      	movs	r2, #0
 8002dc2:	619a      	str	r2, [r3, #24]
  if (HAL_TIM_PWM_Init(&htim4) != HAL_OK)
 8002dc4:	481e      	ldr	r0, [pc, #120]	; (8002e40 <MX_TIM4_Init+0xc4>)
 8002dc6:	f002 f9de 	bl	8005186 <HAL_TIM_PWM_Init>
 8002dca:	4603      	mov	r3, r0
 8002dcc:	2b00      	cmp	r3, #0
 8002dce:	d001      	beq.n	8002dd4 <MX_TIM4_Init+0x58>
  {
    Error_Handler();
 8002dd0:	f7ff fe36 	bl	8002a40 <Error_Handler>
  }
  sMasterConfig.MasterOutputTrigger = TIM_TRGO_RESET;
 8002dd4:	2300      	movs	r3, #0
 8002dd6:	623b      	str	r3, [r7, #32]
  sMasterConfig.MasterSlaveMode = TIM_MASTERSLAVEMODE_DISABLE;
 8002dd8:	2300      	movs	r3, #0
 8002dda:	627b      	str	r3, [r7, #36]	; 0x24
  if (HAL_TIMEx_MasterConfigSynchronization(&htim4, &sMasterConfig) != HAL_OK)
 8002ddc:	f107 0320 	add.w	r3, r7, #32
 8002de0:	4619      	mov	r1, r3
 8002de2:	4817      	ldr	r0, [pc, #92]	; (8002e40 <MX_TIM4_Init+0xc4>)
 8002de4:	f002 fea4 	bl	8005b30 <HAL_TIMEx_MasterConfigSynchronization>
 8002de8:	4603      	mov	r3, r0
 8002dea:	2b00      	cmp	r3, #0
 8002dec:	d001      	beq.n	8002df2 <MX_TIM4_Init+0x76>
  {
    Error_Handler();
 8002dee:	f7ff fe27 	bl	8002a40 <Error_Handler>
  }
  sConfigOC.OCMode = TIM_OCMODE_PWM1;
 8002df2:	2360      	movs	r3, #96	; 0x60
 8002df4:	607b      	str	r3, [r7, #4]
  sConfigOC.Pulse = 2000;
 8002df6:	f44f 63fa 	mov.w	r3, #2000	; 0x7d0
 8002dfa:	60bb      	str	r3, [r7, #8]
  sConfigOC.OCPolarity = TIM_OCPOLARITY_HIGH;
 8002dfc:	2300      	movs	r3, #0
 8002dfe:	60fb      	str	r3, [r7, #12]
  sConfigOC.OCFastMode = TIM_OCFAST_DISABLE;
 8002e00:	2300      	movs	r3, #0
 8002e02:	617b      	str	r3, [r7, #20]
  if (HAL_TIM_PWM_ConfigChannel(&htim4, &sConfigOC, TIM_CHANNEL_1) != HAL_OK)
 8002e04:	1d3b      	adds	r3, r7, #4
 8002e06:	2200      	movs	r2, #0
 8002e08:	4619      	mov	r1, r3
 8002e0a:	480d      	ldr	r0, [pc, #52]	; (8002e40 <MX_TIM4_Init+0xc4>)
 8002e0c:	f002 fb2c 	bl	8005468 <HAL_TIM_PWM_ConfigChannel>
 8002e10:	4603      	mov	r3, r0
 8002e12:	2b00      	cmp	r3, #0
 8002e14:	d001      	beq.n	8002e1a <MX_TIM4_Init+0x9e>
  {
    Error_Handler();
 8002e16:	f7ff fe13 	bl	8002a40 <Error_Handler>
  }
  if (HAL_TIM_PWM_ConfigChannel(&htim4, &sConfigOC, TIM_CHANNEL_3) != HAL_OK)
 8002e1a:	1d3b      	adds	r3, r7, #4
 8002e1c:	2208      	movs	r2, #8
 8002e1e:	4619      	mov	r1, r3
 8002e20:	4807      	ldr	r0, [pc, #28]	; (8002e40 <MX_TIM4_Init+0xc4>)
 8002e22:	f002 fb21 	bl	8005468 <HAL_TIM_PWM_ConfigChannel>
 8002e26:	4603      	mov	r3, r0
 8002e28:	2b00      	cmp	r3, #0
 8002e2a:	d001      	beq.n	8002e30 <MX_TIM4_Init+0xb4>
  {
    Error_Handler();
 8002e2c:	f7ff fe08 	bl	8002a40 <Error_Handler>
  }
  HAL_TIM_MspPostInit(&htim4);
 8002e30:	4803      	ldr	r0, [pc, #12]	; (8002e40 <MX_TIM4_Init+0xc4>)
 8002e32:	f000 f9a7 	bl	8003184 <HAL_TIM_MspPostInit>

}
 8002e36:	bf00      	nop
 8002e38:	3728      	adds	r7, #40	; 0x28
 8002e3a:	46bd      	mov	sp, r7
 8002e3c:	bd80      	pop	{r7, pc}
 8002e3e:	bf00      	nop
 8002e40:	20004044 	.word	0x20004044
 8002e44:	40000800 	.word	0x40000800

08002e48 <MX_TIM2_Init>:

/* USER CODE BEGIN 1 */
//Timer 2 init
void MX_TIM2_Init(void)
{
 8002e48:	b580      	push	{r7, lr}
 8002e4a:	b08a      	sub	sp, #40	; 0x28
 8002e4c:	af00      	add	r7, sp, #0
  TIM_MasterConfigTypeDef sMasterConfig = {0};
 8002e4e:	f107 0320 	add.w	r3, r7, #32
 8002e52:	2200      	movs	r2, #0
 8002e54:	601a      	str	r2, [r3, #0]
 8002e56:	605a      	str	r2, [r3, #4]
  TIM_OC_InitTypeDef sConfigOC = {0};
 8002e58:	1d3b      	adds	r3, r7, #4
 8002e5a:	2200      	movs	r2, #0
 8002e5c:	601a      	str	r2, [r3, #0]
 8002e5e:	605a      	str	r2, [r3, #4]
 8002e60:	609a      	str	r2, [r3, #8]
 8002e62:	60da      	str	r2, [r3, #12]
 8002e64:	611a      	str	r2, [r3, #16]
 8002e66:	615a      	str	r2, [r3, #20]
 8002e68:	619a      	str	r2, [r3, #24]

  htim2.Instance = TIM2;
 8002e6a:	4b28      	ldr	r3, [pc, #160]	; (8002f0c <MX_TIM2_Init+0xc4>)
 8002e6c:	f04f 4280 	mov.w	r2, #1073741824	; 0x40000000
 8002e70:	601a      	str	r2, [r3, #0]
  htim2.Init.Prescaler = 83;
 8002e72:	4b26      	ldr	r3, [pc, #152]	; (8002f0c <MX_TIM2_Init+0xc4>)
 8002e74:	2253      	movs	r2, #83	; 0x53
 8002e76:	605a      	str	r2, [r3, #4]
  htim2.Init.CounterMode = TIM_COUNTERMODE_UP;
 8002e78:	4b24      	ldr	r3, [pc, #144]	; (8002f0c <MX_TIM2_Init+0xc4>)
 8002e7a:	2200      	movs	r2, #0
 8002e7c:	609a      	str	r2, [r3, #8]
  htim2.Init.Period = 2500-1;
 8002e7e:	4b23      	ldr	r3, [pc, #140]	; (8002f0c <MX_TIM2_Init+0xc4>)
 8002e80:	f640 12c3 	movw	r2, #2499	; 0x9c3
 8002e84:	60da      	str	r2, [r3, #12]
  htim2.Init.ClockDivision = TIM_CLOCKDIVISION_DIV1;
 8002e86:	4b21      	ldr	r3, [pc, #132]	; (8002f0c <MX_TIM2_Init+0xc4>)
 8002e88:	2200      	movs	r2, #0
 8002e8a:	611a      	str	r2, [r3, #16]
  htim2.Init.AutoReloadPreload = TIM_AUTORELOAD_PRELOAD_DISABLE;
 8002e8c:	4b1f      	ldr	r3, [pc, #124]	; (8002f0c <MX_TIM2_Init+0xc4>)
 8002e8e:	2200      	movs	r2, #0
 8002e90:	619a      	str	r2, [r3, #24]
  if (HAL_TIM_PWM_Init(&htim2) != HAL_OK)
 8002e92:	481e      	ldr	r0, [pc, #120]	; (8002f0c <MX_TIM2_Init+0xc4>)
 8002e94:	f002 f977 	bl	8005186 <HAL_TIM_PWM_Init>
 8002e98:	4603      	mov	r3, r0
 8002e9a:	2b00      	cmp	r3, #0
 8002e9c:	d001      	beq.n	8002ea2 <MX_TIM2_Init+0x5a>
  {
    Error_Handler();
 8002e9e:	f7ff fdcf 	bl	8002a40 <Error_Handler>
  }
  sMasterConfig.MasterOutputTrigger = TIM_TRGO_RESET;
 8002ea2:	2300      	movs	r3, #0
 8002ea4:	623b      	str	r3, [r7, #32]
  sMasterConfig.MasterSlaveMode = TIM_MASTERSLAVEMODE_DISABLE;
 8002ea6:	2300      	movs	r3, #0
 8002ea8:	627b      	str	r3, [r7, #36]	; 0x24
  if (HAL_TIMEx_MasterConfigSynchronization(&htim2, &sMasterConfig) != HAL_OK)
 8002eaa:	f107 0320 	add.w	r3, r7, #32
 8002eae:	4619      	mov	r1, r3
 8002eb0:	4816      	ldr	r0, [pc, #88]	; (8002f0c <MX_TIM2_Init+0xc4>)
 8002eb2:	f002 fe3d 	bl	8005b30 <HAL_TIMEx_MasterConfigSynchronization>
 8002eb6:	4603      	mov	r3, r0
 8002eb8:	2b00      	cmp	r3, #0
 8002eba:	d001      	beq.n	8002ec0 <MX_TIM2_Init+0x78>
  {
    Error_Handler();
 8002ebc:	f7ff fdc0 	bl	8002a40 <Error_Handler>
  }
  sConfigOC.OCMode = TIM_OCMODE_PWM1;
 8002ec0:	2360      	movs	r3, #96	; 0x60
 8002ec2:	607b      	str	r3, [r7, #4]
  sConfigOC.Pulse = 2000;
 8002ec4:	f44f 63fa 	mov.w	r3, #2000	; 0x7d0
 8002ec8:	60bb      	str	r3, [r7, #8]
  sConfigOC.OCPolarity = TIM_OCPOLARITY_HIGH;
 8002eca:	2300      	movs	r3, #0
 8002ecc:	60fb      	str	r3, [r7, #12]
  sConfigOC.OCFastMode = TIM_OCFAST_DISABLE;
 8002ece:	2300      	movs	r3, #0
 8002ed0:	617b      	str	r3, [r7, #20]
  if (HAL_TIM_PWM_ConfigChannel(&htim2, &sConfigOC, TIM_CHANNEL_1) != HAL_OK)
 8002ed2:	1d3b      	adds	r3, r7, #4
 8002ed4:	2200      	movs	r2, #0
 8002ed6:	4619      	mov	r1, r3
 8002ed8:	480c      	ldr	r0, [pc, #48]	; (8002f0c <MX_TIM2_Init+0xc4>)
 8002eda:	f002 fac5 	bl	8005468 <HAL_TIM_PWM_ConfigChannel>
 8002ede:	4603      	mov	r3, r0
 8002ee0:	2b00      	cmp	r3, #0
 8002ee2:	d001      	beq.n	8002ee8 <MX_TIM2_Init+0xa0>
  {
    Error_Handler();
 8002ee4:	f7ff fdac 	bl	8002a40 <Error_Handler>
  }
  if (HAL_TIM_PWM_ConfigChannel(&htim2, &sConfigOC, TIM_CHANNEL_3) != HAL_OK)
 8002ee8:	1d3b      	adds	r3, r7, #4
 8002eea:	2208      	movs	r2, #8
 8002eec:	4619      	mov	r1, r3
 8002eee:	4807      	ldr	r0, [pc, #28]	; (8002f0c <MX_TIM2_Init+0xc4>)
 8002ef0:	f002 faba 	bl	8005468 <HAL_TIM_PWM_ConfigChannel>
 8002ef4:	4603      	mov	r3, r0
 8002ef6:	2b00      	cmp	r3, #0
 8002ef8:	d001      	beq.n	8002efe <MX_TIM2_Init+0xb6>
  {
    Error_Handler();
 8002efa:	f7ff fda1 	bl	8002a40 <Error_Handler>
  }
  HAL_TIM_MspPostInit(&htim2);
 8002efe:	4803      	ldr	r0, [pc, #12]	; (8002f0c <MX_TIM2_Init+0xc4>)
 8002f00:	f000 f940 	bl	8003184 <HAL_TIM_MspPostInit>

}
 8002f04:	bf00      	nop
 8002f06:	3728      	adds	r7, #40	; 0x28
 8002f08:	46bd      	mov	sp, r7
 8002f0a:	bd80      	pop	{r7, pc}
 8002f0c:	20004190 	.word	0x20004190

08002f10 <MX_TIM12_Init>:
/* USER CODE END 1 */

/* TIM12 init function */
void MX_TIM12_Init(void)
{
 8002f10:	b580      	push	{r7, lr}
 8002f12:	b088      	sub	sp, #32
 8002f14:	af00      	add	r7, sp, #0
  TIM_OC_InitTypeDef sConfigOC = {0};
 8002f16:	1d3b      	adds	r3, r7, #4
 8002f18:	2200      	movs	r2, #0
 8002f1a:	601a      	str	r2, [r3, #0]
 8002f1c:	605a      	str	r2, [r3, #4]
 8002f1e:	609a      	str	r2, [r3, #8]
 8002f20:	60da      	str	r2, [r3, #12]
 8002f22:	611a      	str	r2, [r3, #16]
 8002f24:	615a      	str	r2, [r3, #20]
 8002f26:	619a      	str	r2, [r3, #24]

  htim12.Instance = TIM12;
 8002f28:	4b1a      	ldr	r3, [pc, #104]	; (8002f94 <MX_TIM12_Init+0x84>)
 8002f2a:	4a1b      	ldr	r2, [pc, #108]	; (8002f98 <MX_TIM12_Init+0x88>)
 8002f2c:	601a      	str	r2, [r3, #0]
  htim12.Init.Prescaler = 35;
 8002f2e:	4b19      	ldr	r3, [pc, #100]	; (8002f94 <MX_TIM12_Init+0x84>)
 8002f30:	2223      	movs	r2, #35	; 0x23
 8002f32:	605a      	str	r2, [r3, #4]
  htim12.Init.CounterMode = TIM_COUNTERMODE_UP;
 8002f34:	4b17      	ldr	r3, [pc, #92]	; (8002f94 <MX_TIM12_Init+0x84>)
 8002f36:	2200      	movs	r2, #0
 8002f38:	609a      	str	r2, [r3, #8]
  htim12.Init.Period = 10000-1;
 8002f3a:	4b16      	ldr	r3, [pc, #88]	; (8002f94 <MX_TIM12_Init+0x84>)
 8002f3c:	f242 720f 	movw	r2, #9999	; 0x270f
 8002f40:	60da      	str	r2, [r3, #12]
  htim12.Init.ClockDivision = TIM_CLOCKDIVISION_DIV1;
 8002f42:	4b14      	ldr	r3, [pc, #80]	; (8002f94 <MX_TIM12_Init+0x84>)
 8002f44:	2200      	movs	r2, #0
 8002f46:	611a      	str	r2, [r3, #16]
  htim12.Init.AutoReloadPreload = TIM_AUTORELOAD_PRELOAD_DISABLE;
 8002f48:	4b12      	ldr	r3, [pc, #72]	; (8002f94 <MX_TIM12_Init+0x84>)
 8002f4a:	2200      	movs	r2, #0
 8002f4c:	619a      	str	r2, [r3, #24]
  if (HAL_TIM_PWM_Init(&htim12) != HAL_OK)
 8002f4e:	4811      	ldr	r0, [pc, #68]	; (8002f94 <MX_TIM12_Init+0x84>)
 8002f50:	f002 f919 	bl	8005186 <HAL_TIM_PWM_Init>
 8002f54:	4603      	mov	r3, r0
 8002f56:	2b00      	cmp	r3, #0
 8002f58:	d001      	beq.n	8002f5e <MX_TIM12_Init+0x4e>
  {
    Error_Handler();
 8002f5a:	f7ff fd71 	bl	8002a40 <Error_Handler>
  }
  sConfigOC.OCMode = TIM_OCMODE_PWM1;
 8002f5e:	2360      	movs	r3, #96	; 0x60
 8002f60:	607b      	str	r3, [r7, #4]
  sConfigOC.Pulse = 0;
 8002f62:	2300      	movs	r3, #0
 8002f64:	60bb      	str	r3, [r7, #8]
  sConfigOC.OCPolarity = TIM_OCPOLARITY_HIGH;
 8002f66:	2300      	movs	r3, #0
 8002f68:	60fb      	str	r3, [r7, #12]
  sConfigOC.OCFastMode = TIM_OCFAST_DISABLE;
 8002f6a:	2300      	movs	r3, #0
 8002f6c:	617b      	str	r3, [r7, #20]
  if (HAL_TIM_PWM_ConfigChannel(&htim12, &sConfigOC, TIM_CHANNEL_1) != HAL_OK)
 8002f6e:	1d3b      	adds	r3, r7, #4
 8002f70:	2200      	movs	r2, #0
 8002f72:	4619      	mov	r1, r3
 8002f74:	4807      	ldr	r0, [pc, #28]	; (8002f94 <MX_TIM12_Init+0x84>)
 8002f76:	f002 fa77 	bl	8005468 <HAL_TIM_PWM_ConfigChannel>
 8002f7a:	4603      	mov	r3, r0
 8002f7c:	2b00      	cmp	r3, #0
 8002f7e:	d001      	beq.n	8002f84 <MX_TIM12_Init+0x74>
  {
    Error_Handler();
 8002f80:	f7ff fd5e 	bl	8002a40 <Error_Handler>
  }
  HAL_TIM_MspPostInit(&htim12);
 8002f84:	4803      	ldr	r0, [pc, #12]	; (8002f94 <MX_TIM12_Init+0x84>)
 8002f86:	f000 f8fd 	bl	8003184 <HAL_TIM_MspPostInit>

}
 8002f8a:	bf00      	nop
 8002f8c:	3720      	adds	r7, #32
 8002f8e:	46bd      	mov	sp, r7
 8002f90:	bd80      	pop	{r7, pc}
 8002f92:	bf00      	nop
 8002f94:	20004238 	.word	0x20004238
 8002f98:	40001800 	.word	0x40001800

08002f9c <MX_TIM13_Init>:
/* TIM13 init function */
void MX_TIM13_Init(void)
{
 8002f9c:	b580      	push	{r7, lr}
 8002f9e:	af00      	add	r7, sp, #0

  htim13.Instance = TIM13;
 8002fa0:	4b0e      	ldr	r3, [pc, #56]	; (8002fdc <MX_TIM13_Init+0x40>)
 8002fa2:	4a0f      	ldr	r2, [pc, #60]	; (8002fe0 <MX_TIM13_Init+0x44>)
 8002fa4:	601a      	str	r2, [r3, #0]
  htim13.Init.Prescaler = 8399;
 8002fa6:	4b0d      	ldr	r3, [pc, #52]	; (8002fdc <MX_TIM13_Init+0x40>)
 8002fa8:	f242 02cf 	movw	r2, #8399	; 0x20cf
 8002fac:	605a      	str	r2, [r3, #4]
  htim13.Init.CounterMode = TIM_COUNTERMODE_UP;
 8002fae:	4b0b      	ldr	r3, [pc, #44]	; (8002fdc <MX_TIM13_Init+0x40>)
 8002fb0:	2200      	movs	r2, #0
 8002fb2:	609a      	str	r2, [r3, #8]
  htim13.Init.Period = 9999;
 8002fb4:	4b09      	ldr	r3, [pc, #36]	; (8002fdc <MX_TIM13_Init+0x40>)
 8002fb6:	f242 720f 	movw	r2, #9999	; 0x270f
 8002fba:	60da      	str	r2, [r3, #12]
  htim13.Init.ClockDivision = TIM_CLOCKDIVISION_DIV1;
 8002fbc:	4b07      	ldr	r3, [pc, #28]	; (8002fdc <MX_TIM13_Init+0x40>)
 8002fbe:	2200      	movs	r2, #0
 8002fc0:	611a      	str	r2, [r3, #16]
  htim13.Init.AutoReloadPreload = TIM_AUTORELOAD_PRELOAD_DISABLE;
 8002fc2:	4b06      	ldr	r3, [pc, #24]	; (8002fdc <MX_TIM13_Init+0x40>)
 8002fc4:	2200      	movs	r2, #0
 8002fc6:	619a      	str	r2, [r3, #24]
  if (HAL_TIM_Base_Init(&htim13) != HAL_OK)
 8002fc8:	4804      	ldr	r0, [pc, #16]	; (8002fdc <MX_TIM13_Init+0x40>)
 8002fca:	f002 f88d 	bl	80050e8 <HAL_TIM_Base_Init>
 8002fce:	4603      	mov	r3, r0
 8002fd0:	2b00      	cmp	r3, #0
 8002fd2:	d001      	beq.n	8002fd8 <MX_TIM13_Init+0x3c>
  {
    Error_Handler();
 8002fd4:	f7ff fd34 	bl	8002a40 <Error_Handler>
  }

}
 8002fd8:	bf00      	nop
 8002fda:	bd80      	pop	{r7, pc}
 8002fdc:	20004374 	.word	0x20004374
 8002fe0:	40001c00 	.word	0x40001c00

08002fe4 <MX_TIM14_Init>:
/* TIM14 init function */
void MX_TIM14_Init(void)
{
 8002fe4:	b580      	push	{r7, lr}
 8002fe6:	af00      	add	r7, sp, #0

  htim14.Instance = TIM14;
 8002fe8:	4b0e      	ldr	r3, [pc, #56]	; (8003024 <MX_TIM14_Init+0x40>)
 8002fea:	4a0f      	ldr	r2, [pc, #60]	; (8003028 <MX_TIM14_Init+0x44>)
 8002fec:	601a      	str	r2, [r3, #0]
  htim14.Init.Prescaler = 8400;
 8002fee:	4b0d      	ldr	r3, [pc, #52]	; (8003024 <MX_TIM14_Init+0x40>)
 8002ff0:	f242 02d0 	movw	r2, #8400	; 0x20d0
 8002ff4:	605a      	str	r2, [r3, #4]
  htim14.Init.CounterMode = TIM_COUNTERMODE_UP;
 8002ff6:	4b0b      	ldr	r3, [pc, #44]	; (8003024 <MX_TIM14_Init+0x40>)
 8002ff8:	2200      	movs	r2, #0
 8002ffa:	609a      	str	r2, [r3, #8]
  htim14.Init.Period = 9999;
 8002ffc:	4b09      	ldr	r3, [pc, #36]	; (8003024 <MX_TIM14_Init+0x40>)
 8002ffe:	f242 720f 	movw	r2, #9999	; 0x270f
 8003002:	60da      	str	r2, [r3, #12]
  htim14.Init.ClockDivision = TIM_CLOCKDIVISION_DIV1;
 8003004:	4b07      	ldr	r3, [pc, #28]	; (8003024 <MX_TIM14_Init+0x40>)
 8003006:	2200      	movs	r2, #0
 8003008:	611a      	str	r2, [r3, #16]
  htim14.Init.AutoReloadPreload = TIM_AUTORELOAD_PRELOAD_DISABLE;
 800300a:	4b06      	ldr	r3, [pc, #24]	; (8003024 <MX_TIM14_Init+0x40>)
 800300c:	2200      	movs	r2, #0
 800300e:	619a      	str	r2, [r3, #24]
  if (HAL_TIM_Base_Init(&htim14) != HAL_OK)
 8003010:	4804      	ldr	r0, [pc, #16]	; (8003024 <MX_TIM14_Init+0x40>)
 8003012:	f002 f869 	bl	80050e8 <HAL_TIM_Base_Init>
 8003016:	4603      	mov	r3, r0
 8003018:	2b00      	cmp	r3, #0
 800301a:	d001      	beq.n	8003020 <MX_TIM14_Init+0x3c>
  {
    Error_Handler();
 800301c:	f7ff fd10 	bl	8002a40 <Error_Handler>
  }

}
 8003020:	bf00      	nop
 8003022:	bd80      	pop	{r7, pc}
 8003024:	200043b4 	.word	0x200043b4
 8003028:	40002000 	.word	0x40002000

0800302c <HAL_TIM_PWM_MspInit>:

void HAL_TIM_PWM_MspInit(TIM_HandleTypeDef* tim_pwmHandle)
{
 800302c:	b480      	push	{r7}
 800302e:	b087      	sub	sp, #28
 8003030:	af00      	add	r7, sp, #0
 8003032:	6078      	str	r0, [r7, #4]

  if(tim_pwmHandle->Instance==TIM4)
 8003034:	687b      	ldr	r3, [r7, #4]
 8003036:	681b      	ldr	r3, [r3, #0]
 8003038:	4a1f      	ldr	r2, [pc, #124]	; (80030b8 <HAL_TIM_PWM_MspInit+0x8c>)
 800303a:	4293      	cmp	r3, r2
 800303c:	d10e      	bne.n	800305c <HAL_TIM_PWM_MspInit+0x30>
  {
  /* USER CODE BEGIN TIM4_MspInit 0 */

  /* USER CODE END TIM4_MspInit 0 */
    /* TIM4 clock enable */
    __HAL_RCC_TIM4_CLK_ENABLE();
 800303e:	2300      	movs	r3, #0
 8003040:	617b      	str	r3, [r7, #20]
 8003042:	4b1e      	ldr	r3, [pc, #120]	; (80030bc <HAL_TIM_PWM_MspInit+0x90>)
 8003044:	6c1b      	ldr	r3, [r3, #64]	; 0x40
 8003046:	4a1d      	ldr	r2, [pc, #116]	; (80030bc <HAL_TIM_PWM_MspInit+0x90>)
 8003048:	f043 0304 	orr.w	r3, r3, #4
 800304c:	6413      	str	r3, [r2, #64]	; 0x40
 800304e:	4b1b      	ldr	r3, [pc, #108]	; (80030bc <HAL_TIM_PWM_MspInit+0x90>)
 8003050:	6c1b      	ldr	r3, [r3, #64]	; 0x40
 8003052:	f003 0304 	and.w	r3, r3, #4
 8003056:	617b      	str	r3, [r7, #20]
 8003058:	697b      	ldr	r3, [r7, #20]
	    __HAL_RCC_TIM2_CLK_ENABLE();
	  /* USER CODE BEGIN TIM12_MspInit 1 */

	  /* USER CODE END TIM12_MspInit 1 */
  }
}
 800305a:	e026      	b.n	80030aa <HAL_TIM_PWM_MspInit+0x7e>
  else if(tim_pwmHandle->Instance==TIM12)
 800305c:	687b      	ldr	r3, [r7, #4]
 800305e:	681b      	ldr	r3, [r3, #0]
 8003060:	4a17      	ldr	r2, [pc, #92]	; (80030c0 <HAL_TIM_PWM_MspInit+0x94>)
 8003062:	4293      	cmp	r3, r2
 8003064:	d10e      	bne.n	8003084 <HAL_TIM_PWM_MspInit+0x58>
    __HAL_RCC_TIM12_CLK_ENABLE();
 8003066:	2300      	movs	r3, #0
 8003068:	613b      	str	r3, [r7, #16]
 800306a:	4b14      	ldr	r3, [pc, #80]	; (80030bc <HAL_TIM_PWM_MspInit+0x90>)
 800306c:	6c1b      	ldr	r3, [r3, #64]	; 0x40
 800306e:	4a13      	ldr	r2, [pc, #76]	; (80030bc <HAL_TIM_PWM_MspInit+0x90>)
 8003070:	f043 0340 	orr.w	r3, r3, #64	; 0x40
 8003074:	6413      	str	r3, [r2, #64]	; 0x40
 8003076:	4b11      	ldr	r3, [pc, #68]	; (80030bc <HAL_TIM_PWM_MspInit+0x90>)
 8003078:	6c1b      	ldr	r3, [r3, #64]	; 0x40
 800307a:	f003 0340 	and.w	r3, r3, #64	; 0x40
 800307e:	613b      	str	r3, [r7, #16]
 8003080:	693b      	ldr	r3, [r7, #16]
}
 8003082:	e012      	b.n	80030aa <HAL_TIM_PWM_MspInit+0x7e>
  else if(tim_pwmHandle->Instance==TIM2)
 8003084:	687b      	ldr	r3, [r7, #4]
 8003086:	681b      	ldr	r3, [r3, #0]
 8003088:	f1b3 4f80 	cmp.w	r3, #1073741824	; 0x40000000
 800308c:	d10d      	bne.n	80030aa <HAL_TIM_PWM_MspInit+0x7e>
	    __HAL_RCC_TIM2_CLK_ENABLE();
 800308e:	2300      	movs	r3, #0
 8003090:	60fb      	str	r3, [r7, #12]
 8003092:	4b0a      	ldr	r3, [pc, #40]	; (80030bc <HAL_TIM_PWM_MspInit+0x90>)
 8003094:	6c1b      	ldr	r3, [r3, #64]	; 0x40
 8003096:	4a09      	ldr	r2, [pc, #36]	; (80030bc <HAL_TIM_PWM_MspInit+0x90>)
 8003098:	f043 0301 	orr.w	r3, r3, #1
 800309c:	6413      	str	r3, [r2, #64]	; 0x40
 800309e:	4b07      	ldr	r3, [pc, #28]	; (80030bc <HAL_TIM_PWM_MspInit+0x90>)
 80030a0:	6c1b      	ldr	r3, [r3, #64]	; 0x40
 80030a2:	f003 0301 	and.w	r3, r3, #1
 80030a6:	60fb      	str	r3, [r7, #12]
 80030a8:	68fb      	ldr	r3, [r7, #12]
}
 80030aa:	bf00      	nop
 80030ac:	371c      	adds	r7, #28
 80030ae:	46bd      	mov	sp, r7
 80030b0:	f85d 7b04 	ldr.w	r7, [sp], #4
 80030b4:	4770      	bx	lr
 80030b6:	bf00      	nop
 80030b8:	40000800 	.word	0x40000800
 80030bc:	40023800 	.word	0x40023800
 80030c0:	40001800 	.word	0x40001800

080030c4 <HAL_TIM_Base_MspInit>:

void HAL_TIM_Base_MspInit(TIM_HandleTypeDef* tim_baseHandle)
{
 80030c4:	b580      	push	{r7, lr}
 80030c6:	b086      	sub	sp, #24
 80030c8:	af00      	add	r7, sp, #0
 80030ca:	6078      	str	r0, [r7, #4]

  if(tim_baseHandle->Instance==TIM13)
 80030cc:	687b      	ldr	r3, [r7, #4]
 80030ce:	681b      	ldr	r3, [r3, #0]
 80030d0:	4a29      	ldr	r2, [pc, #164]	; (8003178 <HAL_TIM_Base_MspInit+0xb4>)
 80030d2:	4293      	cmp	r3, r2
 80030d4:	d116      	bne.n	8003104 <HAL_TIM_Base_MspInit+0x40>
  {
  /* USER CODE BEGIN TIM13_MspInit 0 */

  /* USER CODE END TIM13_MspInit 0 */
    /* TIM13 clock enable */
    __HAL_RCC_TIM13_CLK_ENABLE();
 80030d6:	2300      	movs	r3, #0
 80030d8:	617b      	str	r3, [r7, #20]
 80030da:	4b28      	ldr	r3, [pc, #160]	; (800317c <HAL_TIM_Base_MspInit+0xb8>)
 80030dc:	6c1b      	ldr	r3, [r3, #64]	; 0x40
 80030de:	4a27      	ldr	r2, [pc, #156]	; (800317c <HAL_TIM_Base_MspInit+0xb8>)
 80030e0:	f043 0380 	orr.w	r3, r3, #128	; 0x80
 80030e4:	6413      	str	r3, [r2, #64]	; 0x40
 80030e6:	4b25      	ldr	r3, [pc, #148]	; (800317c <HAL_TIM_Base_MspInit+0xb8>)
 80030e8:	6c1b      	ldr	r3, [r3, #64]	; 0x40
 80030ea:	f003 0380 	and.w	r3, r3, #128	; 0x80
 80030ee:	617b      	str	r3, [r7, #20]
 80030f0:	697b      	ldr	r3, [r7, #20]

    /* TIM13 interrupt Init */
    HAL_NVIC_SetPriority(TIM8_UP_TIM13_IRQn, 5, 0);
 80030f2:	2200      	movs	r2, #0
 80030f4:	2105      	movs	r1, #5
 80030f6:	202c      	movs	r0, #44	; 0x2c
 80030f8:	f001 f946 	bl	8004388 <HAL_NVIC_SetPriority>
    HAL_NVIC_EnableIRQ(TIM8_UP_TIM13_IRQn);
 80030fc:	202c      	movs	r0, #44	; 0x2c
 80030fe:	f001 f95f 	bl	80043c0 <HAL_NVIC_EnableIRQ>
 8003102:	e01a      	b.n	800313a <HAL_TIM_Base_MspInit+0x76>
  /* USER CODE BEGIN TIM13_MspInit 1 */

  /* USER CODE END TIM13_MspInit 1 */
  }
  else if(tim_baseHandle->Instance==TIM14)
 8003104:	687b      	ldr	r3, [r7, #4]
 8003106:	681b      	ldr	r3, [r3, #0]
 8003108:	4a1d      	ldr	r2, [pc, #116]	; (8003180 <HAL_TIM_Base_MspInit+0xbc>)
 800310a:	4293      	cmp	r3, r2
 800310c:	d115      	bne.n	800313a <HAL_TIM_Base_MspInit+0x76>
  {
  /* USER CODE BEGIN TIM14_MspInit 0 */

  /* USER CODE END TIM14_MspInit 0 */
    /* TIM14 clock enable */
    __HAL_RCC_TIM14_CLK_ENABLE();
 800310e:	2300      	movs	r3, #0
 8003110:	613b      	str	r3, [r7, #16]
 8003112:	4b1a      	ldr	r3, [pc, #104]	; (800317c <HAL_TIM_Base_MspInit+0xb8>)
 8003114:	6c1b      	ldr	r3, [r3, #64]	; 0x40
 8003116:	4a19      	ldr	r2, [pc, #100]	; (800317c <HAL_TIM_Base_MspInit+0xb8>)
 8003118:	f443 7380 	orr.w	r3, r3, #256	; 0x100
 800311c:	6413      	str	r3, [r2, #64]	; 0x40
 800311e:	4b17      	ldr	r3, [pc, #92]	; (800317c <HAL_TIM_Base_MspInit+0xb8>)
 8003120:	6c1b      	ldr	r3, [r3, #64]	; 0x40
 8003122:	f403 7380 	and.w	r3, r3, #256	; 0x100
 8003126:	613b      	str	r3, [r7, #16]
 8003128:	693b      	ldr	r3, [r7, #16]

    /* TIM14 interrupt Init */
    HAL_NVIC_SetPriority(TIM8_TRG_COM_TIM14_IRQn, 5, 0);
 800312a:	2200      	movs	r2, #0
 800312c:	2105      	movs	r1, #5
 800312e:	202d      	movs	r0, #45	; 0x2d
 8003130:	f001 f92a 	bl	8004388 <HAL_NVIC_SetPriority>
    HAL_NVIC_EnableIRQ(TIM8_TRG_COM_TIM14_IRQn);
 8003134:	202d      	movs	r0, #45	; 0x2d
 8003136:	f001 f943 	bl	80043c0 <HAL_NVIC_EnableIRQ>
  /* USER CODE BEGIN TIM14_MspInit 1 */

  /* USER CODE END TIM13_MspInit 1 */
  }
  if(tim_baseHandle->Instance==TIM13)
 800313a:	687b      	ldr	r3, [r7, #4]
 800313c:	681b      	ldr	r3, [r3, #0]
 800313e:	4a0e      	ldr	r2, [pc, #56]	; (8003178 <HAL_TIM_Base_MspInit+0xb4>)
 8003140:	4293      	cmp	r3, r2
 8003142:	d115      	bne.n	8003170 <HAL_TIM_Base_MspInit+0xac>
    {
    /* USER CODE BEGIN TIM13_MspInit 0 */

    /* USER CODE END TIM13_MspInit 0 */
      /* TIM13 clock enable */
      __HAL_RCC_TIM13_CLK_ENABLE();
 8003144:	2300      	movs	r3, #0
 8003146:	60fb      	str	r3, [r7, #12]
 8003148:	4b0c      	ldr	r3, [pc, #48]	; (800317c <HAL_TIM_Base_MspInit+0xb8>)
 800314a:	6c1b      	ldr	r3, [r3, #64]	; 0x40
 800314c:	4a0b      	ldr	r2, [pc, #44]	; (800317c <HAL_TIM_Base_MspInit+0xb8>)
 800314e:	f043 0380 	orr.w	r3, r3, #128	; 0x80
 8003152:	6413      	str	r3, [r2, #64]	; 0x40
 8003154:	4b09      	ldr	r3, [pc, #36]	; (800317c <HAL_TIM_Base_MspInit+0xb8>)
 8003156:	6c1b      	ldr	r3, [r3, #64]	; 0x40
 8003158:	f003 0380 	and.w	r3, r3, #128	; 0x80
 800315c:	60fb      	str	r3, [r7, #12]
 800315e:	68fb      	ldr	r3, [r7, #12]

      /* TIM13 interrupt Init */
      HAL_NVIC_SetPriority(TIM8_UP_TIM13_IRQn, 1, 0);
 8003160:	2200      	movs	r2, #0
 8003162:	2101      	movs	r1, #1
 8003164:	202c      	movs	r0, #44	; 0x2c
 8003166:	f001 f90f 	bl	8004388 <HAL_NVIC_SetPriority>
      HAL_NVIC_EnableIRQ(TIM8_UP_TIM13_IRQn);
 800316a:	202c      	movs	r0, #44	; 0x2c
 800316c:	f001 f928 	bl	80043c0 <HAL_NVIC_EnableIRQ>
    /* USER CODE BEGIN TIM14_MspInit 1 */

  /* USER CODE END TIM14_MspInit 1 */
  }
}
 8003170:	bf00      	nop
 8003172:	3718      	adds	r7, #24
 8003174:	46bd      	mov	sp, r7
 8003176:	bd80      	pop	{r7, pc}
 8003178:	40001c00 	.word	0x40001c00
 800317c:	40023800 	.word	0x40023800
 8003180:	40002000 	.word	0x40002000

08003184 <HAL_TIM_MspPostInit>:
void HAL_TIM_MspPostInit(TIM_HandleTypeDef* timHandle)
{
 8003184:	b580      	push	{r7, lr}
 8003186:	b08a      	sub	sp, #40	; 0x28
 8003188:	af00      	add	r7, sp, #0
 800318a:	6078      	str	r0, [r7, #4]

  GPIO_InitTypeDef GPIO_InitStruct = {0};
 800318c:	f107 0314 	add.w	r3, r7, #20
 8003190:	2200      	movs	r2, #0
 8003192:	601a      	str	r2, [r3, #0]
 8003194:	605a      	str	r2, [r3, #4]
 8003196:	609a      	str	r2, [r3, #8]
 8003198:	60da      	str	r2, [r3, #12]
 800319a:	611a      	str	r2, [r3, #16]
  if(timHandle->Instance==TIM4)
 800319c:	687b      	ldr	r3, [r7, #4]
 800319e:	681b      	ldr	r3, [r3, #0]
 80031a0:	4a36      	ldr	r2, [pc, #216]	; (800327c <HAL_TIM_MspPostInit+0xf8>)
 80031a2:	4293      	cmp	r3, r2
 80031a4:	d11f      	bne.n	80031e6 <HAL_TIM_MspPostInit+0x62>
  {
  /* USER CODE BEGIN TIM4_MspPostInit 0 */

  /* USER CODE END TIM4_MspPostInit 0 */
    __HAL_RCC_GPIOD_CLK_ENABLE();
 80031a6:	2300      	movs	r3, #0
 80031a8:	613b      	str	r3, [r7, #16]
 80031aa:	4b35      	ldr	r3, [pc, #212]	; (8003280 <HAL_TIM_MspPostInit+0xfc>)
 80031ac:	6b1b      	ldr	r3, [r3, #48]	; 0x30
 80031ae:	4a34      	ldr	r2, [pc, #208]	; (8003280 <HAL_TIM_MspPostInit+0xfc>)
 80031b0:	f043 0308 	orr.w	r3, r3, #8
 80031b4:	6313      	str	r3, [r2, #48]	; 0x30
 80031b6:	4b32      	ldr	r3, [pc, #200]	; (8003280 <HAL_TIM_MspPostInit+0xfc>)
 80031b8:	6b1b      	ldr	r3, [r3, #48]	; 0x30
 80031ba:	f003 0308 	and.w	r3, r3, #8
 80031be:	613b      	str	r3, [r7, #16]
 80031c0:	693b      	ldr	r3, [r7, #16]
    /**TIM4 GPIO Configuration
    PD14     ------> TIM4_CH3
    PD12     ------> TIM4_CH1
    */
    GPIO_InitStruct.Pin = GPIO_PIN_14|GPIO_PIN_12;
 80031c2:	f44f 43a0 	mov.w	r3, #20480	; 0x5000
 80031c6:	617b      	str	r3, [r7, #20]
    GPIO_InitStruct.Mode = GPIO_MODE_AF_PP;
 80031c8:	2302      	movs	r3, #2
 80031ca:	61bb      	str	r3, [r7, #24]
    GPIO_InitStruct.Pull = GPIO_NOPULL;
 80031cc:	2300      	movs	r3, #0
 80031ce:	61fb      	str	r3, [r7, #28]
    GPIO_InitStruct.Speed = GPIO_SPEED_FREQ_LOW;
 80031d0:	2300      	movs	r3, #0
 80031d2:	623b      	str	r3, [r7, #32]
    GPIO_InitStruct.Alternate = GPIO_AF2_TIM4;
 80031d4:	2302      	movs	r3, #2
 80031d6:	627b      	str	r3, [r7, #36]	; 0x24
    HAL_GPIO_Init(GPIOD, &GPIO_InitStruct);
 80031d8:	f107 0314 	add.w	r3, r7, #20
 80031dc:	4619      	mov	r1, r3
 80031de:	4829      	ldr	r0, [pc, #164]	; (8003284 <HAL_TIM_MspPostInit+0x100>)
 80031e0:	f001 f91e 	bl	8004420 <HAL_GPIO_Init>
  /* USER CODE BEGIN TIM12_MspPostInit 1 */

  /* USER CODE END TIM12_MspPostInit 1 */
  }

}
 80031e4:	e046      	b.n	8003274 <HAL_TIM_MspPostInit+0xf0>
  else if (timHandle->Instance==TIM2)
 80031e6:	687b      	ldr	r3, [r7, #4]
 80031e8:	681b      	ldr	r3, [r3, #0]
 80031ea:	f1b3 4f80 	cmp.w	r3, #1073741824	; 0x40000000
 80031ee:	d11e      	bne.n	800322e <HAL_TIM_MspPostInit+0xaa>
	    __HAL_RCC_GPIOA_CLK_ENABLE();
 80031f0:	2300      	movs	r3, #0
 80031f2:	60fb      	str	r3, [r7, #12]
 80031f4:	4b22      	ldr	r3, [pc, #136]	; (8003280 <HAL_TIM_MspPostInit+0xfc>)
 80031f6:	6b1b      	ldr	r3, [r3, #48]	; 0x30
 80031f8:	4a21      	ldr	r2, [pc, #132]	; (8003280 <HAL_TIM_MspPostInit+0xfc>)
 80031fa:	f043 0301 	orr.w	r3, r3, #1
 80031fe:	6313      	str	r3, [r2, #48]	; 0x30
 8003200:	4b1f      	ldr	r3, [pc, #124]	; (8003280 <HAL_TIM_MspPostInit+0xfc>)
 8003202:	6b1b      	ldr	r3, [r3, #48]	; 0x30
 8003204:	f003 0301 	and.w	r3, r3, #1
 8003208:	60fb      	str	r3, [r7, #12]
 800320a:	68fb      	ldr	r3, [r7, #12]
	    GPIO_InitStruct.Pin = GPIO_PIN_0|GPIO_PIN_2;
 800320c:	2305      	movs	r3, #5
 800320e:	617b      	str	r3, [r7, #20]
	    GPIO_InitStruct.Mode = GPIO_MODE_AF_PP;
 8003210:	2302      	movs	r3, #2
 8003212:	61bb      	str	r3, [r7, #24]
	    GPIO_InitStruct.Pull = GPIO_NOPULL;
 8003214:	2300      	movs	r3, #0
 8003216:	61fb      	str	r3, [r7, #28]
	    GPIO_InitStruct.Speed = GPIO_SPEED_FREQ_LOW;
 8003218:	2300      	movs	r3, #0
 800321a:	623b      	str	r3, [r7, #32]
	    GPIO_InitStruct.Alternate = GPIO_AF1_TIM2;
 800321c:	2301      	movs	r3, #1
 800321e:	627b      	str	r3, [r7, #36]	; 0x24
	    HAL_GPIO_Init(GPIOA, &GPIO_InitStruct);
 8003220:	f107 0314 	add.w	r3, r7, #20
 8003224:	4619      	mov	r1, r3
 8003226:	4818      	ldr	r0, [pc, #96]	; (8003288 <HAL_TIM_MspPostInit+0x104>)
 8003228:	f001 f8fa 	bl	8004420 <HAL_GPIO_Init>
}
 800322c:	e022      	b.n	8003274 <HAL_TIM_MspPostInit+0xf0>
  else if(timHandle->Instance==TIM12)
 800322e:	687b      	ldr	r3, [r7, #4]
 8003230:	681b      	ldr	r3, [r3, #0]
 8003232:	4a16      	ldr	r2, [pc, #88]	; (800328c <HAL_TIM_MspPostInit+0x108>)
 8003234:	4293      	cmp	r3, r2
 8003236:	d11d      	bne.n	8003274 <HAL_TIM_MspPostInit+0xf0>
    __HAL_RCC_GPIOH_CLK_ENABLE();
 8003238:	2300      	movs	r3, #0
 800323a:	60bb      	str	r3, [r7, #8]
 800323c:	4b10      	ldr	r3, [pc, #64]	; (8003280 <HAL_TIM_MspPostInit+0xfc>)
 800323e:	6b1b      	ldr	r3, [r3, #48]	; 0x30
 8003240:	4a0f      	ldr	r2, [pc, #60]	; (8003280 <HAL_TIM_MspPostInit+0xfc>)
 8003242:	f043 0380 	orr.w	r3, r3, #128	; 0x80
 8003246:	6313      	str	r3, [r2, #48]	; 0x30
 8003248:	4b0d      	ldr	r3, [pc, #52]	; (8003280 <HAL_TIM_MspPostInit+0xfc>)
 800324a:	6b1b      	ldr	r3, [r3, #48]	; 0x30
 800324c:	f003 0380 	and.w	r3, r3, #128	; 0x80
 8003250:	60bb      	str	r3, [r7, #8]
 8003252:	68bb      	ldr	r3, [r7, #8]
    GPIO_InitStruct.Pin = GPIO_PIN_6;
 8003254:	2340      	movs	r3, #64	; 0x40
 8003256:	617b      	str	r3, [r7, #20]
    GPIO_InitStruct.Mode = GPIO_MODE_AF_PP;
 8003258:	2302      	movs	r3, #2
 800325a:	61bb      	str	r3, [r7, #24]
    GPIO_InitStruct.Pull = GPIO_NOPULL;
 800325c:	2300      	movs	r3, #0
 800325e:	61fb      	str	r3, [r7, #28]
    GPIO_InitStruct.Speed = GPIO_SPEED_FREQ_LOW;
 8003260:	2300      	movs	r3, #0
 8003262:	623b      	str	r3, [r7, #32]
    GPIO_InitStruct.Alternate = GPIO_AF9_TIM12;
 8003264:	2309      	movs	r3, #9
 8003266:	627b      	str	r3, [r7, #36]	; 0x24
    HAL_GPIO_Init(GPIOH, &GPIO_InitStruct);
 8003268:	f107 0314 	add.w	r3, r7, #20
 800326c:	4619      	mov	r1, r3
 800326e:	4808      	ldr	r0, [pc, #32]	; (8003290 <HAL_TIM_MspPostInit+0x10c>)
 8003270:	f001 f8d6 	bl	8004420 <HAL_GPIO_Init>
}
 8003274:	bf00      	nop
 8003276:	3728      	adds	r7, #40	; 0x28
 8003278:	46bd      	mov	sp, r7
 800327a:	bd80      	pop	{r7, pc}
 800327c:	40000800 	.word	0x40000800
 8003280:	40023800 	.word	0x40023800
 8003284:	40020c00 	.word	0x40020c00
 8003288:	40020000 	.word	0x40020000
 800328c:	40001800 	.word	0x40001800
 8003290:	40021c00 	.word	0x40021c00

08003294 <__io_putchar>:
  * @brief  Retargets the C library printf function to the USART.
  * @param  None
  * @retval None
  */
PUTCHAR_PROTOTYPE
{
 8003294:	b580      	push	{r7, lr}
 8003296:	b082      	sub	sp, #8
 8003298:	af00      	add	r7, sp, #0
 800329a:	6078      	str	r0, [r7, #4]
  /* Place your implementation of fputc here */
  /* e.g. write a character to the EVAL_COM1 and Loop until the end of transmission */
  HAL_UART_Transmit(&huart7, (uint8_t *)&ch, 1, 0xFFFF);
 800329c:	1d39      	adds	r1, r7, #4
 800329e:	f64f 73ff 	movw	r3, #65535	; 0xffff
 80032a2:	2201      	movs	r2, #1
 80032a4:	4803      	ldr	r0, [pc, #12]	; (80032b4 <__io_putchar+0x20>)
 80032a6:	f002 fd20 	bl	8005cea <HAL_UART_Transmit>

  return ch;
 80032aa:	687b      	ldr	r3, [r7, #4]
}
 80032ac:	4618      	mov	r0, r3
 80032ae:	3708      	adds	r7, #8
 80032b0:	46bd      	mov	sp, r7
 80032b2:	bd80      	pop	{r7, pc}
 80032b4:	20004434 	.word	0x20004434

080032b8 <MX_UART7_Init>:
UART_HandleTypeDef husart6;
//extern char *pdata[PACKLEN+1];

/* UART7 init function */
void MX_UART7_Init(void)
{
 80032b8:	b580      	push	{r7, lr}
 80032ba:	af00      	add	r7, sp, #0

  huart7.Instance = UART7;
 80032bc:	4b11      	ldr	r3, [pc, #68]	; (8003304 <MX_UART7_Init+0x4c>)
 80032be:	4a12      	ldr	r2, [pc, #72]	; (8003308 <MX_UART7_Init+0x50>)
 80032c0:	601a      	str	r2, [r3, #0]
  huart7.Init.BaudRate = 115200;
 80032c2:	4b10      	ldr	r3, [pc, #64]	; (8003304 <MX_UART7_Init+0x4c>)
 80032c4:	f44f 32e1 	mov.w	r2, #115200	; 0x1c200
 80032c8:	605a      	str	r2, [r3, #4]
  huart7.Init.WordLength = UART_WORDLENGTH_8B;
 80032ca:	4b0e      	ldr	r3, [pc, #56]	; (8003304 <MX_UART7_Init+0x4c>)
 80032cc:	2200      	movs	r2, #0
 80032ce:	609a      	str	r2, [r3, #8]
  huart7.Init.StopBits = UART_STOPBITS_1;
 80032d0:	4b0c      	ldr	r3, [pc, #48]	; (8003304 <MX_UART7_Init+0x4c>)
 80032d2:	2200      	movs	r2, #0
 80032d4:	60da      	str	r2, [r3, #12]
  huart7.Init.Parity = UART_PARITY_NONE;
 80032d6:	4b0b      	ldr	r3, [pc, #44]	; (8003304 <MX_UART7_Init+0x4c>)
 80032d8:	2200      	movs	r2, #0
 80032da:	611a      	str	r2, [r3, #16]
  huart7.Init.Mode = UART_MODE_TX_RX;
 80032dc:	4b09      	ldr	r3, [pc, #36]	; (8003304 <MX_UART7_Init+0x4c>)
 80032de:	220c      	movs	r2, #12
 80032e0:	615a      	str	r2, [r3, #20]
  huart7.Init.HwFlowCtl = UART_HWCONTROL_NONE;
 80032e2:	4b08      	ldr	r3, [pc, #32]	; (8003304 <MX_UART7_Init+0x4c>)
 80032e4:	2200      	movs	r2, #0
 80032e6:	619a      	str	r2, [r3, #24]
  huart7.Init.OverSampling = UART_OVERSAMPLING_16;
 80032e8:	4b06      	ldr	r3, [pc, #24]	; (8003304 <MX_UART7_Init+0x4c>)
 80032ea:	2200      	movs	r2, #0
 80032ec:	61da      	str	r2, [r3, #28]
  if (HAL_UART_Init(&huart7) != HAL_OK)
 80032ee:	4805      	ldr	r0, [pc, #20]	; (8003304 <MX_UART7_Init+0x4c>)
 80032f0:	f002 fcae 	bl	8005c50 <HAL_UART_Init>
 80032f4:	4603      	mov	r3, r0
 80032f6:	2b00      	cmp	r3, #0
 80032f8:	d001      	beq.n	80032fe <MX_UART7_Init+0x46>
  {
    Error_Handler();
 80032fa:	f7ff fba1 	bl	8002a40 <Error_Handler>
  }

}
 80032fe:	bf00      	nop
 8003300:	bd80      	pop	{r7, pc}
 8003302:	bf00      	nop
 8003304:	20004434 	.word	0x20004434
 8003308:	40007800 	.word	0x40007800

0800330c <MX_USART6_Init>:

/* USART6 init function */
void MX_USART6_Init(void)
{
 800330c:	b580      	push	{r7, lr}
 800330e:	af00      	add	r7, sp, #0
  husart6.Instance = USART6;
 8003310:	4b14      	ldr	r3, [pc, #80]	; (8003364 <MX_USART6_Init+0x58>)
 8003312:	4a15      	ldr	r2, [pc, #84]	; (8003368 <MX_USART6_Init+0x5c>)
 8003314:	601a      	str	r2, [r3, #0]
  husart6.Init.BaudRate = 115200;
 8003316:	4b13      	ldr	r3, [pc, #76]	; (8003364 <MX_USART6_Init+0x58>)
 8003318:	f44f 32e1 	mov.w	r2, #115200	; 0x1c200
 800331c:	605a      	str	r2, [r3, #4]
  husart6.Init.WordLength = UART_WORDLENGTH_8B;
 800331e:	4b11      	ldr	r3, [pc, #68]	; (8003364 <MX_USART6_Init+0x58>)
 8003320:	2200      	movs	r2, #0
 8003322:	609a      	str	r2, [r3, #8]
  husart6.Init.StopBits = UART_STOPBITS_1;
 8003324:	4b0f      	ldr	r3, [pc, #60]	; (8003364 <MX_USART6_Init+0x58>)
 8003326:	2200      	movs	r2, #0
 8003328:	60da      	str	r2, [r3, #12]
  husart6.Init.Parity = UART_PARITY_NONE;
 800332a:	4b0e      	ldr	r3, [pc, #56]	; (8003364 <MX_USART6_Init+0x58>)
 800332c:	2200      	movs	r2, #0
 800332e:	611a      	str	r2, [r3, #16]
  husart6.Init.Mode = UART_MODE_TX_RX;
 8003330:	4b0c      	ldr	r3, [pc, #48]	; (8003364 <MX_USART6_Init+0x58>)
 8003332:	220c      	movs	r2, #12
 8003334:	615a      	str	r2, [r3, #20]
  husart6.Init.HwFlowCtl = UART_HWCONTROL_NONE;
 8003336:	4b0b      	ldr	r3, [pc, #44]	; (8003364 <MX_USART6_Init+0x58>)
 8003338:	2200      	movs	r2, #0
 800333a:	619a      	str	r2, [r3, #24]
  husart6.Init.OverSampling = UART_OVERSAMPLING_16;
 800333c:	4b09      	ldr	r3, [pc, #36]	; (8003364 <MX_USART6_Init+0x58>)
 800333e:	2200      	movs	r2, #0
 8003340:	61da      	str	r2, [r3, #28]
  if (HAL_UART_Init(&husart6) != HAL_OK)
 8003342:	4808      	ldr	r0, [pc, #32]	; (8003364 <MX_USART6_Init+0x58>)
 8003344:	f002 fc84 	bl	8005c50 <HAL_UART_Init>
 8003348:	4603      	mov	r3, r0
 800334a:	2b00      	cmp	r3, #0
 800334c:	d002      	beq.n	8003354 <MX_USART6_Init+0x48>
  {
    Error_Handler();
 800334e:	f7ff fb77 	bl	8002a40 <Error_Handler>
	HAL_UART_Receive_IT(&husart6, pdata, (PACKLEN));

	  //HAL_UART_Receive_IT(&husart6, UART6_rxBuffer_temp, 12);
	  //printf("sucessfully enabled uart6 \r\n");
  }
}
 8003352:	e004      	b.n	800335e <MX_USART6_Init+0x52>
	HAL_UART_Receive_IT(&husart6, pdata, (PACKLEN));
 8003354:	2220      	movs	r2, #32
 8003356:	4905      	ldr	r1, [pc, #20]	; (800336c <MX_USART6_Init+0x60>)
 8003358:	4802      	ldr	r0, [pc, #8]	; (8003364 <MX_USART6_Init+0x58>)
 800335a:	f002 fd5f 	bl	8005e1c <HAL_UART_Receive_IT>
}
 800335e:	bf00      	nop
 8003360:	bd80      	pop	{r7, pc}
 8003362:	bf00      	nop
 8003364:	200043f4 	.word	0x200043f4
 8003368:	40011400 	.word	0x40011400
 800336c:	200042ac 	.word	0x200042ac

08003370 <HAL_UART_MspInit>:

void HAL_UART_MspInit(UART_HandleTypeDef* uartHandle)
{
 8003370:	b580      	push	{r7, lr}
 8003372:	b08c      	sub	sp, #48	; 0x30
 8003374:	af00      	add	r7, sp, #0
 8003376:	6078      	str	r0, [r7, #4]

  GPIO_InitTypeDef GPIO_InitStruct = {0};
 8003378:	f107 031c 	add.w	r3, r7, #28
 800337c:	2200      	movs	r2, #0
 800337e:	601a      	str	r2, [r3, #0]
 8003380:	605a      	str	r2, [r3, #4]
 8003382:	609a      	str	r2, [r3, #8]
 8003384:	60da      	str	r2, [r3, #12]
 8003386:	611a      	str	r2, [r3, #16]
  if(uartHandle->Instance==UART7)
 8003388:	687b      	ldr	r3, [r7, #4]
 800338a:	681b      	ldr	r3, [r3, #0]
 800338c:	4a38      	ldr	r2, [pc, #224]	; (8003470 <HAL_UART_MspInit+0x100>)
 800338e:	4293      	cmp	r3, r2
 8003390:	d12c      	bne.n	80033ec <HAL_UART_MspInit+0x7c>
  {
  /* USER CODE BEGIN UART7_MspInit 0 */

  /* USER CODE END UART7_MspInit 0 */
    /* UART7 clock enable */
    __HAL_RCC_UART7_CLK_ENABLE();
 8003392:	2300      	movs	r3, #0
 8003394:	61bb      	str	r3, [r7, #24]
 8003396:	4b37      	ldr	r3, [pc, #220]	; (8003474 <HAL_UART_MspInit+0x104>)
 8003398:	6c1b      	ldr	r3, [r3, #64]	; 0x40
 800339a:	4a36      	ldr	r2, [pc, #216]	; (8003474 <HAL_UART_MspInit+0x104>)
 800339c:	f043 4380 	orr.w	r3, r3, #1073741824	; 0x40000000
 80033a0:	6413      	str	r3, [r2, #64]	; 0x40
 80033a2:	4b34      	ldr	r3, [pc, #208]	; (8003474 <HAL_UART_MspInit+0x104>)
 80033a4:	6c1b      	ldr	r3, [r3, #64]	; 0x40
 80033a6:	f003 4380 	and.w	r3, r3, #1073741824	; 0x40000000
 80033aa:	61bb      	str	r3, [r7, #24]
 80033ac:	69bb      	ldr	r3, [r7, #24]

    __HAL_RCC_GPIOE_CLK_ENABLE();
 80033ae:	2300      	movs	r3, #0
 80033b0:	617b      	str	r3, [r7, #20]
 80033b2:	4b30      	ldr	r3, [pc, #192]	; (8003474 <HAL_UART_MspInit+0x104>)
 80033b4:	6b1b      	ldr	r3, [r3, #48]	; 0x30
 80033b6:	4a2f      	ldr	r2, [pc, #188]	; (8003474 <HAL_UART_MspInit+0x104>)
 80033b8:	f043 0310 	orr.w	r3, r3, #16
 80033bc:	6313      	str	r3, [r2, #48]	; 0x30
 80033be:	4b2d      	ldr	r3, [pc, #180]	; (8003474 <HAL_UART_MspInit+0x104>)
 80033c0:	6b1b      	ldr	r3, [r3, #48]	; 0x30
 80033c2:	f003 0310 	and.w	r3, r3, #16
 80033c6:	617b      	str	r3, [r7, #20]
 80033c8:	697b      	ldr	r3, [r7, #20]
    /**UART7 GPIO Configuration
    PE8     ------> UART7_TX
    PE7     ------> UART7_RX
    */
    GPIO_InitStruct.Pin = GPIO_PIN_8|GPIO_PIN_7;
 80033ca:	f44f 73c0 	mov.w	r3, #384	; 0x180
 80033ce:	61fb      	str	r3, [r7, #28]
    GPIO_InitStruct.Mode = GPIO_MODE_AF_PP;
 80033d0:	2302      	movs	r3, #2
 80033d2:	623b      	str	r3, [r7, #32]
    GPIO_InitStruct.Pull = GPIO_PULLUP;
 80033d4:	2301      	movs	r3, #1
 80033d6:	627b      	str	r3, [r7, #36]	; 0x24
    GPIO_InitStruct.Speed = GPIO_SPEED_FREQ_VERY_HIGH;
 80033d8:	2303      	movs	r3, #3
 80033da:	62bb      	str	r3, [r7, #40]	; 0x28
    GPIO_InitStruct.Alternate = GPIO_AF8_UART7;
 80033dc:	2308      	movs	r3, #8
 80033de:	62fb      	str	r3, [r7, #44]	; 0x2c
    HAL_GPIO_Init(GPIOE, &GPIO_InitStruct);
 80033e0:	f107 031c 	add.w	r3, r7, #28
 80033e4:	4619      	mov	r1, r3
 80033e6:	4824      	ldr	r0, [pc, #144]	; (8003478 <HAL_UART_MspInit+0x108>)
 80033e8:	f001 f81a 	bl	8004420 <HAL_GPIO_Init>
  }

  if(uartHandle->Instance==USART6)
 80033ec:	687b      	ldr	r3, [r7, #4]
 80033ee:	681b      	ldr	r3, [r3, #0]
 80033f0:	4a22      	ldr	r2, [pc, #136]	; (800347c <HAL_UART_MspInit+0x10c>)
 80033f2:	4293      	cmp	r3, r2
 80033f4:	d137      	bne.n	8003466 <HAL_UART_MspInit+0xf6>
  {
  /* USER CODE BEGIN UART7_MspInit 0 */

  /* USER CODE END UART7_MspInit 0 */
	/* UART7 clock enable */
	__HAL_RCC_USART6_CLK_ENABLE();
 80033f6:	2300      	movs	r3, #0
 80033f8:	613b      	str	r3, [r7, #16]
 80033fa:	4b1e      	ldr	r3, [pc, #120]	; (8003474 <HAL_UART_MspInit+0x104>)
 80033fc:	6c5b      	ldr	r3, [r3, #68]	; 0x44
 80033fe:	4a1d      	ldr	r2, [pc, #116]	; (8003474 <HAL_UART_MspInit+0x104>)
 8003400:	f043 0320 	orr.w	r3, r3, #32
 8003404:	6453      	str	r3, [r2, #68]	; 0x44
 8003406:	4b1b      	ldr	r3, [pc, #108]	; (8003474 <HAL_UART_MspInit+0x104>)
 8003408:	6c5b      	ldr	r3, [r3, #68]	; 0x44
 800340a:	f003 0320 	and.w	r3, r3, #32
 800340e:	613b      	str	r3, [r7, #16]
 8003410:	693b      	ldr	r3, [r7, #16]

	__HAL_RCC_GPIOG_CLK_ENABLE();
 8003412:	2300      	movs	r3, #0
 8003414:	60fb      	str	r3, [r7, #12]
 8003416:	4b17      	ldr	r3, [pc, #92]	; (8003474 <HAL_UART_MspInit+0x104>)
 8003418:	6b1b      	ldr	r3, [r3, #48]	; 0x30
 800341a:	4a16      	ldr	r2, [pc, #88]	; (8003474 <HAL_UART_MspInit+0x104>)
 800341c:	f043 0340 	orr.w	r3, r3, #64	; 0x40
 8003420:	6313      	str	r3, [r2, #48]	; 0x30
 8003422:	4b14      	ldr	r3, [pc, #80]	; (8003474 <HAL_UART_MspInit+0x104>)
 8003424:	6b1b      	ldr	r3, [r3, #48]	; 0x30
 8003426:	f003 0340 	and.w	r3, r3, #64	; 0x40
 800342a:	60fb      	str	r3, [r7, #12]
 800342c:	68fb      	ldr	r3, [r7, #12]
	/**USART6 GPIO Configuration
	  PG14     ------> USART6_TX
	  PG9     ------> USART6_RX
	*/
	GPIO_InitStruct.Pin = GPIO_PIN_14|GPIO_PIN_9;
 800342e:	f44f 4384 	mov.w	r3, #16896	; 0x4200
 8003432:	61fb      	str	r3, [r7, #28]
	GPIO_InitStruct.Mode = GPIO_MODE_AF_PP;
 8003434:	2302      	movs	r3, #2
 8003436:	623b      	str	r3, [r7, #32]
	GPIO_InitStruct.Pull = GPIO_NOPULL;
 8003438:	2300      	movs	r3, #0
 800343a:	627b      	str	r3, [r7, #36]	; 0x24
	GPIO_InitStruct.Speed = GPIO_SPEED_FREQ_VERY_HIGH;
 800343c:	2303      	movs	r3, #3
 800343e:	62bb      	str	r3, [r7, #40]	; 0x28
	GPIO_InitStruct.Alternate = GPIO_AF8_USART6;
 8003440:	2308      	movs	r3, #8
 8003442:	62fb      	str	r3, [r7, #44]	; 0x2c
	HAL_GPIO_Init(GPIOG, &GPIO_InitStruct);
 8003444:	f107 031c 	add.w	r3, r7, #28
 8003448:	4619      	mov	r1, r3
 800344a:	480d      	ldr	r0, [pc, #52]	; (8003480 <HAL_UART_MspInit+0x110>)
 800344c:	f000 ffe8 	bl	8004420 <HAL_GPIO_Init>

  /* USER CODE BEGIN UART7_MspInit 1 */
	//USART6 Interrput Init
	HAL_NVIC_SetPriority(USART6_IRQn,5,0);
 8003450:	2200      	movs	r2, #0
 8003452:	2105      	movs	r1, #5
 8003454:	2047      	movs	r0, #71	; 0x47
 8003456:	f000 ff97 	bl	8004388 <HAL_NVIC_SetPriority>
	HAL_NVIC_EnableIRQ(USART6_IRQn);
 800345a:	2047      	movs	r0, #71	; 0x47
 800345c:	f000 ffb0 	bl	80043c0 <HAL_NVIC_EnableIRQ>
	printf("initialized usart 6 via the uart function \r \n");
 8003460:	4808      	ldr	r0, [pc, #32]	; (8003484 <HAL_UART_MspInit+0x114>)
 8003462:	f004 fdf3 	bl	800804c <puts>
  /* USER CODE END UART7_MspInit 1 */
  }
}
 8003466:	bf00      	nop
 8003468:	3730      	adds	r7, #48	; 0x30
 800346a:	46bd      	mov	sp, r7
 800346c:	bd80      	pop	{r7, pc}
 800346e:	bf00      	nop
 8003470:	40007800 	.word	0x40007800
 8003474:	40023800 	.word	0x40023800
 8003478:	40021000 	.word	0x40021000
 800347c:	40011400 	.word	0x40011400
 8003480:	40021800 	.word	0x40021800
 8003484:	0800a0cc 	.word	0x0800a0cc

08003488 <Reset_Handler>:

    .section  .text.Reset_Handler
  .weak  Reset_Handler
  .type  Reset_Handler, %function
Reset_Handler:  
  ldr   sp, =_estack      /* set stack pointer */
 8003488:	f8df d034 	ldr.w	sp, [pc, #52]	; 80034c0 <LoopFillZerobss+0x14>

/* Copy the data segment initializers from flash to SRAM */  
  movs  r1, #0
 800348c:	2100      	movs	r1, #0
  b  LoopCopyDataInit
 800348e:	e003      	b.n	8003498 <LoopCopyDataInit>

08003490 <CopyDataInit>:

CopyDataInit:
  ldr  r3, =_sidata
 8003490:	4b0c      	ldr	r3, [pc, #48]	; (80034c4 <LoopFillZerobss+0x18>)
  ldr  r3, [r3, r1]
 8003492:	585b      	ldr	r3, [r3, r1]
  str  r3, [r0, r1]
 8003494:	5043      	str	r3, [r0, r1]
  adds  r1, r1, #4
 8003496:	3104      	adds	r1, #4

08003498 <LoopCopyDataInit>:
    
LoopCopyDataInit:
  ldr  r0, =_sdata
 8003498:	480b      	ldr	r0, [pc, #44]	; (80034c8 <LoopFillZerobss+0x1c>)
  ldr  r3, =_edata
 800349a:	4b0c      	ldr	r3, [pc, #48]	; (80034cc <LoopFillZerobss+0x20>)
  adds  r2, r0, r1
 800349c:	1842      	adds	r2, r0, r1
  cmp  r2, r3
 800349e:	429a      	cmp	r2, r3
  bcc  CopyDataInit
 80034a0:	d3f6      	bcc.n	8003490 <CopyDataInit>
  ldr  r2, =_sbss
 80034a2:	4a0b      	ldr	r2, [pc, #44]	; (80034d0 <LoopFillZerobss+0x24>)
  b  LoopFillZerobss
 80034a4:	e002      	b.n	80034ac <LoopFillZerobss>

080034a6 <FillZerobss>:
/* Zero fill the bss segment. */  
FillZerobss:
  movs  r3, #0
 80034a6:	2300      	movs	r3, #0
  str  r3, [r2], #4
 80034a8:	f842 3b04 	str.w	r3, [r2], #4

080034ac <LoopFillZerobss>:
    
LoopFillZerobss:
  ldr  r3, = _ebss
 80034ac:	4b09      	ldr	r3, [pc, #36]	; (80034d4 <LoopFillZerobss+0x28>)
  cmp  r2, r3
 80034ae:	429a      	cmp	r2, r3
  bcc  FillZerobss
 80034b0:	d3f9      	bcc.n	80034a6 <FillZerobss>

/* Call the clock system intitialization function.*/
  bl  SystemInit   
 80034b2:	f7ff fc4d 	bl	8002d50 <SystemInit>
/* Call static constructors */
    bl __libc_init_array
 80034b6:	f004 fd29 	bl	8007f0c <__libc_init_array>
/* Call the application's entry point.*/
  bl  main
 80034ba:	f7ff fa05 	bl	80028c8 <main>
  bx  lr    
 80034be:	4770      	bx	lr
  ldr   sp, =_estack      /* set stack pointer */
 80034c0:	20030000 	.word	0x20030000
  ldr  r3, =_sidata
 80034c4:	0800a208 	.word	0x0800a208
  ldr  r0, =_sdata
 80034c8:	20000000 	.word	0x20000000
  ldr  r3, =_edata
 80034cc:	20000078 	.word	0x20000078
  ldr  r2, =_sbss
 80034d0:	20000078 	.word	0x20000078
  ldr  r3, = _ebss
 80034d4:	2000447c 	.word	0x2000447c

080034d8 <ADC_IRQHandler>:
 * @retval None       
*/
    .section  .text.Default_Handler,"ax",%progbits
Default_Handler:
Infinite_Loop:
  b  Infinite_Loop
 80034d8:	e7fe      	b.n	80034d8 <ADC_IRQHandler>
	...

080034dc <HAL_Init>:
  *         need to ensure that the SysTick time base is always set to 1 millisecond
  *         to have correct HAL operation.
  * @retval HAL status
  */
HAL_StatusTypeDef HAL_Init(void)
{
 80034dc:	b580      	push	{r7, lr}
 80034de:	af00      	add	r7, sp, #0
  /* Configure Flash prefetch, Instruction cache, Data cache */ 
#if (INSTRUCTION_CACHE_ENABLE != 0U)
  __HAL_FLASH_INSTRUCTION_CACHE_ENABLE();
 80034e0:	4b0e      	ldr	r3, [pc, #56]	; (800351c <HAL_Init+0x40>)
 80034e2:	681b      	ldr	r3, [r3, #0]
 80034e4:	4a0d      	ldr	r2, [pc, #52]	; (800351c <HAL_Init+0x40>)
 80034e6:	f443 7300 	orr.w	r3, r3, #512	; 0x200
 80034ea:	6013      	str	r3, [r2, #0]
#endif /* INSTRUCTION_CACHE_ENABLE */

#if (DATA_CACHE_ENABLE != 0U)
  __HAL_FLASH_DATA_CACHE_ENABLE();
 80034ec:	4b0b      	ldr	r3, [pc, #44]	; (800351c <HAL_Init+0x40>)
 80034ee:	681b      	ldr	r3, [r3, #0]
 80034f0:	4a0a      	ldr	r2, [pc, #40]	; (800351c <HAL_Init+0x40>)
 80034f2:	f443 6380 	orr.w	r3, r3, #1024	; 0x400
 80034f6:	6013      	str	r3, [r2, #0]
#endif /* DATA_CACHE_ENABLE */

#if (PREFETCH_ENABLE != 0U)
  __HAL_FLASH_PREFETCH_BUFFER_ENABLE();
 80034f8:	4b08      	ldr	r3, [pc, #32]	; (800351c <HAL_Init+0x40>)
 80034fa:	681b      	ldr	r3, [r3, #0]
 80034fc:	4a07      	ldr	r2, [pc, #28]	; (800351c <HAL_Init+0x40>)
 80034fe:	f443 7380 	orr.w	r3, r3, #256	; 0x100
 8003502:	6013      	str	r3, [r2, #0]
#endif /* PREFETCH_ENABLE */

  /* Set Interrupt Group Priority */
  HAL_NVIC_SetPriorityGrouping(NVIC_PRIORITYGROUP_4);
 8003504:	2003      	movs	r0, #3
 8003506:	f000 ff34 	bl	8004372 <HAL_NVIC_SetPriorityGrouping>

  /* Use systick as time base source and configure 1ms tick (default clock after Reset is HSI) */
  HAL_InitTick(TICK_INT_PRIORITY);
 800350a:	2000      	movs	r0, #0
 800350c:	f7ff fac8 	bl	8002aa0 <HAL_InitTick>

  /* Init the low level hardware */
  HAL_MspInit();
 8003510:	f7ff fa9a 	bl	8002a48 <HAL_MspInit>

  /* Return function status */
  return HAL_OK;
 8003514:	2300      	movs	r3, #0
}
 8003516:	4618      	mov	r0, r3
 8003518:	bd80      	pop	{r7, pc}
 800351a:	bf00      	nop
 800351c:	40023c00 	.word	0x40023c00

08003520 <HAL_IncTick>:
 * @note This function is declared as __weak to be overwritten in case of other 
  *      implementations in user file.
  * @retval None
  */
__weak void HAL_IncTick(void)
{
 8003520:	b480      	push	{r7}
 8003522:	af00      	add	r7, sp, #0
  uwTick += uwTickFreq;
 8003524:	4b06      	ldr	r3, [pc, #24]	; (8003540 <HAL_IncTick+0x20>)
 8003526:	781b      	ldrb	r3, [r3, #0]
 8003528:	461a      	mov	r2, r3
 800352a:	4b06      	ldr	r3, [pc, #24]	; (8003544 <HAL_IncTick+0x24>)
 800352c:	681b      	ldr	r3, [r3, #0]
 800352e:	4413      	add	r3, r2
 8003530:	4a04      	ldr	r2, [pc, #16]	; (8003544 <HAL_IncTick+0x24>)
 8003532:	6013      	str	r3, [r2, #0]
}
 8003534:	bf00      	nop
 8003536:	46bd      	mov	sp, r7
 8003538:	f85d 7b04 	ldr.w	r7, [sp], #4
 800353c:	4770      	bx	lr
 800353e:	bf00      	nop
 8003540:	20000008 	.word	0x20000008
 8003544:	20004474 	.word	0x20004474

08003548 <HAL_GetTick>:
  * @note This function is declared as __weak to be overwritten in case of other 
  *       implementations in user file.
  * @retval tick value
  */
__weak uint32_t HAL_GetTick(void)
{
 8003548:	b480      	push	{r7}
 800354a:	af00      	add	r7, sp, #0
  return uwTick;
 800354c:	4b03      	ldr	r3, [pc, #12]	; (800355c <HAL_GetTick+0x14>)
 800354e:	681b      	ldr	r3, [r3, #0]
}
 8003550:	4618      	mov	r0, r3
 8003552:	46bd      	mov	sp, r7
 8003554:	f85d 7b04 	ldr.w	r7, [sp], #4
 8003558:	4770      	bx	lr
 800355a:	bf00      	nop
 800355c:	20004474 	.word	0x20004474

08003560 <HAL_CAN_Init>:
  * @param  hcan pointer to a CAN_HandleTypeDef structure that contains
  *         the configuration information for the specified CAN.
  * @retval HAL status
  */
HAL_StatusTypeDef HAL_CAN_Init(CAN_HandleTypeDef *hcan)
{
 8003560:	b580      	push	{r7, lr}
 8003562:	b084      	sub	sp, #16
 8003564:	af00      	add	r7, sp, #0
 8003566:	6078      	str	r0, [r7, #4]
  uint32_t tickstart;

  /* Check CAN handle */
  if (hcan == NULL)
 8003568:	687b      	ldr	r3, [r7, #4]
 800356a:	2b00      	cmp	r3, #0
 800356c:	d101      	bne.n	8003572 <HAL_CAN_Init+0x12>
  {
    return HAL_ERROR;
 800356e:	2301      	movs	r3, #1
 8003570:	e0ed      	b.n	800374e <HAL_CAN_Init+0x1ee>
    /* Init the low level hardware: CLOCK, NVIC */
    hcan->MspInitCallback(hcan);
  }

#else
  if (hcan->State == HAL_CAN_STATE_RESET)
 8003572:	687b      	ldr	r3, [r7, #4]
 8003574:	f893 3020 	ldrb.w	r3, [r3, #32]
 8003578:	b2db      	uxtb	r3, r3
 800357a:	2b00      	cmp	r3, #0
 800357c:	d102      	bne.n	8003584 <HAL_CAN_Init+0x24>
  {
    /* Init the low level hardware: CLOCK, NVIC */
    HAL_CAN_MspInit(hcan);
 800357e:	6878      	ldr	r0, [r7, #4]
 8003580:	f7fe ff14 	bl	80023ac <HAL_CAN_MspInit>
  }
#endif /* (USE_HAL_CAN_REGISTER_CALLBACKS) */

  /* Exit from sleep mode */
  CLEAR_BIT(hcan->Instance->MCR, CAN_MCR_SLEEP);
 8003584:	687b      	ldr	r3, [r7, #4]
 8003586:	681b      	ldr	r3, [r3, #0]
 8003588:	681a      	ldr	r2, [r3, #0]
 800358a:	687b      	ldr	r3, [r7, #4]
 800358c:	681b      	ldr	r3, [r3, #0]
 800358e:	f022 0202 	bic.w	r2, r2, #2
 8003592:	601a      	str	r2, [r3, #0]

  /* Get tick */
  tickstart = HAL_GetTick();
 8003594:	f7ff ffd8 	bl	8003548 <HAL_GetTick>
 8003598:	60f8      	str	r0, [r7, #12]

  /* Check Sleep mode leave acknowledge */
  while ((hcan->Instance->MSR & CAN_MSR_SLAK) != 0U)
 800359a:	e012      	b.n	80035c2 <HAL_CAN_Init+0x62>
  {
    if ((HAL_GetTick() - tickstart) > CAN_TIMEOUT_VALUE)
 800359c:	f7ff ffd4 	bl	8003548 <HAL_GetTick>
 80035a0:	4602      	mov	r2, r0
 80035a2:	68fb      	ldr	r3, [r7, #12]
 80035a4:	1ad3      	subs	r3, r2, r3
 80035a6:	2b0a      	cmp	r3, #10
 80035a8:	d90b      	bls.n	80035c2 <HAL_CAN_Init+0x62>
    {
      /* Update error code */
      hcan->ErrorCode |= HAL_CAN_ERROR_TIMEOUT;
 80035aa:	687b      	ldr	r3, [r7, #4]
 80035ac:	6a5b      	ldr	r3, [r3, #36]	; 0x24
 80035ae:	f443 3200 	orr.w	r2, r3, #131072	; 0x20000
 80035b2:	687b      	ldr	r3, [r7, #4]
 80035b4:	625a      	str	r2, [r3, #36]	; 0x24

      /* Change CAN state */
      hcan->State = HAL_CAN_STATE_ERROR;
 80035b6:	687b      	ldr	r3, [r7, #4]
 80035b8:	2205      	movs	r2, #5
 80035ba:	f883 2020 	strb.w	r2, [r3, #32]

      return HAL_ERROR;
 80035be:	2301      	movs	r3, #1
 80035c0:	e0c5      	b.n	800374e <HAL_CAN_Init+0x1ee>
  while ((hcan->Instance->MSR & CAN_MSR_SLAK) != 0U)
 80035c2:	687b      	ldr	r3, [r7, #4]
 80035c4:	681b      	ldr	r3, [r3, #0]
 80035c6:	685b      	ldr	r3, [r3, #4]
 80035c8:	f003 0302 	and.w	r3, r3, #2
 80035cc:	2b00      	cmp	r3, #0
 80035ce:	d1e5      	bne.n	800359c <HAL_CAN_Init+0x3c>
    }
  }

  /* Request initialisation */
  SET_BIT(hcan->Instance->MCR, CAN_MCR_INRQ);
 80035d0:	687b      	ldr	r3, [r7, #4]
 80035d2:	681b      	ldr	r3, [r3, #0]
 80035d4:	681a      	ldr	r2, [r3, #0]
 80035d6:	687b      	ldr	r3, [r7, #4]
 80035d8:	681b      	ldr	r3, [r3, #0]
 80035da:	f042 0201 	orr.w	r2, r2, #1
 80035de:	601a      	str	r2, [r3, #0]

  /* Get tick */
  tickstart = HAL_GetTick();
 80035e0:	f7ff ffb2 	bl	8003548 <HAL_GetTick>
 80035e4:	60f8      	str	r0, [r7, #12]

  /* Wait initialisation acknowledge */
  while ((hcan->Instance->MSR & CAN_MSR_INAK) == 0U)
 80035e6:	e012      	b.n	800360e <HAL_CAN_Init+0xae>
  {
    if ((HAL_GetTick() - tickstart) > CAN_TIMEOUT_VALUE)
 80035e8:	f7ff ffae 	bl	8003548 <HAL_GetTick>
 80035ec:	4602      	mov	r2, r0
 80035ee:	68fb      	ldr	r3, [r7, #12]
 80035f0:	1ad3      	subs	r3, r2, r3
 80035f2:	2b0a      	cmp	r3, #10
 80035f4:	d90b      	bls.n	800360e <HAL_CAN_Init+0xae>
    {
      /* Update error code */
      hcan->ErrorCode |= HAL_CAN_ERROR_TIMEOUT;
 80035f6:	687b      	ldr	r3, [r7, #4]
 80035f8:	6a5b      	ldr	r3, [r3, #36]	; 0x24
 80035fa:	f443 3200 	orr.w	r2, r3, #131072	; 0x20000
 80035fe:	687b      	ldr	r3, [r7, #4]
 8003600:	625a      	str	r2, [r3, #36]	; 0x24

      /* Change CAN state */
      hcan->State = HAL_CAN_STATE_ERROR;
 8003602:	687b      	ldr	r3, [r7, #4]
 8003604:	2205      	movs	r2, #5
 8003606:	f883 2020 	strb.w	r2, [r3, #32]

      return HAL_ERROR;
 800360a:	2301      	movs	r3, #1
 800360c:	e09f      	b.n	800374e <HAL_CAN_Init+0x1ee>
  while ((hcan->Instance->MSR & CAN_MSR_INAK) == 0U)
 800360e:	687b      	ldr	r3, [r7, #4]
 8003610:	681b      	ldr	r3, [r3, #0]
 8003612:	685b      	ldr	r3, [r3, #4]
 8003614:	f003 0301 	and.w	r3, r3, #1
 8003618:	2b00      	cmp	r3, #0
 800361a:	d0e5      	beq.n	80035e8 <HAL_CAN_Init+0x88>
    }
  }

  /* Set the time triggered communication mode */
  if (hcan->Init.TimeTriggeredMode == ENABLE)
 800361c:	687b      	ldr	r3, [r7, #4]
 800361e:	7e1b      	ldrb	r3, [r3, #24]
 8003620:	2b01      	cmp	r3, #1
 8003622:	d108      	bne.n	8003636 <HAL_CAN_Init+0xd6>
  {
    SET_BIT(hcan->Instance->MCR, CAN_MCR_TTCM);
 8003624:	687b      	ldr	r3, [r7, #4]
 8003626:	681b      	ldr	r3, [r3, #0]
 8003628:	681a      	ldr	r2, [r3, #0]
 800362a:	687b      	ldr	r3, [r7, #4]
 800362c:	681b      	ldr	r3, [r3, #0]
 800362e:	f042 0280 	orr.w	r2, r2, #128	; 0x80
 8003632:	601a      	str	r2, [r3, #0]
 8003634:	e007      	b.n	8003646 <HAL_CAN_Init+0xe6>
  }
  else
  {
    CLEAR_BIT(hcan->Instance->MCR, CAN_MCR_TTCM);
 8003636:	687b      	ldr	r3, [r7, #4]
 8003638:	681b      	ldr	r3, [r3, #0]
 800363a:	681a      	ldr	r2, [r3, #0]
 800363c:	687b      	ldr	r3, [r7, #4]
 800363e:	681b      	ldr	r3, [r3, #0]
 8003640:	f022 0280 	bic.w	r2, r2, #128	; 0x80
 8003644:	601a      	str	r2, [r3, #0]
  }

  /* Set the automatic bus-off management */
  if (hcan->Init.AutoBusOff == ENABLE)
 8003646:	687b      	ldr	r3, [r7, #4]
 8003648:	7e5b      	ldrb	r3, [r3, #25]
 800364a:	2b01      	cmp	r3, #1
 800364c:	d108      	bne.n	8003660 <HAL_CAN_Init+0x100>
  {
    SET_BIT(hcan->Instance->MCR, CAN_MCR_ABOM);
 800364e:	687b      	ldr	r3, [r7, #4]
 8003650:	681b      	ldr	r3, [r3, #0]
 8003652:	681a      	ldr	r2, [r3, #0]
 8003654:	687b      	ldr	r3, [r7, #4]
 8003656:	681b      	ldr	r3, [r3, #0]
 8003658:	f042 0240 	orr.w	r2, r2, #64	; 0x40
 800365c:	601a      	str	r2, [r3, #0]
 800365e:	e007      	b.n	8003670 <HAL_CAN_Init+0x110>
  }
  else
  {
    CLEAR_BIT(hcan->Instance->MCR, CAN_MCR_ABOM);
 8003660:	687b      	ldr	r3, [r7, #4]
 8003662:	681b      	ldr	r3, [r3, #0]
 8003664:	681a      	ldr	r2, [r3, #0]
 8003666:	687b      	ldr	r3, [r7, #4]
 8003668:	681b      	ldr	r3, [r3, #0]
 800366a:	f022 0240 	bic.w	r2, r2, #64	; 0x40
 800366e:	601a      	str	r2, [r3, #0]
  }

  /* Set the automatic wake-up mode */
  if (hcan->Init.AutoWakeUp == ENABLE)
 8003670:	687b      	ldr	r3, [r7, #4]
 8003672:	7e9b      	ldrb	r3, [r3, #26]
 8003674:	2b01      	cmp	r3, #1
 8003676:	d108      	bne.n	800368a <HAL_CAN_Init+0x12a>
  {
    SET_BIT(hcan->Instance->MCR, CAN_MCR_AWUM);
 8003678:	687b      	ldr	r3, [r7, #4]
 800367a:	681b      	ldr	r3, [r3, #0]
 800367c:	681a      	ldr	r2, [r3, #0]
 800367e:	687b      	ldr	r3, [r7, #4]
 8003680:	681b      	ldr	r3, [r3, #0]
 8003682:	f042 0220 	orr.w	r2, r2, #32
 8003686:	601a      	str	r2, [r3, #0]
 8003688:	e007      	b.n	800369a <HAL_CAN_Init+0x13a>
  }
  else
  {
    CLEAR_BIT(hcan->Instance->MCR, CAN_MCR_AWUM);
 800368a:	687b      	ldr	r3, [r7, #4]
 800368c:	681b      	ldr	r3, [r3, #0]
 800368e:	681a      	ldr	r2, [r3, #0]
 8003690:	687b      	ldr	r3, [r7, #4]
 8003692:	681b      	ldr	r3, [r3, #0]
 8003694:	f022 0220 	bic.w	r2, r2, #32
 8003698:	601a      	str	r2, [r3, #0]
  }

  /* Set the automatic retransmission */
  if (hcan->Init.AutoRetransmission == ENABLE)
 800369a:	687b      	ldr	r3, [r7, #4]
 800369c:	7edb      	ldrb	r3, [r3, #27]
 800369e:	2b01      	cmp	r3, #1
 80036a0:	d108      	bne.n	80036b4 <HAL_CAN_Init+0x154>
  {
    CLEAR_BIT(hcan->Instance->MCR, CAN_MCR_NART);
 80036a2:	687b      	ldr	r3, [r7, #4]
 80036a4:	681b      	ldr	r3, [r3, #0]
 80036a6:	681a      	ldr	r2, [r3, #0]
 80036a8:	687b      	ldr	r3, [r7, #4]
 80036aa:	681b      	ldr	r3, [r3, #0]
 80036ac:	f022 0210 	bic.w	r2, r2, #16
 80036b0:	601a      	str	r2, [r3, #0]
 80036b2:	e007      	b.n	80036c4 <HAL_CAN_Init+0x164>
  }
  else
  {
    SET_BIT(hcan->Instance->MCR, CAN_MCR_NART);
 80036b4:	687b      	ldr	r3, [r7, #4]
 80036b6:	681b      	ldr	r3, [r3, #0]
 80036b8:	681a      	ldr	r2, [r3, #0]
 80036ba:	687b      	ldr	r3, [r7, #4]
 80036bc:	681b      	ldr	r3, [r3, #0]
 80036be:	f042 0210 	orr.w	r2, r2, #16
 80036c2:	601a      	str	r2, [r3, #0]
  }

  /* Set the receive FIFO locked mode */
  if (hcan->Init.ReceiveFifoLocked == ENABLE)
 80036c4:	687b      	ldr	r3, [r7, #4]
 80036c6:	7f1b      	ldrb	r3, [r3, #28]
 80036c8:	2b01      	cmp	r3, #1
 80036ca:	d108      	bne.n	80036de <HAL_CAN_Init+0x17e>
  {
    SET_BIT(hcan->Instance->MCR, CAN_MCR_RFLM);
 80036cc:	687b      	ldr	r3, [r7, #4]
 80036ce:	681b      	ldr	r3, [r3, #0]
 80036d0:	681a      	ldr	r2, [r3, #0]
 80036d2:	687b      	ldr	r3, [r7, #4]
 80036d4:	681b      	ldr	r3, [r3, #0]
 80036d6:	f042 0208 	orr.w	r2, r2, #8
 80036da:	601a      	str	r2, [r3, #0]
 80036dc:	e007      	b.n	80036ee <HAL_CAN_Init+0x18e>
  }
  else
  {
    CLEAR_BIT(hcan->Instance->MCR, CAN_MCR_RFLM);
 80036de:	687b      	ldr	r3, [r7, #4]
 80036e0:	681b      	ldr	r3, [r3, #0]
 80036e2:	681a      	ldr	r2, [r3, #0]
 80036e4:	687b      	ldr	r3, [r7, #4]
 80036e6:	681b      	ldr	r3, [r3, #0]
 80036e8:	f022 0208 	bic.w	r2, r2, #8
 80036ec:	601a      	str	r2, [r3, #0]
  }

  /* Set the transmit FIFO priority */
  if (hcan->Init.TransmitFifoPriority == ENABLE)
 80036ee:	687b      	ldr	r3, [r7, #4]
 80036f0:	7f5b      	ldrb	r3, [r3, #29]
 80036f2:	2b01      	cmp	r3, #1
 80036f4:	d108      	bne.n	8003708 <HAL_CAN_Init+0x1a8>
  {
    SET_BIT(hcan->Instance->MCR, CAN_MCR_TXFP);
 80036f6:	687b      	ldr	r3, [r7, #4]
 80036f8:	681b      	ldr	r3, [r3, #0]
 80036fa:	681a      	ldr	r2, [r3, #0]
 80036fc:	687b      	ldr	r3, [r7, #4]
 80036fe:	681b      	ldr	r3, [r3, #0]
 8003700:	f042 0204 	orr.w	r2, r2, #4
 8003704:	601a      	str	r2, [r3, #0]
 8003706:	e007      	b.n	8003718 <HAL_CAN_Init+0x1b8>
  }
  else
  {
    CLEAR_BIT(hcan->Instance->MCR, CAN_MCR_TXFP);
 8003708:	687b      	ldr	r3, [r7, #4]
 800370a:	681b      	ldr	r3, [r3, #0]
 800370c:	681a      	ldr	r2, [r3, #0]
 800370e:	687b      	ldr	r3, [r7, #4]
 8003710:	681b      	ldr	r3, [r3, #0]
 8003712:	f022 0204 	bic.w	r2, r2, #4
 8003716:	601a      	str	r2, [r3, #0]
  }

  /* Set the bit timing register */
  WRITE_REG(hcan->Instance->BTR, (uint32_t)(hcan->Init.Mode           |
 8003718:	687b      	ldr	r3, [r7, #4]
 800371a:	689a      	ldr	r2, [r3, #8]
 800371c:	687b      	ldr	r3, [r7, #4]
 800371e:	68db      	ldr	r3, [r3, #12]
 8003720:	431a      	orrs	r2, r3
 8003722:	687b      	ldr	r3, [r7, #4]
 8003724:	691b      	ldr	r3, [r3, #16]
 8003726:	431a      	orrs	r2, r3
 8003728:	687b      	ldr	r3, [r7, #4]
 800372a:	695b      	ldr	r3, [r3, #20]
 800372c:	ea42 0103 	orr.w	r1, r2, r3
 8003730:	687b      	ldr	r3, [r7, #4]
 8003732:	685b      	ldr	r3, [r3, #4]
 8003734:	1e5a      	subs	r2, r3, #1
 8003736:	687b      	ldr	r3, [r7, #4]
 8003738:	681b      	ldr	r3, [r3, #0]
 800373a:	430a      	orrs	r2, r1
 800373c:	61da      	str	r2, [r3, #28]
                                            hcan->Init.TimeSeg1       |
                                            hcan->Init.TimeSeg2       |
                                            (hcan->Init.Prescaler - 1U)));

  /* Initialize the error code */
  hcan->ErrorCode = HAL_CAN_ERROR_NONE;
 800373e:	687b      	ldr	r3, [r7, #4]
 8003740:	2200      	movs	r2, #0
 8003742:	625a      	str	r2, [r3, #36]	; 0x24

  /* Initialize the CAN state */
  hcan->State = HAL_CAN_STATE_READY;
 8003744:	687b      	ldr	r3, [r7, #4]
 8003746:	2201      	movs	r2, #1
 8003748:	f883 2020 	strb.w	r2, [r3, #32]

  /* Return function status */
  return HAL_OK;
 800374c:	2300      	movs	r3, #0
}
 800374e:	4618      	mov	r0, r3
 8003750:	3710      	adds	r7, #16
 8003752:	46bd      	mov	sp, r7
 8003754:	bd80      	pop	{r7, pc}
	...

08003758 <HAL_CAN_ConfigFilter>:
  * @param  sFilterConfig pointer to a CAN_FilterTypeDef structure that
  *         contains the filter configuration information.
  * @retval None
  */
HAL_StatusTypeDef HAL_CAN_ConfigFilter(CAN_HandleTypeDef *hcan, CAN_FilterTypeDef *sFilterConfig)
{
 8003758:	b480      	push	{r7}
 800375a:	b087      	sub	sp, #28
 800375c:	af00      	add	r7, sp, #0
 800375e:	6078      	str	r0, [r7, #4]
 8003760:	6039      	str	r1, [r7, #0]
  uint32_t filternbrbitpos;
  CAN_TypeDef *can_ip = hcan->Instance;
 8003762:	687b      	ldr	r3, [r7, #4]
 8003764:	681b      	ldr	r3, [r3, #0]
 8003766:	617b      	str	r3, [r7, #20]
  HAL_CAN_StateTypeDef state = hcan->State;
 8003768:	687b      	ldr	r3, [r7, #4]
 800376a:	f893 3020 	ldrb.w	r3, [r3, #32]
 800376e:	74fb      	strb	r3, [r7, #19]

  if ((state == HAL_CAN_STATE_READY) ||
 8003770:	7cfb      	ldrb	r3, [r7, #19]
 8003772:	2b01      	cmp	r3, #1
 8003774:	d003      	beq.n	800377e <HAL_CAN_ConfigFilter+0x26>
 8003776:	7cfb      	ldrb	r3, [r7, #19]
 8003778:	2b02      	cmp	r3, #2
 800377a:	f040 80be 	bne.w	80038fa <HAL_CAN_ConfigFilter+0x1a2>
      assert_param(IS_CAN_FILTER_BANK_DUAL(sFilterConfig->SlaveStartFilterBank));
    }
#elif defined(CAN2)
    /* CAN1 and CAN2 are dual instances with 28 common filters banks */
    /* Select master instance to access the filter banks */
    can_ip = CAN1;
 800377e:	4b65      	ldr	r3, [pc, #404]	; (8003914 <HAL_CAN_ConfigFilter+0x1bc>)
 8003780:	617b      	str	r3, [r7, #20]
    /* Check the parameters */
    assert_param(IS_CAN_FILTER_BANK_SINGLE(sFilterConfig->FilterBank));
#endif

    /* Initialisation mode for the filter */
    SET_BIT(can_ip->FMR, CAN_FMR_FINIT);
 8003782:	697b      	ldr	r3, [r7, #20]
 8003784:	f8d3 3200 	ldr.w	r3, [r3, #512]	; 0x200
 8003788:	f043 0201 	orr.w	r2, r3, #1
 800378c:	697b      	ldr	r3, [r7, #20]
 800378e:	f8c3 2200 	str.w	r2, [r3, #512]	; 0x200
      SET_BIT(can_ip->FMR, sFilterConfig->SlaveStartFilterBank << CAN_FMR_CAN2SB_Pos);
    }

#elif defined(CAN2)
    /* Select the start filter number of CAN2 slave instance */
    CLEAR_BIT(can_ip->FMR, CAN_FMR_CAN2SB);
 8003792:	697b      	ldr	r3, [r7, #20]
 8003794:	f8d3 3200 	ldr.w	r3, [r3, #512]	; 0x200
 8003798:	f423 527c 	bic.w	r2, r3, #16128	; 0x3f00
 800379c:	697b      	ldr	r3, [r7, #20]
 800379e:	f8c3 2200 	str.w	r2, [r3, #512]	; 0x200
    SET_BIT(can_ip->FMR, sFilterConfig->SlaveStartFilterBank << CAN_FMR_CAN2SB_Pos);
 80037a2:	697b      	ldr	r3, [r7, #20]
 80037a4:	f8d3 2200 	ldr.w	r2, [r3, #512]	; 0x200
 80037a8:	683b      	ldr	r3, [r7, #0]
 80037aa:	6a5b      	ldr	r3, [r3, #36]	; 0x24
 80037ac:	021b      	lsls	r3, r3, #8
 80037ae:	431a      	orrs	r2, r3
 80037b0:	697b      	ldr	r3, [r7, #20]
 80037b2:	f8c3 2200 	str.w	r2, [r3, #512]	; 0x200

#endif
    /* Convert filter number into bit position */
    filternbrbitpos = (uint32_t)1 << (sFilterConfig->FilterBank & 0x1FU);
 80037b6:	683b      	ldr	r3, [r7, #0]
 80037b8:	695b      	ldr	r3, [r3, #20]
 80037ba:	f003 031f 	and.w	r3, r3, #31
 80037be:	2201      	movs	r2, #1
 80037c0:	fa02 f303 	lsl.w	r3, r2, r3
 80037c4:	60fb      	str	r3, [r7, #12]

    /* Filter Deactivation */
    CLEAR_BIT(can_ip->FA1R, filternbrbitpos);
 80037c6:	697b      	ldr	r3, [r7, #20]
 80037c8:	f8d3 221c 	ldr.w	r2, [r3, #540]	; 0x21c
 80037cc:	68fb      	ldr	r3, [r7, #12]
 80037ce:	43db      	mvns	r3, r3
 80037d0:	401a      	ands	r2, r3
 80037d2:	697b      	ldr	r3, [r7, #20]
 80037d4:	f8c3 221c 	str.w	r2, [r3, #540]	; 0x21c

    /* Filter Scale */
    if (sFilterConfig->FilterScale == CAN_FILTERSCALE_16BIT)
 80037d8:	683b      	ldr	r3, [r7, #0]
 80037da:	69db      	ldr	r3, [r3, #28]
 80037dc:	2b00      	cmp	r3, #0
 80037de:	d123      	bne.n	8003828 <HAL_CAN_ConfigFilter+0xd0>
    {
      /* 16-bit scale for the filter */
      CLEAR_BIT(can_ip->FS1R, filternbrbitpos);
 80037e0:	697b      	ldr	r3, [r7, #20]
 80037e2:	f8d3 220c 	ldr.w	r2, [r3, #524]	; 0x20c
 80037e6:	68fb      	ldr	r3, [r7, #12]
 80037e8:	43db      	mvns	r3, r3
 80037ea:	401a      	ands	r2, r3
 80037ec:	697b      	ldr	r3, [r7, #20]
 80037ee:	f8c3 220c 	str.w	r2, [r3, #524]	; 0x20c

      /* First 16-bit identifier and First 16-bit mask */
      /* Or First 16-bit identifier and Second 16-bit identifier */
      can_ip->sFilterRegister[sFilterConfig->FilterBank].FR1 =
        ((0x0000FFFFU & (uint32_t)sFilterConfig->FilterMaskIdLow) << 16U) |
 80037f2:	683b      	ldr	r3, [r7, #0]
 80037f4:	68db      	ldr	r3, [r3, #12]
 80037f6:	0419      	lsls	r1, r3, #16
        (0x0000FFFFU & (uint32_t)sFilterConfig->FilterIdLow);
 80037f8:	683b      	ldr	r3, [r7, #0]
 80037fa:	685b      	ldr	r3, [r3, #4]
 80037fc:	b29b      	uxth	r3, r3
      can_ip->sFilterRegister[sFilterConfig->FilterBank].FR1 =
 80037fe:	683a      	ldr	r2, [r7, #0]
 8003800:	6952      	ldr	r2, [r2, #20]
        ((0x0000FFFFU & (uint32_t)sFilterConfig->FilterMaskIdLow) << 16U) |
 8003802:	4319      	orrs	r1, r3
      can_ip->sFilterRegister[sFilterConfig->FilterBank].FR1 =
 8003804:	697b      	ldr	r3, [r7, #20]
 8003806:	3248      	adds	r2, #72	; 0x48
 8003808:	f843 1032 	str.w	r1, [r3, r2, lsl #3]

      /* Second 16-bit identifier and Second 16-bit mask */
      /* Or Third 16-bit identifier and Fourth 16-bit identifier */
      can_ip->sFilterRegister[sFilterConfig->FilterBank].FR2 =
        ((0x0000FFFFU & (uint32_t)sFilterConfig->FilterMaskIdHigh) << 16U) |
 800380c:	683b      	ldr	r3, [r7, #0]
 800380e:	689b      	ldr	r3, [r3, #8]
 8003810:	0419      	lsls	r1, r3, #16
        (0x0000FFFFU & (uint32_t)sFilterConfig->FilterIdHigh);
 8003812:	683b      	ldr	r3, [r7, #0]
 8003814:	681b      	ldr	r3, [r3, #0]
 8003816:	b29a      	uxth	r2, r3
      can_ip->sFilterRegister[sFilterConfig->FilterBank].FR2 =
 8003818:	683b      	ldr	r3, [r7, #0]
 800381a:	695b      	ldr	r3, [r3, #20]
        ((0x0000FFFFU & (uint32_t)sFilterConfig->FilterMaskIdHigh) << 16U) |
 800381c:	430a      	orrs	r2, r1
      can_ip->sFilterRegister[sFilterConfig->FilterBank].FR2 =
 800381e:	6979      	ldr	r1, [r7, #20]
 8003820:	3348      	adds	r3, #72	; 0x48
 8003822:	00db      	lsls	r3, r3, #3
 8003824:	440b      	add	r3, r1
 8003826:	605a      	str	r2, [r3, #4]
    }

    if (sFilterConfig->FilterScale == CAN_FILTERSCALE_32BIT)
 8003828:	683b      	ldr	r3, [r7, #0]
 800382a:	69db      	ldr	r3, [r3, #28]
 800382c:	2b01      	cmp	r3, #1
 800382e:	d122      	bne.n	8003876 <HAL_CAN_ConfigFilter+0x11e>
    {
      /* 32-bit scale for the filter */
      SET_BIT(can_ip->FS1R, filternbrbitpos);
 8003830:	697b      	ldr	r3, [r7, #20]
 8003832:	f8d3 220c 	ldr.w	r2, [r3, #524]	; 0x20c
 8003836:	68fb      	ldr	r3, [r7, #12]
 8003838:	431a      	orrs	r2, r3
 800383a:	697b      	ldr	r3, [r7, #20]
 800383c:	f8c3 220c 	str.w	r2, [r3, #524]	; 0x20c

      /* 32-bit identifier or First 32-bit identifier */
      can_ip->sFilterRegister[sFilterConfig->FilterBank].FR1 =
        ((0x0000FFFFU & (uint32_t)sFilterConfig->FilterIdHigh) << 16U) |
 8003840:	683b      	ldr	r3, [r7, #0]
 8003842:	681b      	ldr	r3, [r3, #0]
 8003844:	0419      	lsls	r1, r3, #16
        (0x0000FFFFU & (uint32_t)sFilterConfig->FilterIdLow);
 8003846:	683b      	ldr	r3, [r7, #0]
 8003848:	685b      	ldr	r3, [r3, #4]
 800384a:	b29b      	uxth	r3, r3
      can_ip->sFilterRegister[sFilterConfig->FilterBank].FR1 =
 800384c:	683a      	ldr	r2, [r7, #0]
 800384e:	6952      	ldr	r2, [r2, #20]
        ((0x0000FFFFU & (uint32_t)sFilterConfig->FilterIdHigh) << 16U) |
 8003850:	4319      	orrs	r1, r3
      can_ip->sFilterRegister[sFilterConfig->FilterBank].FR1 =
 8003852:	697b      	ldr	r3, [r7, #20]
 8003854:	3248      	adds	r2, #72	; 0x48
 8003856:	f843 1032 	str.w	r1, [r3, r2, lsl #3]

      /* 32-bit mask or Second 32-bit identifier */
      can_ip->sFilterRegister[sFilterConfig->FilterBank].FR2 =
        ((0x0000FFFFU & (uint32_t)sFilterConfig->FilterMaskIdHigh) << 16U) |
 800385a:	683b      	ldr	r3, [r7, #0]
 800385c:	689b      	ldr	r3, [r3, #8]
 800385e:	0419      	lsls	r1, r3, #16
        (0x0000FFFFU & (uint32_t)sFilterConfig->FilterMaskIdLow);
 8003860:	683b      	ldr	r3, [r7, #0]
 8003862:	68db      	ldr	r3, [r3, #12]
 8003864:	b29a      	uxth	r2, r3
      can_ip->sFilterRegister[sFilterConfig->FilterBank].FR2 =
 8003866:	683b      	ldr	r3, [r7, #0]
 8003868:	695b      	ldr	r3, [r3, #20]
        ((0x0000FFFFU & (uint32_t)sFilterConfig->FilterMaskIdHigh) << 16U) |
 800386a:	430a      	orrs	r2, r1
      can_ip->sFilterRegister[sFilterConfig->FilterBank].FR2 =
 800386c:	6979      	ldr	r1, [r7, #20]
 800386e:	3348      	adds	r3, #72	; 0x48
 8003870:	00db      	lsls	r3, r3, #3
 8003872:	440b      	add	r3, r1
 8003874:	605a      	str	r2, [r3, #4]
    }

    /* Filter Mode */
    if (sFilterConfig->FilterMode == CAN_FILTERMODE_IDMASK)
 8003876:	683b      	ldr	r3, [r7, #0]
 8003878:	699b      	ldr	r3, [r3, #24]
 800387a:	2b00      	cmp	r3, #0
 800387c:	d109      	bne.n	8003892 <HAL_CAN_ConfigFilter+0x13a>
    {
      /* Id/Mask mode for the filter*/
      CLEAR_BIT(can_ip->FM1R, filternbrbitpos);
 800387e:	697b      	ldr	r3, [r7, #20]
 8003880:	f8d3 2204 	ldr.w	r2, [r3, #516]	; 0x204
 8003884:	68fb      	ldr	r3, [r7, #12]
 8003886:	43db      	mvns	r3, r3
 8003888:	401a      	ands	r2, r3
 800388a:	697b      	ldr	r3, [r7, #20]
 800388c:	f8c3 2204 	str.w	r2, [r3, #516]	; 0x204
 8003890:	e007      	b.n	80038a2 <HAL_CAN_ConfigFilter+0x14a>
    }
    else /* CAN_FilterInitStruct->CAN_FilterMode == CAN_FilterMode_IdList */
    {
      /* Identifier list mode for the filter*/
      SET_BIT(can_ip->FM1R, filternbrbitpos);
 8003892:	697b      	ldr	r3, [r7, #20]
 8003894:	f8d3 2204 	ldr.w	r2, [r3, #516]	; 0x204
 8003898:	68fb      	ldr	r3, [r7, #12]
 800389a:	431a      	orrs	r2, r3
 800389c:	697b      	ldr	r3, [r7, #20]
 800389e:	f8c3 2204 	str.w	r2, [r3, #516]	; 0x204
    }

    /* Filter FIFO assignment */
    if (sFilterConfig->FilterFIFOAssignment == CAN_FILTER_FIFO0)
 80038a2:	683b      	ldr	r3, [r7, #0]
 80038a4:	691b      	ldr	r3, [r3, #16]
 80038a6:	2b00      	cmp	r3, #0
 80038a8:	d109      	bne.n	80038be <HAL_CAN_ConfigFilter+0x166>
    {
      /* FIFO 0 assignation for the filter */
      CLEAR_BIT(can_ip->FFA1R, filternbrbitpos);
 80038aa:	697b      	ldr	r3, [r7, #20]
 80038ac:	f8d3 2214 	ldr.w	r2, [r3, #532]	; 0x214
 80038b0:	68fb      	ldr	r3, [r7, #12]
 80038b2:	43db      	mvns	r3, r3
 80038b4:	401a      	ands	r2, r3
 80038b6:	697b      	ldr	r3, [r7, #20]
 80038b8:	f8c3 2214 	str.w	r2, [r3, #532]	; 0x214
 80038bc:	e007      	b.n	80038ce <HAL_CAN_ConfigFilter+0x176>
    }
    else
    {
      /* FIFO 1 assignation for the filter */
      SET_BIT(can_ip->FFA1R, filternbrbitpos);
 80038be:	697b      	ldr	r3, [r7, #20]
 80038c0:	f8d3 2214 	ldr.w	r2, [r3, #532]	; 0x214
 80038c4:	68fb      	ldr	r3, [r7, #12]
 80038c6:	431a      	orrs	r2, r3
 80038c8:	697b      	ldr	r3, [r7, #20]
 80038ca:	f8c3 2214 	str.w	r2, [r3, #532]	; 0x214
    }

    /* Filter activation */
    if (sFilterConfig->FilterActivation == CAN_FILTER_ENABLE)
 80038ce:	683b      	ldr	r3, [r7, #0]
 80038d0:	6a1b      	ldr	r3, [r3, #32]
 80038d2:	2b01      	cmp	r3, #1
 80038d4:	d107      	bne.n	80038e6 <HAL_CAN_ConfigFilter+0x18e>
    {
      SET_BIT(can_ip->FA1R, filternbrbitpos);
 80038d6:	697b      	ldr	r3, [r7, #20]
 80038d8:	f8d3 221c 	ldr.w	r2, [r3, #540]	; 0x21c
 80038dc:	68fb      	ldr	r3, [r7, #12]
 80038de:	431a      	orrs	r2, r3
 80038e0:	697b      	ldr	r3, [r7, #20]
 80038e2:	f8c3 221c 	str.w	r2, [r3, #540]	; 0x21c
    }

    /* Leave the initialisation mode for the filter */
    CLEAR_BIT(can_ip->FMR, CAN_FMR_FINIT);
 80038e6:	697b      	ldr	r3, [r7, #20]
 80038e8:	f8d3 3200 	ldr.w	r3, [r3, #512]	; 0x200
 80038ec:	f023 0201 	bic.w	r2, r3, #1
 80038f0:	697b      	ldr	r3, [r7, #20]
 80038f2:	f8c3 2200 	str.w	r2, [r3, #512]	; 0x200

    /* Return function status */
    return HAL_OK;
 80038f6:	2300      	movs	r3, #0
 80038f8:	e006      	b.n	8003908 <HAL_CAN_ConfigFilter+0x1b0>
  }
  else
  {
    /* Update error code */
    hcan->ErrorCode |= HAL_CAN_ERROR_NOT_INITIALIZED;
 80038fa:	687b      	ldr	r3, [r7, #4]
 80038fc:	6a5b      	ldr	r3, [r3, #36]	; 0x24
 80038fe:	f443 2280 	orr.w	r2, r3, #262144	; 0x40000
 8003902:	687b      	ldr	r3, [r7, #4]
 8003904:	625a      	str	r2, [r3, #36]	; 0x24

    return HAL_ERROR;
 8003906:	2301      	movs	r3, #1
  }
}
 8003908:	4618      	mov	r0, r3
 800390a:	371c      	adds	r7, #28
 800390c:	46bd      	mov	sp, r7
 800390e:	f85d 7b04 	ldr.w	r7, [sp], #4
 8003912:	4770      	bx	lr
 8003914:	40006400 	.word	0x40006400

08003918 <HAL_CAN_Start>:
  * @param  hcan pointer to an CAN_HandleTypeDef structure that contains
  *         the configuration information for the specified CAN.
  * @retval HAL status
  */
HAL_StatusTypeDef HAL_CAN_Start(CAN_HandleTypeDef *hcan)
{
 8003918:	b580      	push	{r7, lr}
 800391a:	b084      	sub	sp, #16
 800391c:	af00      	add	r7, sp, #0
 800391e:	6078      	str	r0, [r7, #4]
  uint32_t tickstart;

  if (hcan->State == HAL_CAN_STATE_READY)
 8003920:	687b      	ldr	r3, [r7, #4]
 8003922:	f893 3020 	ldrb.w	r3, [r3, #32]
 8003926:	b2db      	uxtb	r3, r3
 8003928:	2b01      	cmp	r3, #1
 800392a:	d12e      	bne.n	800398a <HAL_CAN_Start+0x72>
  {
    /* Change CAN peripheral state */
    hcan->State = HAL_CAN_STATE_LISTENING;
 800392c:	687b      	ldr	r3, [r7, #4]
 800392e:	2202      	movs	r2, #2
 8003930:	f883 2020 	strb.w	r2, [r3, #32]

    /* Request leave initialisation */
    CLEAR_BIT(hcan->Instance->MCR, CAN_MCR_INRQ);
 8003934:	687b      	ldr	r3, [r7, #4]
 8003936:	681b      	ldr	r3, [r3, #0]
 8003938:	681a      	ldr	r2, [r3, #0]
 800393a:	687b      	ldr	r3, [r7, #4]
 800393c:	681b      	ldr	r3, [r3, #0]
 800393e:	f022 0201 	bic.w	r2, r2, #1
 8003942:	601a      	str	r2, [r3, #0]

    /* Get tick */
    tickstart = HAL_GetTick();
 8003944:	f7ff fe00 	bl	8003548 <HAL_GetTick>
 8003948:	60f8      	str	r0, [r7, #12]

    /* Wait the acknowledge */
    while ((hcan->Instance->MSR & CAN_MSR_INAK) != 0U)
 800394a:	e012      	b.n	8003972 <HAL_CAN_Start+0x5a>
    {
      /* Check for the Timeout */
      if ((HAL_GetTick() - tickstart) > CAN_TIMEOUT_VALUE)
 800394c:	f7ff fdfc 	bl	8003548 <HAL_GetTick>
 8003950:	4602      	mov	r2, r0
 8003952:	68fb      	ldr	r3, [r7, #12]
 8003954:	1ad3      	subs	r3, r2, r3
 8003956:	2b0a      	cmp	r3, #10
 8003958:	d90b      	bls.n	8003972 <HAL_CAN_Start+0x5a>
      {
        /* Update error code */
        hcan->ErrorCode |= HAL_CAN_ERROR_TIMEOUT;
 800395a:	687b      	ldr	r3, [r7, #4]
 800395c:	6a5b      	ldr	r3, [r3, #36]	; 0x24
 800395e:	f443 3200 	orr.w	r2, r3, #131072	; 0x20000
 8003962:	687b      	ldr	r3, [r7, #4]
 8003964:	625a      	str	r2, [r3, #36]	; 0x24

        /* Change CAN state */
        hcan->State = HAL_CAN_STATE_ERROR;
 8003966:	687b      	ldr	r3, [r7, #4]
 8003968:	2205      	movs	r2, #5
 800396a:	f883 2020 	strb.w	r2, [r3, #32]

        return HAL_ERROR;
 800396e:	2301      	movs	r3, #1
 8003970:	e012      	b.n	8003998 <HAL_CAN_Start+0x80>
    while ((hcan->Instance->MSR & CAN_MSR_INAK) != 0U)
 8003972:	687b      	ldr	r3, [r7, #4]
 8003974:	681b      	ldr	r3, [r3, #0]
 8003976:	685b      	ldr	r3, [r3, #4]
 8003978:	f003 0301 	and.w	r3, r3, #1
 800397c:	2b00      	cmp	r3, #0
 800397e:	d1e5      	bne.n	800394c <HAL_CAN_Start+0x34>
      }
    }

    /* Reset the CAN ErrorCode */
    hcan->ErrorCode = HAL_CAN_ERROR_NONE;
 8003980:	687b      	ldr	r3, [r7, #4]
 8003982:	2200      	movs	r2, #0
 8003984:	625a      	str	r2, [r3, #36]	; 0x24

    /* Return function status */
    return HAL_OK;
 8003986:	2300      	movs	r3, #0
 8003988:	e006      	b.n	8003998 <HAL_CAN_Start+0x80>
  }
  else
  {
    /* Update error code */
    hcan->ErrorCode |= HAL_CAN_ERROR_NOT_READY;
 800398a:	687b      	ldr	r3, [r7, #4]
 800398c:	6a5b      	ldr	r3, [r3, #36]	; 0x24
 800398e:	f443 2200 	orr.w	r2, r3, #524288	; 0x80000
 8003992:	687b      	ldr	r3, [r7, #4]
 8003994:	625a      	str	r2, [r3, #36]	; 0x24

    return HAL_ERROR;
 8003996:	2301      	movs	r3, #1
  }
}
 8003998:	4618      	mov	r0, r3
 800399a:	3710      	adds	r7, #16
 800399c:	46bd      	mov	sp, r7
 800399e:	bd80      	pop	{r7, pc}

080039a0 <HAL_CAN_AddTxMessage>:
  *         the TxMailbox used to store the Tx message.
  *         This parameter can be a value of @arg CAN_Tx_Mailboxes.
  * @retval HAL status
  */
HAL_StatusTypeDef HAL_CAN_AddTxMessage(CAN_HandleTypeDef *hcan, CAN_TxHeaderTypeDef *pHeader, uint8_t aData[], uint32_t *pTxMailbox)
{
 80039a0:	b480      	push	{r7}
 80039a2:	b089      	sub	sp, #36	; 0x24
 80039a4:	af00      	add	r7, sp, #0
 80039a6:	60f8      	str	r0, [r7, #12]
 80039a8:	60b9      	str	r1, [r7, #8]
 80039aa:	607a      	str	r2, [r7, #4]
 80039ac:	603b      	str	r3, [r7, #0]
  uint32_t transmitmailbox;
  HAL_CAN_StateTypeDef state = hcan->State;
 80039ae:	68fb      	ldr	r3, [r7, #12]
 80039b0:	f893 3020 	ldrb.w	r3, [r3, #32]
 80039b4:	77fb      	strb	r3, [r7, #31]
  uint32_t tsr = READ_REG(hcan->Instance->TSR);
 80039b6:	68fb      	ldr	r3, [r7, #12]
 80039b8:	681b      	ldr	r3, [r3, #0]
 80039ba:	689b      	ldr	r3, [r3, #8]
 80039bc:	61bb      	str	r3, [r7, #24]
  {
    assert_param(IS_CAN_EXTID(pHeader->ExtId));
  }
  assert_param(IS_FUNCTIONAL_STATE(pHeader->TransmitGlobalTime));

  if ((state == HAL_CAN_STATE_READY) ||
 80039be:	7ffb      	ldrb	r3, [r7, #31]
 80039c0:	2b01      	cmp	r3, #1
 80039c2:	d003      	beq.n	80039cc <HAL_CAN_AddTxMessage+0x2c>
 80039c4:	7ffb      	ldrb	r3, [r7, #31]
 80039c6:	2b02      	cmp	r3, #2
 80039c8:	f040 80b8 	bne.w	8003b3c <HAL_CAN_AddTxMessage+0x19c>
      (state == HAL_CAN_STATE_LISTENING))
  {
    /* Check that all the Tx mailboxes are not full */
    if (((tsr & CAN_TSR_TME0) != 0U) ||
 80039cc:	69bb      	ldr	r3, [r7, #24]
 80039ce:	f003 6380 	and.w	r3, r3, #67108864	; 0x4000000
 80039d2:	2b00      	cmp	r3, #0
 80039d4:	d10a      	bne.n	80039ec <HAL_CAN_AddTxMessage+0x4c>
        ((tsr & CAN_TSR_TME1) != 0U) ||
 80039d6:	69bb      	ldr	r3, [r7, #24]
 80039d8:	f003 6300 	and.w	r3, r3, #134217728	; 0x8000000
    if (((tsr & CAN_TSR_TME0) != 0U) ||
 80039dc:	2b00      	cmp	r3, #0
 80039de:	d105      	bne.n	80039ec <HAL_CAN_AddTxMessage+0x4c>
        ((tsr & CAN_TSR_TME2) != 0U))
 80039e0:	69bb      	ldr	r3, [r7, #24]
 80039e2:	f003 5380 	and.w	r3, r3, #268435456	; 0x10000000
        ((tsr & CAN_TSR_TME1) != 0U) ||
 80039e6:	2b00      	cmp	r3, #0
 80039e8:	f000 80a0 	beq.w	8003b2c <HAL_CAN_AddTxMessage+0x18c>
    {
      /* Select an empty transmit mailbox */
      transmitmailbox = (tsr & CAN_TSR_CODE) >> CAN_TSR_CODE_Pos;
 80039ec:	69bb      	ldr	r3, [r7, #24]
 80039ee:	0e1b      	lsrs	r3, r3, #24
 80039f0:	f003 0303 	and.w	r3, r3, #3
 80039f4:	617b      	str	r3, [r7, #20]

      /* Check transmit mailbox value */
      if (transmitmailbox > 2U)
 80039f6:	697b      	ldr	r3, [r7, #20]
 80039f8:	2b02      	cmp	r3, #2
 80039fa:	d907      	bls.n	8003a0c <HAL_CAN_AddTxMessage+0x6c>
      {
        /* Update error code */
        hcan->ErrorCode |= HAL_CAN_ERROR_INTERNAL;
 80039fc:	68fb      	ldr	r3, [r7, #12]
 80039fe:	6a5b      	ldr	r3, [r3, #36]	; 0x24
 8003a00:	f443 0200 	orr.w	r2, r3, #8388608	; 0x800000
 8003a04:	68fb      	ldr	r3, [r7, #12]
 8003a06:	625a      	str	r2, [r3, #36]	; 0x24

        return HAL_ERROR;
 8003a08:	2301      	movs	r3, #1
 8003a0a:	e09e      	b.n	8003b4a <HAL_CAN_AddTxMessage+0x1aa>
      }

      /* Store the Tx mailbox */
      *pTxMailbox = (uint32_t)1 << transmitmailbox;
 8003a0c:	2201      	movs	r2, #1
 8003a0e:	697b      	ldr	r3, [r7, #20]
 8003a10:	409a      	lsls	r2, r3
 8003a12:	683b      	ldr	r3, [r7, #0]
 8003a14:	601a      	str	r2, [r3, #0]

      /* Set up the Id */
      if (pHeader->IDE == CAN_ID_STD)
 8003a16:	68bb      	ldr	r3, [r7, #8]
 8003a18:	689b      	ldr	r3, [r3, #8]
 8003a1a:	2b00      	cmp	r3, #0
 8003a1c:	d10d      	bne.n	8003a3a <HAL_CAN_AddTxMessage+0x9a>
      {
        hcan->Instance->sTxMailBox[transmitmailbox].TIR = ((pHeader->StdId << CAN_TI0R_STID_Pos) |
 8003a1e:	68bb      	ldr	r3, [r7, #8]
 8003a20:	681b      	ldr	r3, [r3, #0]
 8003a22:	055a      	lsls	r2, r3, #21
                                                           pHeader->RTR);
 8003a24:	68bb      	ldr	r3, [r7, #8]
 8003a26:	68db      	ldr	r3, [r3, #12]
        hcan->Instance->sTxMailBox[transmitmailbox].TIR = ((pHeader->StdId << CAN_TI0R_STID_Pos) |
 8003a28:	68f9      	ldr	r1, [r7, #12]
 8003a2a:	6809      	ldr	r1, [r1, #0]
 8003a2c:	431a      	orrs	r2, r3
 8003a2e:	697b      	ldr	r3, [r7, #20]
 8003a30:	3318      	adds	r3, #24
 8003a32:	011b      	lsls	r3, r3, #4
 8003a34:	440b      	add	r3, r1
 8003a36:	601a      	str	r2, [r3, #0]
 8003a38:	e00f      	b.n	8003a5a <HAL_CAN_AddTxMessage+0xba>
      }
      else
      {
        hcan->Instance->sTxMailBox[transmitmailbox].TIR = ((pHeader->ExtId << CAN_TI0R_EXID_Pos) |
 8003a3a:	68bb      	ldr	r3, [r7, #8]
 8003a3c:	685b      	ldr	r3, [r3, #4]
 8003a3e:	00da      	lsls	r2, r3, #3
                                                           pHeader->IDE |
 8003a40:	68bb      	ldr	r3, [r7, #8]
 8003a42:	689b      	ldr	r3, [r3, #8]
        hcan->Instance->sTxMailBox[transmitmailbox].TIR = ((pHeader->ExtId << CAN_TI0R_EXID_Pos) |
 8003a44:	431a      	orrs	r2, r3
                                                           pHeader->RTR);
 8003a46:	68bb      	ldr	r3, [r7, #8]
 8003a48:	68db      	ldr	r3, [r3, #12]
        hcan->Instance->sTxMailBox[transmitmailbox].TIR = ((pHeader->ExtId << CAN_TI0R_EXID_Pos) |
 8003a4a:	68f9      	ldr	r1, [r7, #12]
 8003a4c:	6809      	ldr	r1, [r1, #0]
                                                           pHeader->IDE |
 8003a4e:	431a      	orrs	r2, r3
        hcan->Instance->sTxMailBox[transmitmailbox].TIR = ((pHeader->ExtId << CAN_TI0R_EXID_Pos) |
 8003a50:	697b      	ldr	r3, [r7, #20]
 8003a52:	3318      	adds	r3, #24
 8003a54:	011b      	lsls	r3, r3, #4
 8003a56:	440b      	add	r3, r1
 8003a58:	601a      	str	r2, [r3, #0]
      }

      /* Set up the DLC */
      hcan->Instance->sTxMailBox[transmitmailbox].TDTR = (pHeader->DLC);
 8003a5a:	68fb      	ldr	r3, [r7, #12]
 8003a5c:	6819      	ldr	r1, [r3, #0]
 8003a5e:	68bb      	ldr	r3, [r7, #8]
 8003a60:	691a      	ldr	r2, [r3, #16]
 8003a62:	697b      	ldr	r3, [r7, #20]
 8003a64:	3318      	adds	r3, #24
 8003a66:	011b      	lsls	r3, r3, #4
 8003a68:	440b      	add	r3, r1
 8003a6a:	3304      	adds	r3, #4
 8003a6c:	601a      	str	r2, [r3, #0]

      /* Set up the Transmit Global Time mode */
      if (pHeader->TransmitGlobalTime == ENABLE)
 8003a6e:	68bb      	ldr	r3, [r7, #8]
 8003a70:	7d1b      	ldrb	r3, [r3, #20]
 8003a72:	2b01      	cmp	r3, #1
 8003a74:	d111      	bne.n	8003a9a <HAL_CAN_AddTxMessage+0xfa>
      {
        SET_BIT(hcan->Instance->sTxMailBox[transmitmailbox].TDTR, CAN_TDT0R_TGT);
 8003a76:	68fb      	ldr	r3, [r7, #12]
 8003a78:	681a      	ldr	r2, [r3, #0]
 8003a7a:	697b      	ldr	r3, [r7, #20]
 8003a7c:	3318      	adds	r3, #24
 8003a7e:	011b      	lsls	r3, r3, #4
 8003a80:	4413      	add	r3, r2
 8003a82:	3304      	adds	r3, #4
 8003a84:	681b      	ldr	r3, [r3, #0]
 8003a86:	68fa      	ldr	r2, [r7, #12]
 8003a88:	6811      	ldr	r1, [r2, #0]
 8003a8a:	f443 7280 	orr.w	r2, r3, #256	; 0x100
 8003a8e:	697b      	ldr	r3, [r7, #20]
 8003a90:	3318      	adds	r3, #24
 8003a92:	011b      	lsls	r3, r3, #4
 8003a94:	440b      	add	r3, r1
 8003a96:	3304      	adds	r3, #4
 8003a98:	601a      	str	r2, [r3, #0]
      }

      /* Set up the data field */
      WRITE_REG(hcan->Instance->sTxMailBox[transmitmailbox].TDHR,
 8003a9a:	687b      	ldr	r3, [r7, #4]
 8003a9c:	3307      	adds	r3, #7
 8003a9e:	781b      	ldrb	r3, [r3, #0]
 8003aa0:	061a      	lsls	r2, r3, #24
 8003aa2:	687b      	ldr	r3, [r7, #4]
 8003aa4:	3306      	adds	r3, #6
 8003aa6:	781b      	ldrb	r3, [r3, #0]
 8003aa8:	041b      	lsls	r3, r3, #16
 8003aaa:	431a      	orrs	r2, r3
 8003aac:	687b      	ldr	r3, [r7, #4]
 8003aae:	3305      	adds	r3, #5
 8003ab0:	781b      	ldrb	r3, [r3, #0]
 8003ab2:	021b      	lsls	r3, r3, #8
 8003ab4:	4313      	orrs	r3, r2
 8003ab6:	687a      	ldr	r2, [r7, #4]
 8003ab8:	3204      	adds	r2, #4
 8003aba:	7812      	ldrb	r2, [r2, #0]
 8003abc:	4610      	mov	r0, r2
 8003abe:	68fa      	ldr	r2, [r7, #12]
 8003ac0:	6811      	ldr	r1, [r2, #0]
 8003ac2:	ea43 0200 	orr.w	r2, r3, r0
 8003ac6:	697b      	ldr	r3, [r7, #20]
 8003ac8:	011b      	lsls	r3, r3, #4
 8003aca:	440b      	add	r3, r1
 8003acc:	f503 73c6 	add.w	r3, r3, #396	; 0x18c
 8003ad0:	601a      	str	r2, [r3, #0]
                ((uint32_t)aData[7] << CAN_TDH0R_DATA7_Pos) |
                ((uint32_t)aData[6] << CAN_TDH0R_DATA6_Pos) |
                ((uint32_t)aData[5] << CAN_TDH0R_DATA5_Pos) |
                ((uint32_t)aData[4] << CAN_TDH0R_DATA4_Pos));
      WRITE_REG(hcan->Instance->sTxMailBox[transmitmailbox].TDLR,
 8003ad2:	687b      	ldr	r3, [r7, #4]
 8003ad4:	3303      	adds	r3, #3
 8003ad6:	781b      	ldrb	r3, [r3, #0]
 8003ad8:	061a      	lsls	r2, r3, #24
 8003ada:	687b      	ldr	r3, [r7, #4]
 8003adc:	3302      	adds	r3, #2
 8003ade:	781b      	ldrb	r3, [r3, #0]
 8003ae0:	041b      	lsls	r3, r3, #16
 8003ae2:	431a      	orrs	r2, r3
 8003ae4:	687b      	ldr	r3, [r7, #4]
 8003ae6:	3301      	adds	r3, #1
 8003ae8:	781b      	ldrb	r3, [r3, #0]
 8003aea:	021b      	lsls	r3, r3, #8
 8003aec:	4313      	orrs	r3, r2
 8003aee:	687a      	ldr	r2, [r7, #4]
 8003af0:	7812      	ldrb	r2, [r2, #0]
 8003af2:	4610      	mov	r0, r2
 8003af4:	68fa      	ldr	r2, [r7, #12]
 8003af6:	6811      	ldr	r1, [r2, #0]
 8003af8:	ea43 0200 	orr.w	r2, r3, r0
 8003afc:	697b      	ldr	r3, [r7, #20]
 8003afe:	011b      	lsls	r3, r3, #4
 8003b00:	440b      	add	r3, r1
 8003b02:	f503 73c4 	add.w	r3, r3, #392	; 0x188
 8003b06:	601a      	str	r2, [r3, #0]
                ((uint32_t)aData[2] << CAN_TDL0R_DATA2_Pos) |
                ((uint32_t)aData[1] << CAN_TDL0R_DATA1_Pos) |
                ((uint32_t)aData[0] << CAN_TDL0R_DATA0_Pos));

      /* Request transmission */
      SET_BIT(hcan->Instance->sTxMailBox[transmitmailbox].TIR, CAN_TI0R_TXRQ);
 8003b08:	68fb      	ldr	r3, [r7, #12]
 8003b0a:	681a      	ldr	r2, [r3, #0]
 8003b0c:	697b      	ldr	r3, [r7, #20]
 8003b0e:	3318      	adds	r3, #24
 8003b10:	011b      	lsls	r3, r3, #4
 8003b12:	4413      	add	r3, r2
 8003b14:	681b      	ldr	r3, [r3, #0]
 8003b16:	68fa      	ldr	r2, [r7, #12]
 8003b18:	6811      	ldr	r1, [r2, #0]
 8003b1a:	f043 0201 	orr.w	r2, r3, #1
 8003b1e:	697b      	ldr	r3, [r7, #20]
 8003b20:	3318      	adds	r3, #24
 8003b22:	011b      	lsls	r3, r3, #4
 8003b24:	440b      	add	r3, r1
 8003b26:	601a      	str	r2, [r3, #0]

      /* Return function status */
      return HAL_OK;
 8003b28:	2300      	movs	r3, #0
 8003b2a:	e00e      	b.n	8003b4a <HAL_CAN_AddTxMessage+0x1aa>
    }
    else
    {
      /* Update error code */
      hcan->ErrorCode |= HAL_CAN_ERROR_PARAM;
 8003b2c:	68fb      	ldr	r3, [r7, #12]
 8003b2e:	6a5b      	ldr	r3, [r3, #36]	; 0x24
 8003b30:	f443 1200 	orr.w	r2, r3, #2097152	; 0x200000
 8003b34:	68fb      	ldr	r3, [r7, #12]
 8003b36:	625a      	str	r2, [r3, #36]	; 0x24

      return HAL_ERROR;
 8003b38:	2301      	movs	r3, #1
 8003b3a:	e006      	b.n	8003b4a <HAL_CAN_AddTxMessage+0x1aa>
    }
  }
  else
  {
    /* Update error code */
    hcan->ErrorCode |= HAL_CAN_ERROR_NOT_INITIALIZED;
 8003b3c:	68fb      	ldr	r3, [r7, #12]
 8003b3e:	6a5b      	ldr	r3, [r3, #36]	; 0x24
 8003b40:	f443 2280 	orr.w	r2, r3, #262144	; 0x40000
 8003b44:	68fb      	ldr	r3, [r7, #12]
 8003b46:	625a      	str	r2, [r3, #36]	; 0x24

    return HAL_ERROR;
 8003b48:	2301      	movs	r3, #1
  }
}
 8003b4a:	4618      	mov	r0, r3
 8003b4c:	3724      	adds	r7, #36	; 0x24
 8003b4e:	46bd      	mov	sp, r7
 8003b50:	f85d 7b04 	ldr.w	r7, [sp], #4
 8003b54:	4770      	bx	lr

08003b56 <HAL_CAN_GetRxMessage>:
  *         of the Rx frame will be stored.
  * @param  aData array where the payload of the Rx frame will be stored.
  * @retval HAL status
  */
HAL_StatusTypeDef HAL_CAN_GetRxMessage(CAN_HandleTypeDef *hcan, uint32_t RxFifo, CAN_RxHeaderTypeDef *pHeader, uint8_t aData[])
{
 8003b56:	b480      	push	{r7}
 8003b58:	b087      	sub	sp, #28
 8003b5a:	af00      	add	r7, sp, #0
 8003b5c:	60f8      	str	r0, [r7, #12]
 8003b5e:	60b9      	str	r1, [r7, #8]
 8003b60:	607a      	str	r2, [r7, #4]
 8003b62:	603b      	str	r3, [r7, #0]
  HAL_CAN_StateTypeDef state = hcan->State;
 8003b64:	68fb      	ldr	r3, [r7, #12]
 8003b66:	f893 3020 	ldrb.w	r3, [r3, #32]
 8003b6a:	75fb      	strb	r3, [r7, #23]

  assert_param(IS_CAN_RX_FIFO(RxFifo));

  if ((state == HAL_CAN_STATE_READY) ||
 8003b6c:	7dfb      	ldrb	r3, [r7, #23]
 8003b6e:	2b01      	cmp	r3, #1
 8003b70:	d003      	beq.n	8003b7a <HAL_CAN_GetRxMessage+0x24>
 8003b72:	7dfb      	ldrb	r3, [r7, #23]
 8003b74:	2b02      	cmp	r3, #2
 8003b76:	f040 80f3 	bne.w	8003d60 <HAL_CAN_GetRxMessage+0x20a>
      (state == HAL_CAN_STATE_LISTENING))
  {
    /* Check the Rx FIFO */
    if (RxFifo == CAN_RX_FIFO0) /* Rx element is assigned to Rx FIFO 0 */
 8003b7a:	68bb      	ldr	r3, [r7, #8]
 8003b7c:	2b00      	cmp	r3, #0
 8003b7e:	d10e      	bne.n	8003b9e <HAL_CAN_GetRxMessage+0x48>
    {
      /* Check that the Rx FIFO 0 is not empty */
      if ((hcan->Instance->RF0R & CAN_RF0R_FMP0) == 0U)
 8003b80:	68fb      	ldr	r3, [r7, #12]
 8003b82:	681b      	ldr	r3, [r3, #0]
 8003b84:	68db      	ldr	r3, [r3, #12]
 8003b86:	f003 0303 	and.w	r3, r3, #3
 8003b8a:	2b00      	cmp	r3, #0
 8003b8c:	d116      	bne.n	8003bbc <HAL_CAN_GetRxMessage+0x66>
      {
        /* Update error code */
        hcan->ErrorCode |= HAL_CAN_ERROR_PARAM;
 8003b8e:	68fb      	ldr	r3, [r7, #12]
 8003b90:	6a5b      	ldr	r3, [r3, #36]	; 0x24
 8003b92:	f443 1200 	orr.w	r2, r3, #2097152	; 0x200000
 8003b96:	68fb      	ldr	r3, [r7, #12]
 8003b98:	625a      	str	r2, [r3, #36]	; 0x24

        return HAL_ERROR;
 8003b9a:	2301      	movs	r3, #1
 8003b9c:	e0e7      	b.n	8003d6e <HAL_CAN_GetRxMessage+0x218>
      }
    }
    else /* Rx element is assigned to Rx FIFO 1 */
    {
      /* Check that the Rx FIFO 1 is not empty */
      if ((hcan->Instance->RF1R & CAN_RF1R_FMP1) == 0U)
 8003b9e:	68fb      	ldr	r3, [r7, #12]
 8003ba0:	681b      	ldr	r3, [r3, #0]
 8003ba2:	691b      	ldr	r3, [r3, #16]
 8003ba4:	f003 0303 	and.w	r3, r3, #3
 8003ba8:	2b00      	cmp	r3, #0
 8003baa:	d107      	bne.n	8003bbc <HAL_CAN_GetRxMessage+0x66>
      {
        /* Update error code */
        hcan->ErrorCode |= HAL_CAN_ERROR_PARAM;
 8003bac:	68fb      	ldr	r3, [r7, #12]
 8003bae:	6a5b      	ldr	r3, [r3, #36]	; 0x24
 8003bb0:	f443 1200 	orr.w	r2, r3, #2097152	; 0x200000
 8003bb4:	68fb      	ldr	r3, [r7, #12]
 8003bb6:	625a      	str	r2, [r3, #36]	; 0x24

        return HAL_ERROR;
 8003bb8:	2301      	movs	r3, #1
 8003bba:	e0d8      	b.n	8003d6e <HAL_CAN_GetRxMessage+0x218>
      }
    }

    /* Get the header */
    pHeader->IDE = CAN_RI0R_IDE & hcan->Instance->sFIFOMailBox[RxFifo].RIR;
 8003bbc:	68fb      	ldr	r3, [r7, #12]
 8003bbe:	681a      	ldr	r2, [r3, #0]
 8003bc0:	68bb      	ldr	r3, [r7, #8]
 8003bc2:	331b      	adds	r3, #27
 8003bc4:	011b      	lsls	r3, r3, #4
 8003bc6:	4413      	add	r3, r2
 8003bc8:	681b      	ldr	r3, [r3, #0]
 8003bca:	f003 0204 	and.w	r2, r3, #4
 8003bce:	687b      	ldr	r3, [r7, #4]
 8003bd0:	609a      	str	r2, [r3, #8]
    if (pHeader->IDE == CAN_ID_STD)
 8003bd2:	687b      	ldr	r3, [r7, #4]
 8003bd4:	689b      	ldr	r3, [r3, #8]
 8003bd6:	2b00      	cmp	r3, #0
 8003bd8:	d10c      	bne.n	8003bf4 <HAL_CAN_GetRxMessage+0x9e>
    {
      pHeader->StdId = (CAN_RI0R_STID & hcan->Instance->sFIFOMailBox[RxFifo].RIR) >> CAN_TI0R_STID_Pos;
 8003bda:	68fb      	ldr	r3, [r7, #12]
 8003bdc:	681a      	ldr	r2, [r3, #0]
 8003bde:	68bb      	ldr	r3, [r7, #8]
 8003be0:	331b      	adds	r3, #27
 8003be2:	011b      	lsls	r3, r3, #4
 8003be4:	4413      	add	r3, r2
 8003be6:	681b      	ldr	r3, [r3, #0]
 8003be8:	0d5b      	lsrs	r3, r3, #21
 8003bea:	f3c3 020a 	ubfx	r2, r3, #0, #11
 8003bee:	687b      	ldr	r3, [r7, #4]
 8003bf0:	601a      	str	r2, [r3, #0]
 8003bf2:	e00b      	b.n	8003c0c <HAL_CAN_GetRxMessage+0xb6>
    }
    else
    {
      pHeader->ExtId = ((CAN_RI0R_EXID | CAN_RI0R_STID) & hcan->Instance->sFIFOMailBox[RxFifo].RIR) >> CAN_RI0R_EXID_Pos;
 8003bf4:	68fb      	ldr	r3, [r7, #12]
 8003bf6:	681a      	ldr	r2, [r3, #0]
 8003bf8:	68bb      	ldr	r3, [r7, #8]
 8003bfa:	331b      	adds	r3, #27
 8003bfc:	011b      	lsls	r3, r3, #4
 8003bfe:	4413      	add	r3, r2
 8003c00:	681b      	ldr	r3, [r3, #0]
 8003c02:	08db      	lsrs	r3, r3, #3
 8003c04:	f023 4260 	bic.w	r2, r3, #3758096384	; 0xe0000000
 8003c08:	687b      	ldr	r3, [r7, #4]
 8003c0a:	605a      	str	r2, [r3, #4]
    }
    pHeader->RTR = (CAN_RI0R_RTR & hcan->Instance->sFIFOMailBox[RxFifo].RIR);
 8003c0c:	68fb      	ldr	r3, [r7, #12]
 8003c0e:	681a      	ldr	r2, [r3, #0]
 8003c10:	68bb      	ldr	r3, [r7, #8]
 8003c12:	331b      	adds	r3, #27
 8003c14:	011b      	lsls	r3, r3, #4
 8003c16:	4413      	add	r3, r2
 8003c18:	681b      	ldr	r3, [r3, #0]
 8003c1a:	f003 0202 	and.w	r2, r3, #2
 8003c1e:	687b      	ldr	r3, [r7, #4]
 8003c20:	60da      	str	r2, [r3, #12]
    pHeader->DLC = (CAN_RDT0R_DLC & hcan->Instance->sFIFOMailBox[RxFifo].RDTR) >> CAN_RDT0R_DLC_Pos;
 8003c22:	68fb      	ldr	r3, [r7, #12]
 8003c24:	681a      	ldr	r2, [r3, #0]
 8003c26:	68bb      	ldr	r3, [r7, #8]
 8003c28:	331b      	adds	r3, #27
 8003c2a:	011b      	lsls	r3, r3, #4
 8003c2c:	4413      	add	r3, r2
 8003c2e:	3304      	adds	r3, #4
 8003c30:	681b      	ldr	r3, [r3, #0]
 8003c32:	f003 020f 	and.w	r2, r3, #15
 8003c36:	687b      	ldr	r3, [r7, #4]
 8003c38:	611a      	str	r2, [r3, #16]
    pHeader->FilterMatchIndex = (CAN_RDT0R_FMI & hcan->Instance->sFIFOMailBox[RxFifo].RDTR) >> CAN_RDT0R_FMI_Pos;
 8003c3a:	68fb      	ldr	r3, [r7, #12]
 8003c3c:	681a      	ldr	r2, [r3, #0]
 8003c3e:	68bb      	ldr	r3, [r7, #8]
 8003c40:	331b      	adds	r3, #27
 8003c42:	011b      	lsls	r3, r3, #4
 8003c44:	4413      	add	r3, r2
 8003c46:	3304      	adds	r3, #4
 8003c48:	681b      	ldr	r3, [r3, #0]
 8003c4a:	0a1b      	lsrs	r3, r3, #8
 8003c4c:	b2da      	uxtb	r2, r3
 8003c4e:	687b      	ldr	r3, [r7, #4]
 8003c50:	619a      	str	r2, [r3, #24]
    pHeader->Timestamp = (CAN_RDT0R_TIME & hcan->Instance->sFIFOMailBox[RxFifo].RDTR) >> CAN_RDT0R_TIME_Pos;
 8003c52:	68fb      	ldr	r3, [r7, #12]
 8003c54:	681a      	ldr	r2, [r3, #0]
 8003c56:	68bb      	ldr	r3, [r7, #8]
 8003c58:	331b      	adds	r3, #27
 8003c5a:	011b      	lsls	r3, r3, #4
 8003c5c:	4413      	add	r3, r2
 8003c5e:	3304      	adds	r3, #4
 8003c60:	681b      	ldr	r3, [r3, #0]
 8003c62:	0c1b      	lsrs	r3, r3, #16
 8003c64:	b29a      	uxth	r2, r3
 8003c66:	687b      	ldr	r3, [r7, #4]
 8003c68:	615a      	str	r2, [r3, #20]

    /* Get the data */
    aData[0] = (uint8_t)((CAN_RDL0R_DATA0 & hcan->Instance->sFIFOMailBox[RxFifo].RDLR) >> CAN_RDL0R_DATA0_Pos);
 8003c6a:	68fb      	ldr	r3, [r7, #12]
 8003c6c:	681a      	ldr	r2, [r3, #0]
 8003c6e:	68bb      	ldr	r3, [r7, #8]
 8003c70:	011b      	lsls	r3, r3, #4
 8003c72:	4413      	add	r3, r2
 8003c74:	f503 73dc 	add.w	r3, r3, #440	; 0x1b8
 8003c78:	681b      	ldr	r3, [r3, #0]
 8003c7a:	b2da      	uxtb	r2, r3
 8003c7c:	683b      	ldr	r3, [r7, #0]
 8003c7e:	701a      	strb	r2, [r3, #0]
    aData[1] = (uint8_t)((CAN_RDL0R_DATA1 & hcan->Instance->sFIFOMailBox[RxFifo].RDLR) >> CAN_RDL0R_DATA1_Pos);
 8003c80:	68fb      	ldr	r3, [r7, #12]
 8003c82:	681a      	ldr	r2, [r3, #0]
 8003c84:	68bb      	ldr	r3, [r7, #8]
 8003c86:	011b      	lsls	r3, r3, #4
 8003c88:	4413      	add	r3, r2
 8003c8a:	f503 73dc 	add.w	r3, r3, #440	; 0x1b8
 8003c8e:	681b      	ldr	r3, [r3, #0]
 8003c90:	0a1a      	lsrs	r2, r3, #8
 8003c92:	683b      	ldr	r3, [r7, #0]
 8003c94:	3301      	adds	r3, #1
 8003c96:	b2d2      	uxtb	r2, r2
 8003c98:	701a      	strb	r2, [r3, #0]
    aData[2] = (uint8_t)((CAN_RDL0R_DATA2 & hcan->Instance->sFIFOMailBox[RxFifo].RDLR) >> CAN_RDL0R_DATA2_Pos);
 8003c9a:	68fb      	ldr	r3, [r7, #12]
 8003c9c:	681a      	ldr	r2, [r3, #0]
 8003c9e:	68bb      	ldr	r3, [r7, #8]
 8003ca0:	011b      	lsls	r3, r3, #4
 8003ca2:	4413      	add	r3, r2
 8003ca4:	f503 73dc 	add.w	r3, r3, #440	; 0x1b8
 8003ca8:	681b      	ldr	r3, [r3, #0]
 8003caa:	0c1a      	lsrs	r2, r3, #16
 8003cac:	683b      	ldr	r3, [r7, #0]
 8003cae:	3302      	adds	r3, #2
 8003cb0:	b2d2      	uxtb	r2, r2
 8003cb2:	701a      	strb	r2, [r3, #0]
    aData[3] = (uint8_t)((CAN_RDL0R_DATA3 & hcan->Instance->sFIFOMailBox[RxFifo].RDLR) >> CAN_RDL0R_DATA3_Pos);
 8003cb4:	68fb      	ldr	r3, [r7, #12]
 8003cb6:	681a      	ldr	r2, [r3, #0]
 8003cb8:	68bb      	ldr	r3, [r7, #8]
 8003cba:	011b      	lsls	r3, r3, #4
 8003cbc:	4413      	add	r3, r2
 8003cbe:	f503 73dc 	add.w	r3, r3, #440	; 0x1b8
 8003cc2:	681b      	ldr	r3, [r3, #0]
 8003cc4:	0e1a      	lsrs	r2, r3, #24
 8003cc6:	683b      	ldr	r3, [r7, #0]
 8003cc8:	3303      	adds	r3, #3
 8003cca:	b2d2      	uxtb	r2, r2
 8003ccc:	701a      	strb	r2, [r3, #0]
    aData[4] = (uint8_t)((CAN_RDH0R_DATA4 & hcan->Instance->sFIFOMailBox[RxFifo].RDHR) >> CAN_RDH0R_DATA4_Pos);
 8003cce:	68fb      	ldr	r3, [r7, #12]
 8003cd0:	681a      	ldr	r2, [r3, #0]
 8003cd2:	68bb      	ldr	r3, [r7, #8]
 8003cd4:	011b      	lsls	r3, r3, #4
 8003cd6:	4413      	add	r3, r2
 8003cd8:	f503 73de 	add.w	r3, r3, #444	; 0x1bc
 8003cdc:	681a      	ldr	r2, [r3, #0]
 8003cde:	683b      	ldr	r3, [r7, #0]
 8003ce0:	3304      	adds	r3, #4
 8003ce2:	b2d2      	uxtb	r2, r2
 8003ce4:	701a      	strb	r2, [r3, #0]
    aData[5] = (uint8_t)((CAN_RDH0R_DATA5 & hcan->Instance->sFIFOMailBox[RxFifo].RDHR) >> CAN_RDH0R_DATA5_Pos);
 8003ce6:	68fb      	ldr	r3, [r7, #12]
 8003ce8:	681a      	ldr	r2, [r3, #0]
 8003cea:	68bb      	ldr	r3, [r7, #8]
 8003cec:	011b      	lsls	r3, r3, #4
 8003cee:	4413      	add	r3, r2
 8003cf0:	f503 73de 	add.w	r3, r3, #444	; 0x1bc
 8003cf4:	681b      	ldr	r3, [r3, #0]
 8003cf6:	0a1a      	lsrs	r2, r3, #8
 8003cf8:	683b      	ldr	r3, [r7, #0]
 8003cfa:	3305      	adds	r3, #5
 8003cfc:	b2d2      	uxtb	r2, r2
 8003cfe:	701a      	strb	r2, [r3, #0]
    aData[6] = (uint8_t)((CAN_RDH0R_DATA6 & hcan->Instance->sFIFOMailBox[RxFifo].RDHR) >> CAN_RDH0R_DATA6_Pos);
 8003d00:	68fb      	ldr	r3, [r7, #12]
 8003d02:	681a      	ldr	r2, [r3, #0]
 8003d04:	68bb      	ldr	r3, [r7, #8]
 8003d06:	011b      	lsls	r3, r3, #4
 8003d08:	4413      	add	r3, r2
 8003d0a:	f503 73de 	add.w	r3, r3, #444	; 0x1bc
 8003d0e:	681b      	ldr	r3, [r3, #0]
 8003d10:	0c1a      	lsrs	r2, r3, #16
 8003d12:	683b      	ldr	r3, [r7, #0]
 8003d14:	3306      	adds	r3, #6
 8003d16:	b2d2      	uxtb	r2, r2
 8003d18:	701a      	strb	r2, [r3, #0]
    aData[7] = (uint8_t)((CAN_RDH0R_DATA7 & hcan->Instance->sFIFOMailBox[RxFifo].RDHR) >> CAN_RDH0R_DATA7_Pos);
 8003d1a:	68fb      	ldr	r3, [r7, #12]
 8003d1c:	681a      	ldr	r2, [r3, #0]
 8003d1e:	68bb      	ldr	r3, [r7, #8]
 8003d20:	011b      	lsls	r3, r3, #4
 8003d22:	4413      	add	r3, r2
 8003d24:	f503 73de 	add.w	r3, r3, #444	; 0x1bc
 8003d28:	681b      	ldr	r3, [r3, #0]
 8003d2a:	0e1a      	lsrs	r2, r3, #24
 8003d2c:	683b      	ldr	r3, [r7, #0]
 8003d2e:	3307      	adds	r3, #7
 8003d30:	b2d2      	uxtb	r2, r2
 8003d32:	701a      	strb	r2, [r3, #0]

    /* Release the FIFO */
    if (RxFifo == CAN_RX_FIFO0) /* Rx element is assigned to Rx FIFO 0 */
 8003d34:	68bb      	ldr	r3, [r7, #8]
 8003d36:	2b00      	cmp	r3, #0
 8003d38:	d108      	bne.n	8003d4c <HAL_CAN_GetRxMessage+0x1f6>
    {
      /* Release RX FIFO 0 */
      SET_BIT(hcan->Instance->RF0R, CAN_RF0R_RFOM0);
 8003d3a:	68fb      	ldr	r3, [r7, #12]
 8003d3c:	681b      	ldr	r3, [r3, #0]
 8003d3e:	68da      	ldr	r2, [r3, #12]
 8003d40:	68fb      	ldr	r3, [r7, #12]
 8003d42:	681b      	ldr	r3, [r3, #0]
 8003d44:	f042 0220 	orr.w	r2, r2, #32
 8003d48:	60da      	str	r2, [r3, #12]
 8003d4a:	e007      	b.n	8003d5c <HAL_CAN_GetRxMessage+0x206>
    }
    else /* Rx element is assigned to Rx FIFO 1 */
    {
      /* Release RX FIFO 1 */
      SET_BIT(hcan->Instance->RF1R, CAN_RF1R_RFOM1);
 8003d4c:	68fb      	ldr	r3, [r7, #12]
 8003d4e:	681b      	ldr	r3, [r3, #0]
 8003d50:	691a      	ldr	r2, [r3, #16]
 8003d52:	68fb      	ldr	r3, [r7, #12]
 8003d54:	681b      	ldr	r3, [r3, #0]
 8003d56:	f042 0220 	orr.w	r2, r2, #32
 8003d5a:	611a      	str	r2, [r3, #16]
    }

    /* Return function status */
    return HAL_OK;
 8003d5c:	2300      	movs	r3, #0
 8003d5e:	e006      	b.n	8003d6e <HAL_CAN_GetRxMessage+0x218>
  }
  else
  {
    /* Update error code */
    hcan->ErrorCode |= HAL_CAN_ERROR_NOT_INITIALIZED;
 8003d60:	68fb      	ldr	r3, [r7, #12]
 8003d62:	6a5b      	ldr	r3, [r3, #36]	; 0x24
 8003d64:	f443 2280 	orr.w	r2, r3, #262144	; 0x40000
 8003d68:	68fb      	ldr	r3, [r7, #12]
 8003d6a:	625a      	str	r2, [r3, #36]	; 0x24

    return HAL_ERROR;
 8003d6c:	2301      	movs	r3, #1
  }
}
 8003d6e:	4618      	mov	r0, r3
 8003d70:	371c      	adds	r7, #28
 8003d72:	46bd      	mov	sp, r7
 8003d74:	f85d 7b04 	ldr.w	r7, [sp], #4
 8003d78:	4770      	bx	lr

08003d7a <HAL_CAN_ActivateNotification>:
  * @param  ActiveITs indicates which interrupts will be enabled.
  *         This parameter can be any combination of @arg CAN_Interrupts.
  * @retval HAL status
  */
HAL_StatusTypeDef HAL_CAN_ActivateNotification(CAN_HandleTypeDef *hcan, uint32_t ActiveITs)
{
 8003d7a:	b480      	push	{r7}
 8003d7c:	b085      	sub	sp, #20
 8003d7e:	af00      	add	r7, sp, #0
 8003d80:	6078      	str	r0, [r7, #4]
 8003d82:	6039      	str	r1, [r7, #0]
  HAL_CAN_StateTypeDef state = hcan->State;
 8003d84:	687b      	ldr	r3, [r7, #4]
 8003d86:	f893 3020 	ldrb.w	r3, [r3, #32]
 8003d8a:	73fb      	strb	r3, [r7, #15]

  /* Check function parameters */
  assert_param(IS_CAN_IT(ActiveITs));

  if ((state == HAL_CAN_STATE_READY) ||
 8003d8c:	7bfb      	ldrb	r3, [r7, #15]
 8003d8e:	2b01      	cmp	r3, #1
 8003d90:	d002      	beq.n	8003d98 <HAL_CAN_ActivateNotification+0x1e>
 8003d92:	7bfb      	ldrb	r3, [r7, #15]
 8003d94:	2b02      	cmp	r3, #2
 8003d96:	d109      	bne.n	8003dac <HAL_CAN_ActivateNotification+0x32>
      (state == HAL_CAN_STATE_LISTENING))
  {
    /* Enable the selected interrupts */
    __HAL_CAN_ENABLE_IT(hcan, ActiveITs);
 8003d98:	687b      	ldr	r3, [r7, #4]
 8003d9a:	681b      	ldr	r3, [r3, #0]
 8003d9c:	6959      	ldr	r1, [r3, #20]
 8003d9e:	687b      	ldr	r3, [r7, #4]
 8003da0:	681b      	ldr	r3, [r3, #0]
 8003da2:	683a      	ldr	r2, [r7, #0]
 8003da4:	430a      	orrs	r2, r1
 8003da6:	615a      	str	r2, [r3, #20]

    /* Return function status */
    return HAL_OK;
 8003da8:	2300      	movs	r3, #0
 8003daa:	e006      	b.n	8003dba <HAL_CAN_ActivateNotification+0x40>
  }
  else
  {
    /* Update error code */
    hcan->ErrorCode |= HAL_CAN_ERROR_NOT_INITIALIZED;
 8003dac:	687b      	ldr	r3, [r7, #4]
 8003dae:	6a5b      	ldr	r3, [r3, #36]	; 0x24
 8003db0:	f443 2280 	orr.w	r2, r3, #262144	; 0x40000
 8003db4:	687b      	ldr	r3, [r7, #4]
 8003db6:	625a      	str	r2, [r3, #36]	; 0x24

    return HAL_ERROR;
 8003db8:	2301      	movs	r3, #1
  }
}
 8003dba:	4618      	mov	r0, r3
 8003dbc:	3714      	adds	r7, #20
 8003dbe:	46bd      	mov	sp, r7
 8003dc0:	f85d 7b04 	ldr.w	r7, [sp], #4
 8003dc4:	4770      	bx	lr

08003dc6 <HAL_CAN_IRQHandler>:
  * @param  hcan pointer to a CAN_HandleTypeDef structure that contains
  *         the configuration information for the specified CAN.
  * @retval None
  */
void HAL_CAN_IRQHandler(CAN_HandleTypeDef *hcan)
{
 8003dc6:	b580      	push	{r7, lr}
 8003dc8:	b08a      	sub	sp, #40	; 0x28
 8003dca:	af00      	add	r7, sp, #0
 8003dcc:	6078      	str	r0, [r7, #4]
  uint32_t errorcode = HAL_CAN_ERROR_NONE;
 8003dce:	2300      	movs	r3, #0
 8003dd0:	627b      	str	r3, [r7, #36]	; 0x24
  uint32_t interrupts = READ_REG(hcan->Instance->IER);
 8003dd2:	687b      	ldr	r3, [r7, #4]
 8003dd4:	681b      	ldr	r3, [r3, #0]
 8003dd6:	695b      	ldr	r3, [r3, #20]
 8003dd8:	623b      	str	r3, [r7, #32]
  uint32_t msrflags = READ_REG(hcan->Instance->MSR);
 8003dda:	687b      	ldr	r3, [r7, #4]
 8003ddc:	681b      	ldr	r3, [r3, #0]
 8003dde:	685b      	ldr	r3, [r3, #4]
 8003de0:	61fb      	str	r3, [r7, #28]
  uint32_t tsrflags = READ_REG(hcan->Instance->TSR);
 8003de2:	687b      	ldr	r3, [r7, #4]
 8003de4:	681b      	ldr	r3, [r3, #0]
 8003de6:	689b      	ldr	r3, [r3, #8]
 8003de8:	61bb      	str	r3, [r7, #24]
  uint32_t rf0rflags = READ_REG(hcan->Instance->RF0R);
 8003dea:	687b      	ldr	r3, [r7, #4]
 8003dec:	681b      	ldr	r3, [r3, #0]
 8003dee:	68db      	ldr	r3, [r3, #12]
 8003df0:	617b      	str	r3, [r7, #20]
  uint32_t rf1rflags = READ_REG(hcan->Instance->RF1R);
 8003df2:	687b      	ldr	r3, [r7, #4]
 8003df4:	681b      	ldr	r3, [r3, #0]
 8003df6:	691b      	ldr	r3, [r3, #16]
 8003df8:	613b      	str	r3, [r7, #16]
  uint32_t esrflags = READ_REG(hcan->Instance->ESR);
 8003dfa:	687b      	ldr	r3, [r7, #4]
 8003dfc:	681b      	ldr	r3, [r3, #0]
 8003dfe:	699b      	ldr	r3, [r3, #24]
 8003e00:	60fb      	str	r3, [r7, #12]

  /* Transmit Mailbox empty interrupt management *****************************/
  if ((interrupts & CAN_IT_TX_MAILBOX_EMPTY) != 0U)
 8003e02:	6a3b      	ldr	r3, [r7, #32]
 8003e04:	f003 0301 	and.w	r3, r3, #1
 8003e08:	2b00      	cmp	r3, #0
 8003e0a:	d07c      	beq.n	8003f06 <HAL_CAN_IRQHandler+0x140>
  {
    /* Transmit Mailbox 0 management *****************************************/
    if ((tsrflags & CAN_TSR_RQCP0) != 0U)
 8003e0c:	69bb      	ldr	r3, [r7, #24]
 8003e0e:	f003 0301 	and.w	r3, r3, #1
 8003e12:	2b00      	cmp	r3, #0
 8003e14:	d023      	beq.n	8003e5e <HAL_CAN_IRQHandler+0x98>
    {
      /* Clear the Transmission Complete flag (and TXOK0,ALST0,TERR0 bits) */
      __HAL_CAN_CLEAR_FLAG(hcan, CAN_FLAG_RQCP0);
 8003e16:	687b      	ldr	r3, [r7, #4]
 8003e18:	681b      	ldr	r3, [r3, #0]
 8003e1a:	2201      	movs	r2, #1
 8003e1c:	609a      	str	r2, [r3, #8]

      if ((tsrflags & CAN_TSR_TXOK0) != 0U)
 8003e1e:	69bb      	ldr	r3, [r7, #24]
 8003e20:	f003 0302 	and.w	r3, r3, #2
 8003e24:	2b00      	cmp	r3, #0
 8003e26:	d003      	beq.n	8003e30 <HAL_CAN_IRQHandler+0x6a>
#if USE_HAL_CAN_REGISTER_CALLBACKS == 1
        /* Call registered callback*/
        hcan->TxMailbox0CompleteCallback(hcan);
#else
        /* Call weak (surcharged) callback */
        HAL_CAN_TxMailbox0CompleteCallback(hcan);
 8003e28:	6878      	ldr	r0, [r7, #4]
 8003e2a:	f000 f97d 	bl	8004128 <HAL_CAN_TxMailbox0CompleteCallback>
 8003e2e:	e016      	b.n	8003e5e <HAL_CAN_IRQHandler+0x98>
#endif /* USE_HAL_CAN_REGISTER_CALLBACKS */
      }
      else
      {
        if ((tsrflags & CAN_TSR_ALST0) != 0U)
 8003e30:	69bb      	ldr	r3, [r7, #24]
 8003e32:	f003 0304 	and.w	r3, r3, #4
 8003e36:	2b00      	cmp	r3, #0
 8003e38:	d004      	beq.n	8003e44 <HAL_CAN_IRQHandler+0x7e>
        {
          /* Update error code */
          errorcode |= HAL_CAN_ERROR_TX_ALST0;
 8003e3a:	6a7b      	ldr	r3, [r7, #36]	; 0x24
 8003e3c:	f443 6300 	orr.w	r3, r3, #2048	; 0x800
 8003e40:	627b      	str	r3, [r7, #36]	; 0x24
 8003e42:	e00c      	b.n	8003e5e <HAL_CAN_IRQHandler+0x98>
        }
        else if ((tsrflags & CAN_TSR_TERR0) != 0U)
 8003e44:	69bb      	ldr	r3, [r7, #24]
 8003e46:	f003 0308 	and.w	r3, r3, #8
 8003e4a:	2b00      	cmp	r3, #0
 8003e4c:	d004      	beq.n	8003e58 <HAL_CAN_IRQHandler+0x92>
        {
          /* Update error code */
          errorcode |= HAL_CAN_ERROR_TX_TERR0;
 8003e4e:	6a7b      	ldr	r3, [r7, #36]	; 0x24
 8003e50:	f443 5380 	orr.w	r3, r3, #4096	; 0x1000
 8003e54:	627b      	str	r3, [r7, #36]	; 0x24
 8003e56:	e002      	b.n	8003e5e <HAL_CAN_IRQHandler+0x98>
#if USE_HAL_CAN_REGISTER_CALLBACKS == 1
          /* Call registered callback*/
          hcan->TxMailbox0AbortCallback(hcan);
#else
          /* Call weak (surcharged) callback */
          HAL_CAN_TxMailbox0AbortCallback(hcan);
 8003e58:	6878      	ldr	r0, [r7, #4]
 8003e5a:	f000 f983 	bl	8004164 <HAL_CAN_TxMailbox0AbortCallback>
        }
      }
    }

    /* Transmit Mailbox 1 management *****************************************/
    if ((tsrflags & CAN_TSR_RQCP1) != 0U)
 8003e5e:	69bb      	ldr	r3, [r7, #24]
 8003e60:	f403 7380 	and.w	r3, r3, #256	; 0x100
 8003e64:	2b00      	cmp	r3, #0
 8003e66:	d024      	beq.n	8003eb2 <HAL_CAN_IRQHandler+0xec>
    {
      /* Clear the Transmission Complete flag (and TXOK1,ALST1,TERR1 bits) */
      __HAL_CAN_CLEAR_FLAG(hcan, CAN_FLAG_RQCP1);
 8003e68:	687b      	ldr	r3, [r7, #4]
 8003e6a:	681b      	ldr	r3, [r3, #0]
 8003e6c:	f44f 7280 	mov.w	r2, #256	; 0x100
 8003e70:	609a      	str	r2, [r3, #8]

      if ((tsrflags & CAN_TSR_TXOK1) != 0U)
 8003e72:	69bb      	ldr	r3, [r7, #24]
 8003e74:	f403 7300 	and.w	r3, r3, #512	; 0x200
 8003e78:	2b00      	cmp	r3, #0
 8003e7a:	d003      	beq.n	8003e84 <HAL_CAN_IRQHandler+0xbe>
#if USE_HAL_CAN_REGISTER_CALLBACKS == 1
        /* Call registered callback*/
        hcan->TxMailbox1CompleteCallback(hcan);
#else
        /* Call weak (surcharged) callback */
        HAL_CAN_TxMailbox1CompleteCallback(hcan);
 8003e7c:	6878      	ldr	r0, [r7, #4]
 8003e7e:	f000 f95d 	bl	800413c <HAL_CAN_TxMailbox1CompleteCallback>
 8003e82:	e016      	b.n	8003eb2 <HAL_CAN_IRQHandler+0xec>
#endif /* USE_HAL_CAN_REGISTER_CALLBACKS */
      }
      else
      {
        if ((tsrflags & CAN_TSR_ALST1) != 0U)
 8003e84:	69bb      	ldr	r3, [r7, #24]
 8003e86:	f403 6380 	and.w	r3, r3, #1024	; 0x400
 8003e8a:	2b00      	cmp	r3, #0
 8003e8c:	d004      	beq.n	8003e98 <HAL_CAN_IRQHandler+0xd2>
        {
          /* Update error code */
          errorcode |= HAL_CAN_ERROR_TX_ALST1;
 8003e8e:	6a7b      	ldr	r3, [r7, #36]	; 0x24
 8003e90:	f443 5300 	orr.w	r3, r3, #8192	; 0x2000
 8003e94:	627b      	str	r3, [r7, #36]	; 0x24
 8003e96:	e00c      	b.n	8003eb2 <HAL_CAN_IRQHandler+0xec>
        }
        else if ((tsrflags & CAN_TSR_TERR1) != 0U)
 8003e98:	69bb      	ldr	r3, [r7, #24]
 8003e9a:	f403 6300 	and.w	r3, r3, #2048	; 0x800
 8003e9e:	2b00      	cmp	r3, #0
 8003ea0:	d004      	beq.n	8003eac <HAL_CAN_IRQHandler+0xe6>
        {
          /* Update error code */
          errorcode |= HAL_CAN_ERROR_TX_TERR1;
 8003ea2:	6a7b      	ldr	r3, [r7, #36]	; 0x24
 8003ea4:	f443 4380 	orr.w	r3, r3, #16384	; 0x4000
 8003ea8:	627b      	str	r3, [r7, #36]	; 0x24
 8003eaa:	e002      	b.n	8003eb2 <HAL_CAN_IRQHandler+0xec>
#if USE_HAL_CAN_REGISTER_CALLBACKS == 1
          /* Call registered callback*/
          hcan->TxMailbox1AbortCallback(hcan);
#else
          /* Call weak (surcharged) callback */
          HAL_CAN_TxMailbox1AbortCallback(hcan);
 8003eac:	6878      	ldr	r0, [r7, #4]
 8003eae:	f000 f963 	bl	8004178 <HAL_CAN_TxMailbox1AbortCallback>
        }
      }
    }

    /* Transmit Mailbox 2 management *****************************************/
    if ((tsrflags & CAN_TSR_RQCP2) != 0U)
 8003eb2:	69bb      	ldr	r3, [r7, #24]
 8003eb4:	f403 3380 	and.w	r3, r3, #65536	; 0x10000
 8003eb8:	2b00      	cmp	r3, #0
 8003eba:	d024      	beq.n	8003f06 <HAL_CAN_IRQHandler+0x140>
    {
      /* Clear the Transmission Complete flag (and TXOK2,ALST2,TERR2 bits) */
      __HAL_CAN_CLEAR_FLAG(hcan, CAN_FLAG_RQCP2);
 8003ebc:	687b      	ldr	r3, [r7, #4]
 8003ebe:	681b      	ldr	r3, [r3, #0]
 8003ec0:	f44f 3280 	mov.w	r2, #65536	; 0x10000
 8003ec4:	609a      	str	r2, [r3, #8]

      if ((tsrflags & CAN_TSR_TXOK2) != 0U)
 8003ec6:	69bb      	ldr	r3, [r7, #24]
 8003ec8:	f403 3300 	and.w	r3, r3, #131072	; 0x20000
 8003ecc:	2b00      	cmp	r3, #0
 8003ece:	d003      	beq.n	8003ed8 <HAL_CAN_IRQHandler+0x112>
#if USE_HAL_CAN_REGISTER_CALLBACKS == 1
        /* Call registered callback*/
        hcan->TxMailbox2CompleteCallback(hcan);
#else
        /* Call weak (surcharged) callback */
        HAL_CAN_TxMailbox2CompleteCallback(hcan);
 8003ed0:	6878      	ldr	r0, [r7, #4]
 8003ed2:	f000 f93d 	bl	8004150 <HAL_CAN_TxMailbox2CompleteCallback>
 8003ed6:	e016      	b.n	8003f06 <HAL_CAN_IRQHandler+0x140>
#endif /* USE_HAL_CAN_REGISTER_CALLBACKS */
      }
      else
      {
        if ((tsrflags & CAN_TSR_ALST2) != 0U)
 8003ed8:	69bb      	ldr	r3, [r7, #24]
 8003eda:	f403 2380 	and.w	r3, r3, #262144	; 0x40000
 8003ede:	2b00      	cmp	r3, #0
 8003ee0:	d004      	beq.n	8003eec <HAL_CAN_IRQHandler+0x126>
        {
          /* Update error code */
          errorcode |= HAL_CAN_ERROR_TX_ALST2;
 8003ee2:	6a7b      	ldr	r3, [r7, #36]	; 0x24
 8003ee4:	f443 4300 	orr.w	r3, r3, #32768	; 0x8000
 8003ee8:	627b      	str	r3, [r7, #36]	; 0x24
 8003eea:	e00c      	b.n	8003f06 <HAL_CAN_IRQHandler+0x140>
        }
        else if ((tsrflags & CAN_TSR_TERR2) != 0U)
 8003eec:	69bb      	ldr	r3, [r7, #24]
 8003eee:	f403 2300 	and.w	r3, r3, #524288	; 0x80000
 8003ef2:	2b00      	cmp	r3, #0
 8003ef4:	d004      	beq.n	8003f00 <HAL_CAN_IRQHandler+0x13a>
        {
          /* Update error code */
          errorcode |= HAL_CAN_ERROR_TX_TERR2;
 8003ef6:	6a7b      	ldr	r3, [r7, #36]	; 0x24
 8003ef8:	f443 3380 	orr.w	r3, r3, #65536	; 0x10000
 8003efc:	627b      	str	r3, [r7, #36]	; 0x24
 8003efe:	e002      	b.n	8003f06 <HAL_CAN_IRQHandler+0x140>
#if USE_HAL_CAN_REGISTER_CALLBACKS == 1
          /* Call registered callback*/
          hcan->TxMailbox2AbortCallback(hcan);
#else
          /* Call weak (surcharged) callback */
          HAL_CAN_TxMailbox2AbortCallback(hcan);
 8003f00:	6878      	ldr	r0, [r7, #4]
 8003f02:	f000 f943 	bl	800418c <HAL_CAN_TxMailbox2AbortCallback>
      }
    }
  }

  /* Receive FIFO 0 overrun interrupt management *****************************/
  if ((interrupts & CAN_IT_RX_FIFO0_OVERRUN) != 0U)
 8003f06:	6a3b      	ldr	r3, [r7, #32]
 8003f08:	f003 0308 	and.w	r3, r3, #8
 8003f0c:	2b00      	cmp	r3, #0
 8003f0e:	d00c      	beq.n	8003f2a <HAL_CAN_IRQHandler+0x164>
  {
    if ((rf0rflags & CAN_RF0R_FOVR0) != 0U)
 8003f10:	697b      	ldr	r3, [r7, #20]
 8003f12:	f003 0310 	and.w	r3, r3, #16
 8003f16:	2b00      	cmp	r3, #0
 8003f18:	d007      	beq.n	8003f2a <HAL_CAN_IRQHandler+0x164>
    {
      /* Set CAN error code to Rx Fifo 0 overrun error */
      errorcode |= HAL_CAN_ERROR_RX_FOV0;
 8003f1a:	6a7b      	ldr	r3, [r7, #36]	; 0x24
 8003f1c:	f443 7300 	orr.w	r3, r3, #512	; 0x200
 8003f20:	627b      	str	r3, [r7, #36]	; 0x24

      /* Clear FIFO0 Overrun Flag */
      __HAL_CAN_CLEAR_FLAG(hcan, CAN_FLAG_FOV0);
 8003f22:	687b      	ldr	r3, [r7, #4]
 8003f24:	681b      	ldr	r3, [r3, #0]
 8003f26:	2210      	movs	r2, #16
 8003f28:	60da      	str	r2, [r3, #12]
    }
  }

  /* Receive FIFO 0 full interrupt management ********************************/
  if ((interrupts & CAN_IT_RX_FIFO0_FULL) != 0U)
 8003f2a:	6a3b      	ldr	r3, [r7, #32]
 8003f2c:	f003 0304 	and.w	r3, r3, #4
 8003f30:	2b00      	cmp	r3, #0
 8003f32:	d00b      	beq.n	8003f4c <HAL_CAN_IRQHandler+0x186>
  {
    if ((rf0rflags & CAN_RF0R_FULL0) != 0U)
 8003f34:	697b      	ldr	r3, [r7, #20]
 8003f36:	f003 0308 	and.w	r3, r3, #8
 8003f3a:	2b00      	cmp	r3, #0
 8003f3c:	d006      	beq.n	8003f4c <HAL_CAN_IRQHandler+0x186>
    {
      /* Clear FIFO 0 full Flag */
      __HAL_CAN_CLEAR_FLAG(hcan, CAN_FLAG_FF0);
 8003f3e:	687b      	ldr	r3, [r7, #4]
 8003f40:	681b      	ldr	r3, [r3, #0]
 8003f42:	2208      	movs	r2, #8
 8003f44:	60da      	str	r2, [r3, #12]
#if USE_HAL_CAN_REGISTER_CALLBACKS == 1
      /* Call registered callback*/
      hcan->RxFifo0FullCallback(hcan);
#else
      /* Call weak (surcharged) callback */
      HAL_CAN_RxFifo0FullCallback(hcan);
 8003f46:	6878      	ldr	r0, [r7, #4]
 8003f48:	f000 f92a 	bl	80041a0 <HAL_CAN_RxFifo0FullCallback>
#endif /* USE_HAL_CAN_REGISTER_CALLBACKS */
    }
  }

  /* Receive FIFO 0 message pending interrupt management *********************/
  if ((interrupts & CAN_IT_RX_FIFO0_MSG_PENDING) != 0U)
 8003f4c:	6a3b      	ldr	r3, [r7, #32]
 8003f4e:	f003 0302 	and.w	r3, r3, #2
 8003f52:	2b00      	cmp	r3, #0
 8003f54:	d009      	beq.n	8003f6a <HAL_CAN_IRQHandler+0x1a4>
  {
    /* Check if message is still pending */
    if ((hcan->Instance->RF0R & CAN_RF0R_FMP0) != 0U)
 8003f56:	687b      	ldr	r3, [r7, #4]
 8003f58:	681b      	ldr	r3, [r3, #0]
 8003f5a:	68db      	ldr	r3, [r3, #12]
 8003f5c:	f003 0303 	and.w	r3, r3, #3
 8003f60:	2b00      	cmp	r3, #0
 8003f62:	d002      	beq.n	8003f6a <HAL_CAN_IRQHandler+0x1a4>
#if USE_HAL_CAN_REGISTER_CALLBACKS == 1
      /* Call registered callback*/
      hcan->RxFifo0MsgPendingCallback(hcan);
#else
      /* Call weak (surcharged) callback */
      HAL_CAN_RxFifo0MsgPendingCallback(hcan);
 8003f64:	6878      	ldr	r0, [r7, #4]
 8003f66:	f7fe fabd 	bl	80024e4 <HAL_CAN_RxFifo0MsgPendingCallback>
#endif /* USE_HAL_CAN_REGISTER_CALLBACKS */
    }
  }

  /* Receive FIFO 1 overrun interrupt management *****************************/
  if ((interrupts & CAN_IT_RX_FIFO1_OVERRUN) != 0U)
 8003f6a:	6a3b      	ldr	r3, [r7, #32]
 8003f6c:	f003 0340 	and.w	r3, r3, #64	; 0x40
 8003f70:	2b00      	cmp	r3, #0
 8003f72:	d00c      	beq.n	8003f8e <HAL_CAN_IRQHandler+0x1c8>
  {
    if ((rf1rflags & CAN_RF1R_FOVR1) != 0U)
 8003f74:	693b      	ldr	r3, [r7, #16]
 8003f76:	f003 0310 	and.w	r3, r3, #16
 8003f7a:	2b00      	cmp	r3, #0
 8003f7c:	d007      	beq.n	8003f8e <HAL_CAN_IRQHandler+0x1c8>
    {
      /* Set CAN error code to Rx Fifo 1 overrun error */
      errorcode |= HAL_CAN_ERROR_RX_FOV1;
 8003f7e:	6a7b      	ldr	r3, [r7, #36]	; 0x24
 8003f80:	f443 6380 	orr.w	r3, r3, #1024	; 0x400
 8003f84:	627b      	str	r3, [r7, #36]	; 0x24

      /* Clear FIFO1 Overrun Flag */
      __HAL_CAN_CLEAR_FLAG(hcan, CAN_FLAG_FOV1);
 8003f86:	687b      	ldr	r3, [r7, #4]
 8003f88:	681b      	ldr	r3, [r3, #0]
 8003f8a:	2210      	movs	r2, #16
 8003f8c:	611a      	str	r2, [r3, #16]
    }
  }

  /* Receive FIFO 1 full interrupt management ********************************/
  if ((interrupts & CAN_IT_RX_FIFO1_FULL) != 0U)
 8003f8e:	6a3b      	ldr	r3, [r7, #32]
 8003f90:	f003 0320 	and.w	r3, r3, #32
 8003f94:	2b00      	cmp	r3, #0
 8003f96:	d00b      	beq.n	8003fb0 <HAL_CAN_IRQHandler+0x1ea>
  {
    if ((rf1rflags & CAN_RF1R_FULL1) != 0U)
 8003f98:	693b      	ldr	r3, [r7, #16]
 8003f9a:	f003 0308 	and.w	r3, r3, #8
 8003f9e:	2b00      	cmp	r3, #0
 8003fa0:	d006      	beq.n	8003fb0 <HAL_CAN_IRQHandler+0x1ea>
    {
      /* Clear FIFO 1 full Flag */
      __HAL_CAN_CLEAR_FLAG(hcan, CAN_FLAG_FF1);
 8003fa2:	687b      	ldr	r3, [r7, #4]
 8003fa4:	681b      	ldr	r3, [r3, #0]
 8003fa6:	2208      	movs	r2, #8
 8003fa8:	611a      	str	r2, [r3, #16]
#if USE_HAL_CAN_REGISTER_CALLBACKS == 1
      /* Call registered callback*/
      hcan->RxFifo1FullCallback(hcan);
#else
      /* Call weak (surcharged) callback */
      HAL_CAN_RxFifo1FullCallback(hcan);
 8003faa:	6878      	ldr	r0, [r7, #4]
 8003fac:	f000 f90c 	bl	80041c8 <HAL_CAN_RxFifo1FullCallback>
#endif /* USE_HAL_CAN_REGISTER_CALLBACKS */
    }
  }

  /* Receive FIFO 1 message pending interrupt management *********************/
  if ((interrupts & CAN_IT_RX_FIFO1_MSG_PENDING) != 0U)
 8003fb0:	6a3b      	ldr	r3, [r7, #32]
 8003fb2:	f003 0310 	and.w	r3, r3, #16
 8003fb6:	2b00      	cmp	r3, #0
 8003fb8:	d009      	beq.n	8003fce <HAL_CAN_IRQHandler+0x208>
  {
    /* Check if message is still pending */
    if ((hcan->Instance->RF1R & CAN_RF1R_FMP1) != 0U)
 8003fba:	687b      	ldr	r3, [r7, #4]
 8003fbc:	681b      	ldr	r3, [r3, #0]
 8003fbe:	691b      	ldr	r3, [r3, #16]
 8003fc0:	f003 0303 	and.w	r3, r3, #3
 8003fc4:	2b00      	cmp	r3, #0
 8003fc6:	d002      	beq.n	8003fce <HAL_CAN_IRQHandler+0x208>
#if USE_HAL_CAN_REGISTER_CALLBACKS == 1
      /* Call registered callback*/
      hcan->RxFifo1MsgPendingCallback(hcan);
#else
      /* Call weak (surcharged) callback */
      HAL_CAN_RxFifo1MsgPendingCallback(hcan);
 8003fc8:	6878      	ldr	r0, [r7, #4]
 8003fca:	f000 f8f3 	bl	80041b4 <HAL_CAN_RxFifo1MsgPendingCallback>
#endif /* USE_HAL_CAN_REGISTER_CALLBACKS */
    }
  }

  /* Sleep interrupt management *********************************************/
  if ((interrupts & CAN_IT_SLEEP_ACK) != 0U)
 8003fce:	6a3b      	ldr	r3, [r7, #32]
 8003fd0:	f403 3300 	and.w	r3, r3, #131072	; 0x20000
 8003fd4:	2b00      	cmp	r3, #0
 8003fd6:	d00b      	beq.n	8003ff0 <HAL_CAN_IRQHandler+0x22a>
  {
    if ((msrflags & CAN_MSR_SLAKI) != 0U)
 8003fd8:	69fb      	ldr	r3, [r7, #28]
 8003fda:	f003 0310 	and.w	r3, r3, #16
 8003fde:	2b00      	cmp	r3, #0
 8003fe0:	d006      	beq.n	8003ff0 <HAL_CAN_IRQHandler+0x22a>
    {
      /* Clear Sleep interrupt Flag */
      __HAL_CAN_CLEAR_FLAG(hcan, CAN_FLAG_SLAKI);
 8003fe2:	687b      	ldr	r3, [r7, #4]
 8003fe4:	681b      	ldr	r3, [r3, #0]
 8003fe6:	2210      	movs	r2, #16
 8003fe8:	605a      	str	r2, [r3, #4]
#if USE_HAL_CAN_REGISTER_CALLBACKS == 1
      /* Call registered callback*/
      hcan->SleepCallback(hcan);
#else
      /* Call weak (surcharged) callback */
      HAL_CAN_SleepCallback(hcan);
 8003fea:	6878      	ldr	r0, [r7, #4]
 8003fec:	f000 f8f6 	bl	80041dc <HAL_CAN_SleepCallback>
#endif /* USE_HAL_CAN_REGISTER_CALLBACKS */
    }
  }

  /* WakeUp interrupt management *********************************************/
  if ((interrupts & CAN_IT_WAKEUP) != 0U)
 8003ff0:	6a3b      	ldr	r3, [r7, #32]
 8003ff2:	f403 3380 	and.w	r3, r3, #65536	; 0x10000
 8003ff6:	2b00      	cmp	r3, #0
 8003ff8:	d00b      	beq.n	8004012 <HAL_CAN_IRQHandler+0x24c>
  {
    if ((msrflags & CAN_MSR_WKUI) != 0U)
 8003ffa:	69fb      	ldr	r3, [r7, #28]
 8003ffc:	f003 0308 	and.w	r3, r3, #8
 8004000:	2b00      	cmp	r3, #0
 8004002:	d006      	beq.n	8004012 <HAL_CAN_IRQHandler+0x24c>
    {
      /* Clear WakeUp Flag */
      __HAL_CAN_CLEAR_FLAG(hcan, CAN_FLAG_WKU);
 8004004:	687b      	ldr	r3, [r7, #4]
 8004006:	681b      	ldr	r3, [r3, #0]
 8004008:	2208      	movs	r2, #8
 800400a:	605a      	str	r2, [r3, #4]
#if USE_HAL_CAN_REGISTER_CALLBACKS == 1
      /* Call registered callback*/
      hcan->WakeUpFromRxMsgCallback(hcan);
#else
      /* Call weak (surcharged) callback */
      HAL_CAN_WakeUpFromRxMsgCallback(hcan);
 800400c:	6878      	ldr	r0, [r7, #4]
 800400e:	f000 f8ef 	bl	80041f0 <HAL_CAN_WakeUpFromRxMsgCallback>
#endif /* USE_HAL_CAN_REGISTER_CALLBACKS */
    }
  }

  /* Error interrupts management *********************************************/
  if ((interrupts & CAN_IT_ERROR) != 0U)
 8004012:	6a3b      	ldr	r3, [r7, #32]
 8004014:	f403 4300 	and.w	r3, r3, #32768	; 0x8000
 8004018:	2b00      	cmp	r3, #0
 800401a:	d075      	beq.n	8004108 <HAL_CAN_IRQHandler+0x342>
  {
    if ((msrflags & CAN_MSR_ERRI) != 0U)
 800401c:	69fb      	ldr	r3, [r7, #28]
 800401e:	f003 0304 	and.w	r3, r3, #4
 8004022:	2b00      	cmp	r3, #0
 8004024:	d06c      	beq.n	8004100 <HAL_CAN_IRQHandler+0x33a>
    {
      /* Check Error Warning Flag */
      if (((interrupts & CAN_IT_ERROR_WARNING) != 0U) &&
 8004026:	6a3b      	ldr	r3, [r7, #32]
 8004028:	f403 7380 	and.w	r3, r3, #256	; 0x100
 800402c:	2b00      	cmp	r3, #0
 800402e:	d008      	beq.n	8004042 <HAL_CAN_IRQHandler+0x27c>
          ((esrflags & CAN_ESR_EWGF) != 0U))
 8004030:	68fb      	ldr	r3, [r7, #12]
 8004032:	f003 0301 	and.w	r3, r3, #1
      if (((interrupts & CAN_IT_ERROR_WARNING) != 0U) &&
 8004036:	2b00      	cmp	r3, #0
 8004038:	d003      	beq.n	8004042 <HAL_CAN_IRQHandler+0x27c>
      {
        /* Set CAN error code to Error Warning */
        errorcode |= HAL_CAN_ERROR_EWG;
 800403a:	6a7b      	ldr	r3, [r7, #36]	; 0x24
 800403c:	f043 0301 	orr.w	r3, r3, #1
 8004040:	627b      	str	r3, [r7, #36]	; 0x24

        /* No need for clear of Error Warning Flag as read-only */
      }

      /* Check Error Passive Flag */
      if (((interrupts & CAN_IT_ERROR_PASSIVE) != 0U) &&
 8004042:	6a3b      	ldr	r3, [r7, #32]
 8004044:	f403 7300 	and.w	r3, r3, #512	; 0x200
 8004048:	2b00      	cmp	r3, #0
 800404a:	d008      	beq.n	800405e <HAL_CAN_IRQHandler+0x298>
          ((esrflags & CAN_ESR_EPVF) != 0U))
 800404c:	68fb      	ldr	r3, [r7, #12]
 800404e:	f003 0302 	and.w	r3, r3, #2
      if (((interrupts & CAN_IT_ERROR_PASSIVE) != 0U) &&
 8004052:	2b00      	cmp	r3, #0
 8004054:	d003      	beq.n	800405e <HAL_CAN_IRQHandler+0x298>
      {
        /* Set CAN error code to Error Passive */
        errorcode |= HAL_CAN_ERROR_EPV;
 8004056:	6a7b      	ldr	r3, [r7, #36]	; 0x24
 8004058:	f043 0302 	orr.w	r3, r3, #2
 800405c:	627b      	str	r3, [r7, #36]	; 0x24

        /* No need for clear of Error Passive Flag as read-only */
      }

      /* Check Bus-off Flag */
      if (((interrupts & CAN_IT_BUSOFF) != 0U) &&
 800405e:	6a3b      	ldr	r3, [r7, #32]
 8004060:	f403 6380 	and.w	r3, r3, #1024	; 0x400
 8004064:	2b00      	cmp	r3, #0
 8004066:	d008      	beq.n	800407a <HAL_CAN_IRQHandler+0x2b4>
          ((esrflags & CAN_ESR_BOFF) != 0U))
 8004068:	68fb      	ldr	r3, [r7, #12]
 800406a:	f003 0304 	and.w	r3, r3, #4
      if (((interrupts & CAN_IT_BUSOFF) != 0U) &&
 800406e:	2b00      	cmp	r3, #0
 8004070:	d003      	beq.n	800407a <HAL_CAN_IRQHandler+0x2b4>
      {
        /* Set CAN error code to Bus-Off */
        errorcode |= HAL_CAN_ERROR_BOF;
 8004072:	6a7b      	ldr	r3, [r7, #36]	; 0x24
 8004074:	f043 0304 	orr.w	r3, r3, #4
 8004078:	627b      	str	r3, [r7, #36]	; 0x24

        /* No need for clear of Error Bus-Off as read-only */
      }

      /* Check Last Error Code Flag */
      if (((interrupts & CAN_IT_LAST_ERROR_CODE) != 0U) &&
 800407a:	6a3b      	ldr	r3, [r7, #32]
 800407c:	f403 6300 	and.w	r3, r3, #2048	; 0x800
 8004080:	2b00      	cmp	r3, #0
 8004082:	d03d      	beq.n	8004100 <HAL_CAN_IRQHandler+0x33a>
          ((esrflags & CAN_ESR_LEC) != 0U))
 8004084:	68fb      	ldr	r3, [r7, #12]
 8004086:	f003 0370 	and.w	r3, r3, #112	; 0x70
      if (((interrupts & CAN_IT_LAST_ERROR_CODE) != 0U) &&
 800408a:	2b00      	cmp	r3, #0
 800408c:	d038      	beq.n	8004100 <HAL_CAN_IRQHandler+0x33a>
      {
        switch (esrflags & CAN_ESR_LEC)
 800408e:	68fb      	ldr	r3, [r7, #12]
 8004090:	f003 0370 	and.w	r3, r3, #112	; 0x70
 8004094:	2b30      	cmp	r3, #48	; 0x30
 8004096:	d017      	beq.n	80040c8 <HAL_CAN_IRQHandler+0x302>
 8004098:	2b30      	cmp	r3, #48	; 0x30
 800409a:	d804      	bhi.n	80040a6 <HAL_CAN_IRQHandler+0x2e0>
 800409c:	2b10      	cmp	r3, #16
 800409e:	d009      	beq.n	80040b4 <HAL_CAN_IRQHandler+0x2ee>
 80040a0:	2b20      	cmp	r3, #32
 80040a2:	d00c      	beq.n	80040be <HAL_CAN_IRQHandler+0x2f8>
          case (CAN_ESR_LEC_2 | CAN_ESR_LEC_1):
            /* Set CAN error code to CRC error */
            errorcode |= HAL_CAN_ERROR_CRC;
            break;
          default:
            break;
 80040a4:	e024      	b.n	80040f0 <HAL_CAN_IRQHandler+0x32a>
        switch (esrflags & CAN_ESR_LEC)
 80040a6:	2b50      	cmp	r3, #80	; 0x50
 80040a8:	d018      	beq.n	80040dc <HAL_CAN_IRQHandler+0x316>
 80040aa:	2b60      	cmp	r3, #96	; 0x60
 80040ac:	d01b      	beq.n	80040e6 <HAL_CAN_IRQHandler+0x320>
 80040ae:	2b40      	cmp	r3, #64	; 0x40
 80040b0:	d00f      	beq.n	80040d2 <HAL_CAN_IRQHandler+0x30c>
            break;
 80040b2:	e01d      	b.n	80040f0 <HAL_CAN_IRQHandler+0x32a>
            errorcode |= HAL_CAN_ERROR_STF;
 80040b4:	6a7b      	ldr	r3, [r7, #36]	; 0x24
 80040b6:	f043 0308 	orr.w	r3, r3, #8
 80040ba:	627b      	str	r3, [r7, #36]	; 0x24
            break;
 80040bc:	e018      	b.n	80040f0 <HAL_CAN_IRQHandler+0x32a>
            errorcode |= HAL_CAN_ERROR_FOR;
 80040be:	6a7b      	ldr	r3, [r7, #36]	; 0x24
 80040c0:	f043 0310 	orr.w	r3, r3, #16
 80040c4:	627b      	str	r3, [r7, #36]	; 0x24
            break;
 80040c6:	e013      	b.n	80040f0 <HAL_CAN_IRQHandler+0x32a>
            errorcode |= HAL_CAN_ERROR_ACK;
 80040c8:	6a7b      	ldr	r3, [r7, #36]	; 0x24
 80040ca:	f043 0320 	orr.w	r3, r3, #32
 80040ce:	627b      	str	r3, [r7, #36]	; 0x24
            break;
 80040d0:	e00e      	b.n	80040f0 <HAL_CAN_IRQHandler+0x32a>
            errorcode |= HAL_CAN_ERROR_BR;
 80040d2:	6a7b      	ldr	r3, [r7, #36]	; 0x24
 80040d4:	f043 0340 	orr.w	r3, r3, #64	; 0x40
 80040d8:	627b      	str	r3, [r7, #36]	; 0x24
            break;
 80040da:	e009      	b.n	80040f0 <HAL_CAN_IRQHandler+0x32a>
            errorcode |= HAL_CAN_ERROR_BD;
 80040dc:	6a7b      	ldr	r3, [r7, #36]	; 0x24
 80040de:	f043 0380 	orr.w	r3, r3, #128	; 0x80
 80040e2:	627b      	str	r3, [r7, #36]	; 0x24
            break;
 80040e4:	e004      	b.n	80040f0 <HAL_CAN_IRQHandler+0x32a>
            errorcode |= HAL_CAN_ERROR_CRC;
 80040e6:	6a7b      	ldr	r3, [r7, #36]	; 0x24
 80040e8:	f443 7380 	orr.w	r3, r3, #256	; 0x100
 80040ec:	627b      	str	r3, [r7, #36]	; 0x24
            break;
 80040ee:	bf00      	nop
        }

        /* Clear Last error code Flag */
        CLEAR_BIT(hcan->Instance->ESR, CAN_ESR_LEC);
 80040f0:	687b      	ldr	r3, [r7, #4]
 80040f2:	681b      	ldr	r3, [r3, #0]
 80040f4:	699a      	ldr	r2, [r3, #24]
 80040f6:	687b      	ldr	r3, [r7, #4]
 80040f8:	681b      	ldr	r3, [r3, #0]
 80040fa:	f022 0270 	bic.w	r2, r2, #112	; 0x70
 80040fe:	619a      	str	r2, [r3, #24]
      }
    }

    /* Clear ERRI Flag */
    __HAL_CAN_CLEAR_FLAG(hcan, CAN_FLAG_ERRI);
 8004100:	687b      	ldr	r3, [r7, #4]
 8004102:	681b      	ldr	r3, [r3, #0]
 8004104:	2204      	movs	r2, #4
 8004106:	605a      	str	r2, [r3, #4]
  }

  /* Call the Error call Back in case of Errors */
  if (errorcode != HAL_CAN_ERROR_NONE)
 8004108:	6a7b      	ldr	r3, [r7, #36]	; 0x24
 800410a:	2b00      	cmp	r3, #0
 800410c:	d008      	beq.n	8004120 <HAL_CAN_IRQHandler+0x35a>
  {
    /* Update error code in handle */
    hcan->ErrorCode |= errorcode;
 800410e:	687b      	ldr	r3, [r7, #4]
 8004110:	6a5a      	ldr	r2, [r3, #36]	; 0x24
 8004112:	6a7b      	ldr	r3, [r7, #36]	; 0x24
 8004114:	431a      	orrs	r2, r3
 8004116:	687b      	ldr	r3, [r7, #4]
 8004118:	625a      	str	r2, [r3, #36]	; 0x24
#if USE_HAL_CAN_REGISTER_CALLBACKS == 1
    /* Call registered callback*/
    hcan->ErrorCallback(hcan);
#else
    /* Call weak (surcharged) callback */
    HAL_CAN_ErrorCallback(hcan);
 800411a:	6878      	ldr	r0, [r7, #4]
 800411c:	f000 f872 	bl	8004204 <HAL_CAN_ErrorCallback>
#endif /* USE_HAL_CAN_REGISTER_CALLBACKS */
  }
}
 8004120:	bf00      	nop
 8004122:	3728      	adds	r7, #40	; 0x28
 8004124:	46bd      	mov	sp, r7
 8004126:	bd80      	pop	{r7, pc}

08004128 <HAL_CAN_TxMailbox0CompleteCallback>:
  * @param  hcan pointer to a CAN_HandleTypeDef structure that contains
  *         the configuration information for the specified CAN.
  * @retval None
  */
__weak void HAL_CAN_TxMailbox0CompleteCallback(CAN_HandleTypeDef *hcan)
{
 8004128:	b480      	push	{r7}
 800412a:	b083      	sub	sp, #12
 800412c:	af00      	add	r7, sp, #0
 800412e:	6078      	str	r0, [r7, #4]

  /* NOTE : This function Should not be modified, when the callback is needed,
            the HAL_CAN_TxMailbox0CompleteCallback could be implemented in the
            user file
   */
}
 8004130:	bf00      	nop
 8004132:	370c      	adds	r7, #12
 8004134:	46bd      	mov	sp, r7
 8004136:	f85d 7b04 	ldr.w	r7, [sp], #4
 800413a:	4770      	bx	lr

0800413c <HAL_CAN_TxMailbox1CompleteCallback>:
  * @param  hcan pointer to a CAN_HandleTypeDef structure that contains
  *         the configuration information for the specified CAN.
  * @retval None
  */
__weak void HAL_CAN_TxMailbox1CompleteCallback(CAN_HandleTypeDef *hcan)
{
 800413c:	b480      	push	{r7}
 800413e:	b083      	sub	sp, #12
 8004140:	af00      	add	r7, sp, #0
 8004142:	6078      	str	r0, [r7, #4]

  /* NOTE : This function Should not be modified, when the callback is needed,
            the HAL_CAN_TxMailbox1CompleteCallback could be implemented in the
            user file
   */
}
 8004144:	bf00      	nop
 8004146:	370c      	adds	r7, #12
 8004148:	46bd      	mov	sp, r7
 800414a:	f85d 7b04 	ldr.w	r7, [sp], #4
 800414e:	4770      	bx	lr

08004150 <HAL_CAN_TxMailbox2CompleteCallback>:
  * @param  hcan pointer to a CAN_HandleTypeDef structure that contains
  *         the configuration information for the specified CAN.
  * @retval None
  */
__weak void HAL_CAN_TxMailbox2CompleteCallback(CAN_HandleTypeDef *hcan)
{
 8004150:	b480      	push	{r7}
 8004152:	b083      	sub	sp, #12
 8004154:	af00      	add	r7, sp, #0
 8004156:	6078      	str	r0, [r7, #4]

  /* NOTE : This function Should not be modified, when the callback is needed,
            the HAL_CAN_TxMailbox2CompleteCallback could be implemented in the
            user file
   */
}
 8004158:	bf00      	nop
 800415a:	370c      	adds	r7, #12
 800415c:	46bd      	mov	sp, r7
 800415e:	f85d 7b04 	ldr.w	r7, [sp], #4
 8004162:	4770      	bx	lr

08004164 <HAL_CAN_TxMailbox0AbortCallback>:
  * @param  hcan pointer to an CAN_HandleTypeDef structure that contains
  *         the configuration information for the specified CAN.
  * @retval None
  */
__weak void HAL_CAN_TxMailbox0AbortCallback(CAN_HandleTypeDef *hcan)
{
 8004164:	b480      	push	{r7}
 8004166:	b083      	sub	sp, #12
 8004168:	af00      	add	r7, sp, #0
 800416a:	6078      	str	r0, [r7, #4]

  /* NOTE : This function Should not be modified, when the callback is needed,
            the HAL_CAN_TxMailbox0AbortCallback could be implemented in the
            user file
   */
}
 800416c:	bf00      	nop
 800416e:	370c      	adds	r7, #12
 8004170:	46bd      	mov	sp, r7
 8004172:	f85d 7b04 	ldr.w	r7, [sp], #4
 8004176:	4770      	bx	lr

08004178 <HAL_CAN_TxMailbox1AbortCallback>:
  * @param  hcan pointer to an CAN_HandleTypeDef structure that contains
  *         the configuration information for the specified CAN.
  * @retval None
  */
__weak void HAL_CAN_TxMailbox1AbortCallback(CAN_HandleTypeDef *hcan)
{
 8004178:	b480      	push	{r7}
 800417a:	b083      	sub	sp, #12
 800417c:	af00      	add	r7, sp, #0
 800417e:	6078      	str	r0, [r7, #4]

  /* NOTE : This function Should not be modified, when the callback is needed,
            the HAL_CAN_TxMailbox1AbortCallback could be implemented in the
            user file
   */
}
 8004180:	bf00      	nop
 8004182:	370c      	adds	r7, #12
 8004184:	46bd      	mov	sp, r7
 8004186:	f85d 7b04 	ldr.w	r7, [sp], #4
 800418a:	4770      	bx	lr

0800418c <HAL_CAN_TxMailbox2AbortCallback>:
  * @param  hcan pointer to an CAN_HandleTypeDef structure that contains
  *         the configuration information for the specified CAN.
  * @retval None
  */
__weak void HAL_CAN_TxMailbox2AbortCallback(CAN_HandleTypeDef *hcan)
{
 800418c:	b480      	push	{r7}
 800418e:	b083      	sub	sp, #12
 8004190:	af00      	add	r7, sp, #0
 8004192:	6078      	str	r0, [r7, #4]

  /* NOTE : This function Should not be modified, when the callback is needed,
            the HAL_CAN_TxMailbox2AbortCallback could be implemented in the
            user file
   */
}
 8004194:	bf00      	nop
 8004196:	370c      	adds	r7, #12
 8004198:	46bd      	mov	sp, r7
 800419a:	f85d 7b04 	ldr.w	r7, [sp], #4
 800419e:	4770      	bx	lr

080041a0 <HAL_CAN_RxFifo0FullCallback>:
  * @param  hcan pointer to a CAN_HandleTypeDef structure that contains
  *         the configuration information for the specified CAN.
  * @retval None
  */
__weak void HAL_CAN_RxFifo0FullCallback(CAN_HandleTypeDef *hcan)
{
 80041a0:	b480      	push	{r7}
 80041a2:	b083      	sub	sp, #12
 80041a4:	af00      	add	r7, sp, #0
 80041a6:	6078      	str	r0, [r7, #4]

  /* NOTE : This function Should not be modified, when the callback is needed,
            the HAL_CAN_RxFifo0FullCallback could be implemented in the user
            file
   */
}
 80041a8:	bf00      	nop
 80041aa:	370c      	adds	r7, #12
 80041ac:	46bd      	mov	sp, r7
 80041ae:	f85d 7b04 	ldr.w	r7, [sp], #4
 80041b2:	4770      	bx	lr

080041b4 <HAL_CAN_RxFifo1MsgPendingCallback>:
  * @param  hcan pointer to a CAN_HandleTypeDef structure that contains
  *         the configuration information for the specified CAN.
  * @retval None
  */
__weak void HAL_CAN_RxFifo1MsgPendingCallback(CAN_HandleTypeDef *hcan)
{
 80041b4:	b480      	push	{r7}
 80041b6:	b083      	sub	sp, #12
 80041b8:	af00      	add	r7, sp, #0
 80041ba:	6078      	str	r0, [r7, #4]

  /* NOTE : This function Should not be modified, when the callback is needed,
            the HAL_CAN_RxFifo1MsgPendingCallback could be implemented in the
            user file
   */
}
 80041bc:	bf00      	nop
 80041be:	370c      	adds	r7, #12
 80041c0:	46bd      	mov	sp, r7
 80041c2:	f85d 7b04 	ldr.w	r7, [sp], #4
 80041c6:	4770      	bx	lr

080041c8 <HAL_CAN_RxFifo1FullCallback>:
  * @param  hcan pointer to a CAN_HandleTypeDef structure that contains
  *         the configuration information for the specified CAN.
  * @retval None
  */
__weak void HAL_CAN_RxFifo1FullCallback(CAN_HandleTypeDef *hcan)
{
 80041c8:	b480      	push	{r7}
 80041ca:	b083      	sub	sp, #12
 80041cc:	af00      	add	r7, sp, #0
 80041ce:	6078      	str	r0, [r7, #4]

  /* NOTE : This function Should not be modified, when the callback is needed,
            the HAL_CAN_RxFifo1FullCallback could be implemented in the user
            file
   */
}
 80041d0:	bf00      	nop
 80041d2:	370c      	adds	r7, #12
 80041d4:	46bd      	mov	sp, r7
 80041d6:	f85d 7b04 	ldr.w	r7, [sp], #4
 80041da:	4770      	bx	lr

080041dc <HAL_CAN_SleepCallback>:
  * @param  hcan pointer to a CAN_HandleTypeDef structure that contains
  *         the configuration information for the specified CAN.
  * @retval None
  */
__weak void HAL_CAN_SleepCallback(CAN_HandleTypeDef *hcan)
{
 80041dc:	b480      	push	{r7}
 80041de:	b083      	sub	sp, #12
 80041e0:	af00      	add	r7, sp, #0
 80041e2:	6078      	str	r0, [r7, #4]
  UNUSED(hcan);

  /* NOTE : This function Should not be modified, when the callback is needed,
            the HAL_CAN_SleepCallback could be implemented in the user file
   */
}
 80041e4:	bf00      	nop
 80041e6:	370c      	adds	r7, #12
 80041e8:	46bd      	mov	sp, r7
 80041ea:	f85d 7b04 	ldr.w	r7, [sp], #4
 80041ee:	4770      	bx	lr

080041f0 <HAL_CAN_WakeUpFromRxMsgCallback>:
  * @param  hcan pointer to a CAN_HandleTypeDef structure that contains
  *         the configuration information for the specified CAN.
  * @retval None
  */
__weak void HAL_CAN_WakeUpFromRxMsgCallback(CAN_HandleTypeDef *hcan)
{
 80041f0:	b480      	push	{r7}
 80041f2:	b083      	sub	sp, #12
 80041f4:	af00      	add	r7, sp, #0
 80041f6:	6078      	str	r0, [r7, #4]

  /* NOTE : This function Should not be modified, when the callback is needed,
            the HAL_CAN_WakeUpFromRxMsgCallback could be implemented in the
            user file
   */
}
 80041f8:	bf00      	nop
 80041fa:	370c      	adds	r7, #12
 80041fc:	46bd      	mov	sp, r7
 80041fe:	f85d 7b04 	ldr.w	r7, [sp], #4
 8004202:	4770      	bx	lr

08004204 <HAL_CAN_ErrorCallback>:
  * @param  hcan pointer to a CAN_HandleTypeDef structure that contains
  *         the configuration information for the specified CAN.
  * @retval None
  */
__weak void HAL_CAN_ErrorCallback(CAN_HandleTypeDef *hcan)
{
 8004204:	b480      	push	{r7}
 8004206:	b083      	sub	sp, #12
 8004208:	af00      	add	r7, sp, #0
 800420a:	6078      	str	r0, [r7, #4]
  UNUSED(hcan);

  /* NOTE : This function Should not be modified, when the callback is needed,
            the HAL_CAN_ErrorCallback could be implemented in the user file
   */
}
 800420c:	bf00      	nop
 800420e:	370c      	adds	r7, #12
 8004210:	46bd      	mov	sp, r7
 8004212:	f85d 7b04 	ldr.w	r7, [sp], #4
 8004216:	4770      	bx	lr

08004218 <__NVIC_SetPriorityGrouping>:
           In case of a conflict between priority grouping and available
           priority bits (__NVIC_PRIO_BITS), the smallest possible priority group is set.
  \param [in]      PriorityGroup  Priority grouping field.
 */
__STATIC_INLINE void __NVIC_SetPriorityGrouping(uint32_t PriorityGroup)
{
 8004218:	b480      	push	{r7}
 800421a:	b085      	sub	sp, #20
 800421c:	af00      	add	r7, sp, #0
 800421e:	6078      	str	r0, [r7, #4]
  uint32_t reg_value;
  uint32_t PriorityGroupTmp = (PriorityGroup & (uint32_t)0x07UL);             /* only values 0..7 are used          */
 8004220:	687b      	ldr	r3, [r7, #4]
 8004222:	f003 0307 	and.w	r3, r3, #7
 8004226:	60fb      	str	r3, [r7, #12]

  reg_value  =  SCB->AIRCR;                                                   /* read old register configuration    */
 8004228:	4b0c      	ldr	r3, [pc, #48]	; (800425c <__NVIC_SetPriorityGrouping+0x44>)
 800422a:	68db      	ldr	r3, [r3, #12]
 800422c:	60bb      	str	r3, [r7, #8]
  reg_value &= ~((uint32_t)(SCB_AIRCR_VECTKEY_Msk | SCB_AIRCR_PRIGROUP_Msk)); /* clear bits to change               */
 800422e:	68ba      	ldr	r2, [r7, #8]
 8004230:	f64f 03ff 	movw	r3, #63743	; 0xf8ff
 8004234:	4013      	ands	r3, r2
 8004236:	60bb      	str	r3, [r7, #8]
  reg_value  =  (reg_value                                   |
                ((uint32_t)0x5FAUL << SCB_AIRCR_VECTKEY_Pos) |
                (PriorityGroupTmp << SCB_AIRCR_PRIGROUP_Pos)  );              /* Insert write key and priority group */
 8004238:	68fb      	ldr	r3, [r7, #12]
 800423a:	021a      	lsls	r2, r3, #8
                ((uint32_t)0x5FAUL << SCB_AIRCR_VECTKEY_Pos) |
 800423c:	68bb      	ldr	r3, [r7, #8]
 800423e:	4313      	orrs	r3, r2
  reg_value  =  (reg_value                                   |
 8004240:	f043 63bf 	orr.w	r3, r3, #100139008	; 0x5f80000
 8004244:	f443 3300 	orr.w	r3, r3, #131072	; 0x20000
 8004248:	60bb      	str	r3, [r7, #8]
  SCB->AIRCR =  reg_value;
 800424a:	4a04      	ldr	r2, [pc, #16]	; (800425c <__NVIC_SetPriorityGrouping+0x44>)
 800424c:	68bb      	ldr	r3, [r7, #8]
 800424e:	60d3      	str	r3, [r2, #12]
}
 8004250:	bf00      	nop
 8004252:	3714      	adds	r7, #20
 8004254:	46bd      	mov	sp, r7
 8004256:	f85d 7b04 	ldr.w	r7, [sp], #4
 800425a:	4770      	bx	lr
 800425c:	e000ed00 	.word	0xe000ed00

08004260 <__NVIC_GetPriorityGrouping>:
  \brief   Get Priority Grouping
  \details Reads the priority grouping field from the NVIC Interrupt Controller.
  \return                Priority grouping field (SCB->AIRCR [10:8] PRIGROUP field).
 */
__STATIC_INLINE uint32_t __NVIC_GetPriorityGrouping(void)
{
 8004260:	b480      	push	{r7}
 8004262:	af00      	add	r7, sp, #0
  return ((uint32_t)((SCB->AIRCR & SCB_AIRCR_PRIGROUP_Msk) >> SCB_AIRCR_PRIGROUP_Pos));
 8004264:	4b04      	ldr	r3, [pc, #16]	; (8004278 <__NVIC_GetPriorityGrouping+0x18>)
 8004266:	68db      	ldr	r3, [r3, #12]
 8004268:	0a1b      	lsrs	r3, r3, #8
 800426a:	f003 0307 	and.w	r3, r3, #7
}
 800426e:	4618      	mov	r0, r3
 8004270:	46bd      	mov	sp, r7
 8004272:	f85d 7b04 	ldr.w	r7, [sp], #4
 8004276:	4770      	bx	lr
 8004278:	e000ed00 	.word	0xe000ed00

0800427c <__NVIC_EnableIRQ>:
  \details Enables a device specific interrupt in the NVIC interrupt controller.
  \param [in]      IRQn  Device specific interrupt number.
  \note    IRQn must not be negative.
 */
__STATIC_INLINE void __NVIC_EnableIRQ(IRQn_Type IRQn)
{
 800427c:	b480      	push	{r7}
 800427e:	b083      	sub	sp, #12
 8004280:	af00      	add	r7, sp, #0
 8004282:	4603      	mov	r3, r0
 8004284:	71fb      	strb	r3, [r7, #7]
  if ((int32_t)(IRQn) >= 0)
 8004286:	f997 3007 	ldrsb.w	r3, [r7, #7]
 800428a:	2b00      	cmp	r3, #0
 800428c:	db0b      	blt.n	80042a6 <__NVIC_EnableIRQ+0x2a>
  {
    NVIC->ISER[(((uint32_t)IRQn) >> 5UL)] = (uint32_t)(1UL << (((uint32_t)IRQn) & 0x1FUL));
 800428e:	79fb      	ldrb	r3, [r7, #7]
 8004290:	f003 021f 	and.w	r2, r3, #31
 8004294:	4907      	ldr	r1, [pc, #28]	; (80042b4 <__NVIC_EnableIRQ+0x38>)
 8004296:	f997 3007 	ldrsb.w	r3, [r7, #7]
 800429a:	095b      	lsrs	r3, r3, #5
 800429c:	2001      	movs	r0, #1
 800429e:	fa00 f202 	lsl.w	r2, r0, r2
 80042a2:	f841 2023 	str.w	r2, [r1, r3, lsl #2]
  }
}
 80042a6:	bf00      	nop
 80042a8:	370c      	adds	r7, #12
 80042aa:	46bd      	mov	sp, r7
 80042ac:	f85d 7b04 	ldr.w	r7, [sp], #4
 80042b0:	4770      	bx	lr
 80042b2:	bf00      	nop
 80042b4:	e000e100 	.word	0xe000e100

080042b8 <__NVIC_SetPriority>:
  \param [in]      IRQn  Interrupt number.
  \param [in]  priority  Priority to set.
  \note    The priority cannot be set for every processor exception.
 */
__STATIC_INLINE void __NVIC_SetPriority(IRQn_Type IRQn, uint32_t priority)
{
 80042b8:	b480      	push	{r7}
 80042ba:	b083      	sub	sp, #12
 80042bc:	af00      	add	r7, sp, #0
 80042be:	4603      	mov	r3, r0
 80042c0:	6039      	str	r1, [r7, #0]
 80042c2:	71fb      	strb	r3, [r7, #7]
  if ((int32_t)(IRQn) >= 0)
 80042c4:	f997 3007 	ldrsb.w	r3, [r7, #7]
 80042c8:	2b00      	cmp	r3, #0
 80042ca:	db0a      	blt.n	80042e2 <__NVIC_SetPriority+0x2a>
  {
    NVIC->IP[((uint32_t)IRQn)]               = (uint8_t)((priority << (8U - __NVIC_PRIO_BITS)) & (uint32_t)0xFFUL);
 80042cc:	683b      	ldr	r3, [r7, #0]
 80042ce:	b2da      	uxtb	r2, r3
 80042d0:	490c      	ldr	r1, [pc, #48]	; (8004304 <__NVIC_SetPriority+0x4c>)
 80042d2:	f997 3007 	ldrsb.w	r3, [r7, #7]
 80042d6:	0112      	lsls	r2, r2, #4
 80042d8:	b2d2      	uxtb	r2, r2
 80042da:	440b      	add	r3, r1
 80042dc:	f883 2300 	strb.w	r2, [r3, #768]	; 0x300
  }
  else
  {
    SCB->SHP[(((uint32_t)IRQn) & 0xFUL)-4UL] = (uint8_t)((priority << (8U - __NVIC_PRIO_BITS)) & (uint32_t)0xFFUL);
  }
}
 80042e0:	e00a      	b.n	80042f8 <__NVIC_SetPriority+0x40>
    SCB->SHP[(((uint32_t)IRQn) & 0xFUL)-4UL] = (uint8_t)((priority << (8U - __NVIC_PRIO_BITS)) & (uint32_t)0xFFUL);
 80042e2:	683b      	ldr	r3, [r7, #0]
 80042e4:	b2da      	uxtb	r2, r3
 80042e6:	4908      	ldr	r1, [pc, #32]	; (8004308 <__NVIC_SetPriority+0x50>)
 80042e8:	79fb      	ldrb	r3, [r7, #7]
 80042ea:	f003 030f 	and.w	r3, r3, #15
 80042ee:	3b04      	subs	r3, #4
 80042f0:	0112      	lsls	r2, r2, #4
 80042f2:	b2d2      	uxtb	r2, r2
 80042f4:	440b      	add	r3, r1
 80042f6:	761a      	strb	r2, [r3, #24]
}
 80042f8:	bf00      	nop
 80042fa:	370c      	adds	r7, #12
 80042fc:	46bd      	mov	sp, r7
 80042fe:	f85d 7b04 	ldr.w	r7, [sp], #4
 8004302:	4770      	bx	lr
 8004304:	e000e100 	.word	0xe000e100
 8004308:	e000ed00 	.word	0xe000ed00

0800430c <NVIC_EncodePriority>:
  \param [in]   PreemptPriority  Preemptive priority value (starting from 0).
  \param [in]       SubPriority  Subpriority value (starting from 0).
  \return                        Encoded priority. Value can be used in the function \ref NVIC_SetPriority().
 */
__STATIC_INLINE uint32_t NVIC_EncodePriority (uint32_t PriorityGroup, uint32_t PreemptPriority, uint32_t SubPriority)
{
 800430c:	b480      	push	{r7}
 800430e:	b089      	sub	sp, #36	; 0x24
 8004310:	af00      	add	r7, sp, #0
 8004312:	60f8      	str	r0, [r7, #12]
 8004314:	60b9      	str	r1, [r7, #8]
 8004316:	607a      	str	r2, [r7, #4]
  uint32_t PriorityGroupTmp = (PriorityGroup & (uint32_t)0x07UL);   /* only values 0..7 are used          */
 8004318:	68fb      	ldr	r3, [r7, #12]
 800431a:	f003 0307 	and.w	r3, r3, #7
 800431e:	61fb      	str	r3, [r7, #28]
  uint32_t PreemptPriorityBits;
  uint32_t SubPriorityBits;

  PreemptPriorityBits = ((7UL - PriorityGroupTmp) > (uint32_t)(__NVIC_PRIO_BITS)) ? (uint32_t)(__NVIC_PRIO_BITS) : (uint32_t)(7UL - PriorityGroupTmp);
 8004320:	69fb      	ldr	r3, [r7, #28]
 8004322:	f1c3 0307 	rsb	r3, r3, #7
 8004326:	2b04      	cmp	r3, #4
 8004328:	bf28      	it	cs
 800432a:	2304      	movcs	r3, #4
 800432c:	61bb      	str	r3, [r7, #24]
  SubPriorityBits     = ((PriorityGroupTmp + (uint32_t)(__NVIC_PRIO_BITS)) < (uint32_t)7UL) ? (uint32_t)0UL : (uint32_t)((PriorityGroupTmp - 7UL) + (uint32_t)(__NVIC_PRIO_BITS));
 800432e:	69fb      	ldr	r3, [r7, #28]
 8004330:	3304      	adds	r3, #4
 8004332:	2b06      	cmp	r3, #6
 8004334:	d902      	bls.n	800433c <NVIC_EncodePriority+0x30>
 8004336:	69fb      	ldr	r3, [r7, #28]
 8004338:	3b03      	subs	r3, #3
 800433a:	e000      	b.n	800433e <NVIC_EncodePriority+0x32>
 800433c:	2300      	movs	r3, #0
 800433e:	617b      	str	r3, [r7, #20]

  return (
           ((PreemptPriority & (uint32_t)((1UL << (PreemptPriorityBits)) - 1UL)) << SubPriorityBits) |
 8004340:	f04f 32ff 	mov.w	r2, #4294967295
 8004344:	69bb      	ldr	r3, [r7, #24]
 8004346:	fa02 f303 	lsl.w	r3, r2, r3
 800434a:	43da      	mvns	r2, r3
 800434c:	68bb      	ldr	r3, [r7, #8]
 800434e:	401a      	ands	r2, r3
 8004350:	697b      	ldr	r3, [r7, #20]
 8004352:	409a      	lsls	r2, r3
           ((SubPriority     & (uint32_t)((1UL << (SubPriorityBits    )) - 1UL)))
 8004354:	f04f 31ff 	mov.w	r1, #4294967295
 8004358:	697b      	ldr	r3, [r7, #20]
 800435a:	fa01 f303 	lsl.w	r3, r1, r3
 800435e:	43d9      	mvns	r1, r3
 8004360:	687b      	ldr	r3, [r7, #4]
 8004362:	400b      	ands	r3, r1
           ((PreemptPriority & (uint32_t)((1UL << (PreemptPriorityBits)) - 1UL)) << SubPriorityBits) |
 8004364:	4313      	orrs	r3, r2
         );
}
 8004366:	4618      	mov	r0, r3
 8004368:	3724      	adds	r7, #36	; 0x24
 800436a:	46bd      	mov	sp, r7
 800436c:	f85d 7b04 	ldr.w	r7, [sp], #4
 8004370:	4770      	bx	lr

08004372 <HAL_NVIC_SetPriorityGrouping>:
  * @note   When the NVIC_PriorityGroup_0 is selected, IRQ preemption is no more possible. 
  *         The pending IRQ priority will be managed only by the subpriority. 
  * @retval None
  */
void HAL_NVIC_SetPriorityGrouping(uint32_t PriorityGroup)
{
 8004372:	b580      	push	{r7, lr}
 8004374:	b082      	sub	sp, #8
 8004376:	af00      	add	r7, sp, #0
 8004378:	6078      	str	r0, [r7, #4]
  /* Check the parameters */
  assert_param(IS_NVIC_PRIORITY_GROUP(PriorityGroup));
  
  /* Set the PRIGROUP[10:8] bits according to the PriorityGroup parameter value */
  NVIC_SetPriorityGrouping(PriorityGroup);
 800437a:	6878      	ldr	r0, [r7, #4]
 800437c:	f7ff ff4c 	bl	8004218 <__NVIC_SetPriorityGrouping>
}
 8004380:	bf00      	nop
 8004382:	3708      	adds	r7, #8
 8004384:	46bd      	mov	sp, r7
 8004386:	bd80      	pop	{r7, pc}

08004388 <HAL_NVIC_SetPriority>:
  *         This parameter can be a value between 0 and 15
  *         A lower priority value indicates a higher priority.          
  * @retval None
  */
void HAL_NVIC_SetPriority(IRQn_Type IRQn, uint32_t PreemptPriority, uint32_t SubPriority)
{ 
 8004388:	b580      	push	{r7, lr}
 800438a:	b086      	sub	sp, #24
 800438c:	af00      	add	r7, sp, #0
 800438e:	4603      	mov	r3, r0
 8004390:	60b9      	str	r1, [r7, #8]
 8004392:	607a      	str	r2, [r7, #4]
 8004394:	73fb      	strb	r3, [r7, #15]
  uint32_t prioritygroup = 0x00U;
 8004396:	2300      	movs	r3, #0
 8004398:	617b      	str	r3, [r7, #20]
  
  /* Check the parameters */
  assert_param(IS_NVIC_SUB_PRIORITY(SubPriority));
  assert_param(IS_NVIC_PREEMPTION_PRIORITY(PreemptPriority));
  
  prioritygroup = NVIC_GetPriorityGrouping();
 800439a:	f7ff ff61 	bl	8004260 <__NVIC_GetPriorityGrouping>
 800439e:	6178      	str	r0, [r7, #20]
  
  NVIC_SetPriority(IRQn, NVIC_EncodePriority(prioritygroup, PreemptPriority, SubPriority));
 80043a0:	687a      	ldr	r2, [r7, #4]
 80043a2:	68b9      	ldr	r1, [r7, #8]
 80043a4:	6978      	ldr	r0, [r7, #20]
 80043a6:	f7ff ffb1 	bl	800430c <NVIC_EncodePriority>
 80043aa:	4602      	mov	r2, r0
 80043ac:	f997 300f 	ldrsb.w	r3, [r7, #15]
 80043b0:	4611      	mov	r1, r2
 80043b2:	4618      	mov	r0, r3
 80043b4:	f7ff ff80 	bl	80042b8 <__NVIC_SetPriority>
}
 80043b8:	bf00      	nop
 80043ba:	3718      	adds	r7, #24
 80043bc:	46bd      	mov	sp, r7
 80043be:	bd80      	pop	{r7, pc}

080043c0 <HAL_NVIC_EnableIRQ>:
  *         This parameter can be an enumerator of IRQn_Type enumeration
  *         (For the complete STM32 Devices IRQ Channels list, please refer to the appropriate CMSIS device file (stm32f4xxxx.h))
  * @retval None
  */
void HAL_NVIC_EnableIRQ(IRQn_Type IRQn)
{
 80043c0:	b580      	push	{r7, lr}
 80043c2:	b082      	sub	sp, #8
 80043c4:	af00      	add	r7, sp, #0
 80043c6:	4603      	mov	r3, r0
 80043c8:	71fb      	strb	r3, [r7, #7]
  /* Check the parameters */
  assert_param(IS_NVIC_DEVICE_IRQ(IRQn));
  
  /* Enable interrupt */
  NVIC_EnableIRQ(IRQn);
 80043ca:	f997 3007 	ldrsb.w	r3, [r7, #7]
 80043ce:	4618      	mov	r0, r3
 80043d0:	f7ff ff54 	bl	800427c <__NVIC_EnableIRQ>
}
 80043d4:	bf00      	nop
 80043d6:	3708      	adds	r7, #8
 80043d8:	46bd      	mov	sp, r7
 80043da:	bd80      	pop	{r7, pc}

080043dc <HAL_DMA_Abort_IT>:
  * @param  hdma   pointer to a DMA_HandleTypeDef structure that contains
  *                 the configuration information for the specified DMA Stream.
  * @retval HAL status
  */
HAL_StatusTypeDef HAL_DMA_Abort_IT(DMA_HandleTypeDef *hdma)
{
 80043dc:	b480      	push	{r7}
 80043de:	b083      	sub	sp, #12
 80043e0:	af00      	add	r7, sp, #0
 80043e2:	6078      	str	r0, [r7, #4]
  if(hdma->State != HAL_DMA_STATE_BUSY)
 80043e4:	687b      	ldr	r3, [r7, #4]
 80043e6:	f893 3035 	ldrb.w	r3, [r3, #53]	; 0x35
 80043ea:	b2db      	uxtb	r3, r3
 80043ec:	2b02      	cmp	r3, #2
 80043ee:	d004      	beq.n	80043fa <HAL_DMA_Abort_IT+0x1e>
  {
    hdma->ErrorCode = HAL_DMA_ERROR_NO_XFER;
 80043f0:	687b      	ldr	r3, [r7, #4]
 80043f2:	2280      	movs	r2, #128	; 0x80
 80043f4:	655a      	str	r2, [r3, #84]	; 0x54
    return HAL_ERROR;
 80043f6:	2301      	movs	r3, #1
 80043f8:	e00c      	b.n	8004414 <HAL_DMA_Abort_IT+0x38>
  }
  else
  {
    /* Set Abort State  */
    hdma->State = HAL_DMA_STATE_ABORT;
 80043fa:	687b      	ldr	r3, [r7, #4]
 80043fc:	2205      	movs	r2, #5
 80043fe:	f883 2035 	strb.w	r2, [r3, #53]	; 0x35
    
    /* Disable the stream */
    __HAL_DMA_DISABLE(hdma);
 8004402:	687b      	ldr	r3, [r7, #4]
 8004404:	681b      	ldr	r3, [r3, #0]
 8004406:	681a      	ldr	r2, [r3, #0]
 8004408:	687b      	ldr	r3, [r7, #4]
 800440a:	681b      	ldr	r3, [r3, #0]
 800440c:	f022 0201 	bic.w	r2, r2, #1
 8004410:	601a      	str	r2, [r3, #0]
  }

  return HAL_OK;
 8004412:	2300      	movs	r3, #0
}
 8004414:	4618      	mov	r0, r3
 8004416:	370c      	adds	r7, #12
 8004418:	46bd      	mov	sp, r7
 800441a:	f85d 7b04 	ldr.w	r7, [sp], #4
 800441e:	4770      	bx	lr

08004420 <HAL_GPIO_Init>:
  * @param  GPIO_Init pointer to a GPIO_InitTypeDef structure that contains
  *         the configuration information for the specified GPIO peripheral.
  * @retval None
  */
void HAL_GPIO_Init(GPIO_TypeDef  *GPIOx, GPIO_InitTypeDef *GPIO_Init)
{
 8004420:	b480      	push	{r7}
 8004422:	b089      	sub	sp, #36	; 0x24
 8004424:	af00      	add	r7, sp, #0
 8004426:	6078      	str	r0, [r7, #4]
 8004428:	6039      	str	r1, [r7, #0]
  uint32_t position;
  uint32_t ioposition = 0x00U;
 800442a:	2300      	movs	r3, #0
 800442c:	617b      	str	r3, [r7, #20]
  uint32_t iocurrent = 0x00U;
 800442e:	2300      	movs	r3, #0
 8004430:	613b      	str	r3, [r7, #16]
  uint32_t temp = 0x00U;
 8004432:	2300      	movs	r3, #0
 8004434:	61bb      	str	r3, [r7, #24]
  assert_param(IS_GPIO_PIN(GPIO_Init->Pin));
  assert_param(IS_GPIO_MODE(GPIO_Init->Mode));
  assert_param(IS_GPIO_PULL(GPIO_Init->Pull));

  /* Configure the port pins */
  for(position = 0U; position < GPIO_NUMBER; position++)
 8004436:	2300      	movs	r3, #0
 8004438:	61fb      	str	r3, [r7, #28]
 800443a:	e177      	b.n	800472c <HAL_GPIO_Init+0x30c>
  {
    /* Get the IO position */
    ioposition = 0x01U << position;
 800443c:	2201      	movs	r2, #1
 800443e:	69fb      	ldr	r3, [r7, #28]
 8004440:	fa02 f303 	lsl.w	r3, r2, r3
 8004444:	617b      	str	r3, [r7, #20]
    /* Get the current IO position */
    iocurrent = (uint32_t)(GPIO_Init->Pin) & ioposition;
 8004446:	683b      	ldr	r3, [r7, #0]
 8004448:	681b      	ldr	r3, [r3, #0]
 800444a:	697a      	ldr	r2, [r7, #20]
 800444c:	4013      	ands	r3, r2
 800444e:	613b      	str	r3, [r7, #16]

    if(iocurrent == ioposition)
 8004450:	693a      	ldr	r2, [r7, #16]
 8004452:	697b      	ldr	r3, [r7, #20]
 8004454:	429a      	cmp	r2, r3
 8004456:	f040 8166 	bne.w	8004726 <HAL_GPIO_Init+0x306>
    {
      /*--------------------- GPIO Mode Configuration ------------------------*/
      /* In case of Output or Alternate function mode selection */
      if((GPIO_Init->Mode == GPIO_MODE_OUTPUT_PP) || (GPIO_Init->Mode == GPIO_MODE_AF_PP) ||
 800445a:	683b      	ldr	r3, [r7, #0]
 800445c:	685b      	ldr	r3, [r3, #4]
 800445e:	2b01      	cmp	r3, #1
 8004460:	d00b      	beq.n	800447a <HAL_GPIO_Init+0x5a>
 8004462:	683b      	ldr	r3, [r7, #0]
 8004464:	685b      	ldr	r3, [r3, #4]
 8004466:	2b02      	cmp	r3, #2
 8004468:	d007      	beq.n	800447a <HAL_GPIO_Init+0x5a>
         (GPIO_Init->Mode == GPIO_MODE_OUTPUT_OD) || (GPIO_Init->Mode == GPIO_MODE_AF_OD))
 800446a:	683b      	ldr	r3, [r7, #0]
 800446c:	685b      	ldr	r3, [r3, #4]
      if((GPIO_Init->Mode == GPIO_MODE_OUTPUT_PP) || (GPIO_Init->Mode == GPIO_MODE_AF_PP) ||
 800446e:	2b11      	cmp	r3, #17
 8004470:	d003      	beq.n	800447a <HAL_GPIO_Init+0x5a>
         (GPIO_Init->Mode == GPIO_MODE_OUTPUT_OD) || (GPIO_Init->Mode == GPIO_MODE_AF_OD))
 8004472:	683b      	ldr	r3, [r7, #0]
 8004474:	685b      	ldr	r3, [r3, #4]
 8004476:	2b12      	cmp	r3, #18
 8004478:	d130      	bne.n	80044dc <HAL_GPIO_Init+0xbc>
      {
        /* Check the Speed parameter */
        assert_param(IS_GPIO_SPEED(GPIO_Init->Speed));
        /* Configure the IO Speed */
        temp = GPIOx->OSPEEDR; 
 800447a:	687b      	ldr	r3, [r7, #4]
 800447c:	689b      	ldr	r3, [r3, #8]
 800447e:	61bb      	str	r3, [r7, #24]
        temp &= ~(GPIO_OSPEEDER_OSPEEDR0 << (position * 2U));
 8004480:	69fb      	ldr	r3, [r7, #28]
 8004482:	005b      	lsls	r3, r3, #1
 8004484:	2203      	movs	r2, #3
 8004486:	fa02 f303 	lsl.w	r3, r2, r3
 800448a:	43db      	mvns	r3, r3
 800448c:	69ba      	ldr	r2, [r7, #24]
 800448e:	4013      	ands	r3, r2
 8004490:	61bb      	str	r3, [r7, #24]
        temp |= (GPIO_Init->Speed << (position * 2U));
 8004492:	683b      	ldr	r3, [r7, #0]
 8004494:	68da      	ldr	r2, [r3, #12]
 8004496:	69fb      	ldr	r3, [r7, #28]
 8004498:	005b      	lsls	r3, r3, #1
 800449a:	fa02 f303 	lsl.w	r3, r2, r3
 800449e:	69ba      	ldr	r2, [r7, #24]
 80044a0:	4313      	orrs	r3, r2
 80044a2:	61bb      	str	r3, [r7, #24]
        GPIOx->OSPEEDR = temp;
 80044a4:	687b      	ldr	r3, [r7, #4]
 80044a6:	69ba      	ldr	r2, [r7, #24]
 80044a8:	609a      	str	r2, [r3, #8]

        /* Configure the IO Output Type */
        temp = GPIOx->OTYPER;
 80044aa:	687b      	ldr	r3, [r7, #4]
 80044ac:	685b      	ldr	r3, [r3, #4]
 80044ae:	61bb      	str	r3, [r7, #24]
        temp &= ~(GPIO_OTYPER_OT_0 << position) ;
 80044b0:	2201      	movs	r2, #1
 80044b2:	69fb      	ldr	r3, [r7, #28]
 80044b4:	fa02 f303 	lsl.w	r3, r2, r3
 80044b8:	43db      	mvns	r3, r3
 80044ba:	69ba      	ldr	r2, [r7, #24]
 80044bc:	4013      	ands	r3, r2
 80044be:	61bb      	str	r3, [r7, #24]
        temp |= (((GPIO_Init->Mode & GPIO_OUTPUT_TYPE) >> 4U) << position);
 80044c0:	683b      	ldr	r3, [r7, #0]
 80044c2:	685b      	ldr	r3, [r3, #4]
 80044c4:	091b      	lsrs	r3, r3, #4
 80044c6:	f003 0201 	and.w	r2, r3, #1
 80044ca:	69fb      	ldr	r3, [r7, #28]
 80044cc:	fa02 f303 	lsl.w	r3, r2, r3
 80044d0:	69ba      	ldr	r2, [r7, #24]
 80044d2:	4313      	orrs	r3, r2
 80044d4:	61bb      	str	r3, [r7, #24]
        GPIOx->OTYPER = temp;
 80044d6:	687b      	ldr	r3, [r7, #4]
 80044d8:	69ba      	ldr	r2, [r7, #24]
 80044da:	605a      	str	r2, [r3, #4]
       }

      /* Activate the Pull-up or Pull down resistor for the current IO */
      temp = GPIOx->PUPDR;
 80044dc:	687b      	ldr	r3, [r7, #4]
 80044de:	68db      	ldr	r3, [r3, #12]
 80044e0:	61bb      	str	r3, [r7, #24]
      temp &= ~(GPIO_PUPDR_PUPDR0 << (position * 2U));
 80044e2:	69fb      	ldr	r3, [r7, #28]
 80044e4:	005b      	lsls	r3, r3, #1
 80044e6:	2203      	movs	r2, #3
 80044e8:	fa02 f303 	lsl.w	r3, r2, r3
 80044ec:	43db      	mvns	r3, r3
 80044ee:	69ba      	ldr	r2, [r7, #24]
 80044f0:	4013      	ands	r3, r2
 80044f2:	61bb      	str	r3, [r7, #24]
      temp |= ((GPIO_Init->Pull) << (position * 2U));
 80044f4:	683b      	ldr	r3, [r7, #0]
 80044f6:	689a      	ldr	r2, [r3, #8]
 80044f8:	69fb      	ldr	r3, [r7, #28]
 80044fa:	005b      	lsls	r3, r3, #1
 80044fc:	fa02 f303 	lsl.w	r3, r2, r3
 8004500:	69ba      	ldr	r2, [r7, #24]
 8004502:	4313      	orrs	r3, r2
 8004504:	61bb      	str	r3, [r7, #24]
      GPIOx->PUPDR = temp;
 8004506:	687b      	ldr	r3, [r7, #4]
 8004508:	69ba      	ldr	r2, [r7, #24]
 800450a:	60da      	str	r2, [r3, #12]

      /* In case of Alternate function mode selection */
      if((GPIO_Init->Mode == GPIO_MODE_AF_PP) || (GPIO_Init->Mode == GPIO_MODE_AF_OD))
 800450c:	683b      	ldr	r3, [r7, #0]
 800450e:	685b      	ldr	r3, [r3, #4]
 8004510:	2b02      	cmp	r3, #2
 8004512:	d003      	beq.n	800451c <HAL_GPIO_Init+0xfc>
 8004514:	683b      	ldr	r3, [r7, #0]
 8004516:	685b      	ldr	r3, [r3, #4]
 8004518:	2b12      	cmp	r3, #18
 800451a:	d123      	bne.n	8004564 <HAL_GPIO_Init+0x144>
      {
        /* Check the Alternate function parameter */
        assert_param(IS_GPIO_AF(GPIO_Init->Alternate));
        /* Configure Alternate function mapped with the current IO */
        temp = GPIOx->AFR[position >> 3U];
 800451c:	69fb      	ldr	r3, [r7, #28]
 800451e:	08da      	lsrs	r2, r3, #3
 8004520:	687b      	ldr	r3, [r7, #4]
 8004522:	3208      	adds	r2, #8
 8004524:	f853 3022 	ldr.w	r3, [r3, r2, lsl #2]
 8004528:	61bb      	str	r3, [r7, #24]
        temp &= ~(0xFU << ((uint32_t)(position & 0x07U) * 4U)) ;
 800452a:	69fb      	ldr	r3, [r7, #28]
 800452c:	f003 0307 	and.w	r3, r3, #7
 8004530:	009b      	lsls	r3, r3, #2
 8004532:	220f      	movs	r2, #15
 8004534:	fa02 f303 	lsl.w	r3, r2, r3
 8004538:	43db      	mvns	r3, r3
 800453a:	69ba      	ldr	r2, [r7, #24]
 800453c:	4013      	ands	r3, r2
 800453e:	61bb      	str	r3, [r7, #24]
        temp |= ((uint32_t)(GPIO_Init->Alternate) << (((uint32_t)position & 0x07U) * 4U));
 8004540:	683b      	ldr	r3, [r7, #0]
 8004542:	691a      	ldr	r2, [r3, #16]
 8004544:	69fb      	ldr	r3, [r7, #28]
 8004546:	f003 0307 	and.w	r3, r3, #7
 800454a:	009b      	lsls	r3, r3, #2
 800454c:	fa02 f303 	lsl.w	r3, r2, r3
 8004550:	69ba      	ldr	r2, [r7, #24]
 8004552:	4313      	orrs	r3, r2
 8004554:	61bb      	str	r3, [r7, #24]
        GPIOx->AFR[position >> 3U] = temp;
 8004556:	69fb      	ldr	r3, [r7, #28]
 8004558:	08da      	lsrs	r2, r3, #3
 800455a:	687b      	ldr	r3, [r7, #4]
 800455c:	3208      	adds	r2, #8
 800455e:	69b9      	ldr	r1, [r7, #24]
 8004560:	f843 1022 	str.w	r1, [r3, r2, lsl #2]
      }

      /* Configure IO Direction mode (Input, Output, Alternate or Analog) */
      temp = GPIOx->MODER;
 8004564:	687b      	ldr	r3, [r7, #4]
 8004566:	681b      	ldr	r3, [r3, #0]
 8004568:	61bb      	str	r3, [r7, #24]
      temp &= ~(GPIO_MODER_MODER0 << (position * 2U));
 800456a:	69fb      	ldr	r3, [r7, #28]
 800456c:	005b      	lsls	r3, r3, #1
 800456e:	2203      	movs	r2, #3
 8004570:	fa02 f303 	lsl.w	r3, r2, r3
 8004574:	43db      	mvns	r3, r3
 8004576:	69ba      	ldr	r2, [r7, #24]
 8004578:	4013      	ands	r3, r2
 800457a:	61bb      	str	r3, [r7, #24]
      temp |= ((GPIO_Init->Mode & GPIO_MODE) << (position * 2U));
 800457c:	683b      	ldr	r3, [r7, #0]
 800457e:	685b      	ldr	r3, [r3, #4]
 8004580:	f003 0203 	and.w	r2, r3, #3
 8004584:	69fb      	ldr	r3, [r7, #28]
 8004586:	005b      	lsls	r3, r3, #1
 8004588:	fa02 f303 	lsl.w	r3, r2, r3
 800458c:	69ba      	ldr	r2, [r7, #24]
 800458e:	4313      	orrs	r3, r2
 8004590:	61bb      	str	r3, [r7, #24]
      GPIOx->MODER = temp;
 8004592:	687b      	ldr	r3, [r7, #4]
 8004594:	69ba      	ldr	r2, [r7, #24]
 8004596:	601a      	str	r2, [r3, #0]

      /*--------------------- EXTI Mode Configuration ------------------------*/
      /* Configure the External Interrupt or event for the current IO */
      if((GPIO_Init->Mode & EXTI_MODE) == EXTI_MODE)
 8004598:	683b      	ldr	r3, [r7, #0]
 800459a:	685b      	ldr	r3, [r3, #4]
 800459c:	f003 5380 	and.w	r3, r3, #268435456	; 0x10000000
 80045a0:	2b00      	cmp	r3, #0
 80045a2:	f000 80c0 	beq.w	8004726 <HAL_GPIO_Init+0x306>
      {
        /* Enable SYSCFG Clock */
        __HAL_RCC_SYSCFG_CLK_ENABLE();
 80045a6:	2300      	movs	r3, #0
 80045a8:	60fb      	str	r3, [r7, #12]
 80045aa:	4b65      	ldr	r3, [pc, #404]	; (8004740 <HAL_GPIO_Init+0x320>)
 80045ac:	6c5b      	ldr	r3, [r3, #68]	; 0x44
 80045ae:	4a64      	ldr	r2, [pc, #400]	; (8004740 <HAL_GPIO_Init+0x320>)
 80045b0:	f443 4380 	orr.w	r3, r3, #16384	; 0x4000
 80045b4:	6453      	str	r3, [r2, #68]	; 0x44
 80045b6:	4b62      	ldr	r3, [pc, #392]	; (8004740 <HAL_GPIO_Init+0x320>)
 80045b8:	6c5b      	ldr	r3, [r3, #68]	; 0x44
 80045ba:	f403 4380 	and.w	r3, r3, #16384	; 0x4000
 80045be:	60fb      	str	r3, [r7, #12]
 80045c0:	68fb      	ldr	r3, [r7, #12]

        temp = SYSCFG->EXTICR[position >> 2U];
 80045c2:	4a60      	ldr	r2, [pc, #384]	; (8004744 <HAL_GPIO_Init+0x324>)
 80045c4:	69fb      	ldr	r3, [r7, #28]
 80045c6:	089b      	lsrs	r3, r3, #2
 80045c8:	3302      	adds	r3, #2
 80045ca:	f852 3023 	ldr.w	r3, [r2, r3, lsl #2]
 80045ce:	61bb      	str	r3, [r7, #24]
        temp &= ~(0x0FU << (4U * (position & 0x03U)));
 80045d0:	69fb      	ldr	r3, [r7, #28]
 80045d2:	f003 0303 	and.w	r3, r3, #3
 80045d6:	009b      	lsls	r3, r3, #2
 80045d8:	220f      	movs	r2, #15
 80045da:	fa02 f303 	lsl.w	r3, r2, r3
 80045de:	43db      	mvns	r3, r3
 80045e0:	69ba      	ldr	r2, [r7, #24]
 80045e2:	4013      	ands	r3, r2
 80045e4:	61bb      	str	r3, [r7, #24]
        temp |= ((uint32_t)(GPIO_GET_INDEX(GPIOx)) << (4U * (position & 0x03U)));
 80045e6:	687b      	ldr	r3, [r7, #4]
 80045e8:	4a57      	ldr	r2, [pc, #348]	; (8004748 <HAL_GPIO_Init+0x328>)
 80045ea:	4293      	cmp	r3, r2
 80045ec:	d037      	beq.n	800465e <HAL_GPIO_Init+0x23e>
 80045ee:	687b      	ldr	r3, [r7, #4]
 80045f0:	4a56      	ldr	r2, [pc, #344]	; (800474c <HAL_GPIO_Init+0x32c>)
 80045f2:	4293      	cmp	r3, r2
 80045f4:	d031      	beq.n	800465a <HAL_GPIO_Init+0x23a>
 80045f6:	687b      	ldr	r3, [r7, #4]
 80045f8:	4a55      	ldr	r2, [pc, #340]	; (8004750 <HAL_GPIO_Init+0x330>)
 80045fa:	4293      	cmp	r3, r2
 80045fc:	d02b      	beq.n	8004656 <HAL_GPIO_Init+0x236>
 80045fe:	687b      	ldr	r3, [r7, #4]
 8004600:	4a54      	ldr	r2, [pc, #336]	; (8004754 <HAL_GPIO_Init+0x334>)
 8004602:	4293      	cmp	r3, r2
 8004604:	d025      	beq.n	8004652 <HAL_GPIO_Init+0x232>
 8004606:	687b      	ldr	r3, [r7, #4]
 8004608:	4a53      	ldr	r2, [pc, #332]	; (8004758 <HAL_GPIO_Init+0x338>)
 800460a:	4293      	cmp	r3, r2
 800460c:	d01f      	beq.n	800464e <HAL_GPIO_Init+0x22e>
 800460e:	687b      	ldr	r3, [r7, #4]
 8004610:	4a52      	ldr	r2, [pc, #328]	; (800475c <HAL_GPIO_Init+0x33c>)
 8004612:	4293      	cmp	r3, r2
 8004614:	d019      	beq.n	800464a <HAL_GPIO_Init+0x22a>
 8004616:	687b      	ldr	r3, [r7, #4]
 8004618:	4a51      	ldr	r2, [pc, #324]	; (8004760 <HAL_GPIO_Init+0x340>)
 800461a:	4293      	cmp	r3, r2
 800461c:	d013      	beq.n	8004646 <HAL_GPIO_Init+0x226>
 800461e:	687b      	ldr	r3, [r7, #4]
 8004620:	4a50      	ldr	r2, [pc, #320]	; (8004764 <HAL_GPIO_Init+0x344>)
 8004622:	4293      	cmp	r3, r2
 8004624:	d00d      	beq.n	8004642 <HAL_GPIO_Init+0x222>
 8004626:	687b      	ldr	r3, [r7, #4]
 8004628:	4a4f      	ldr	r2, [pc, #316]	; (8004768 <HAL_GPIO_Init+0x348>)
 800462a:	4293      	cmp	r3, r2
 800462c:	d007      	beq.n	800463e <HAL_GPIO_Init+0x21e>
 800462e:	687b      	ldr	r3, [r7, #4]
 8004630:	4a4e      	ldr	r2, [pc, #312]	; (800476c <HAL_GPIO_Init+0x34c>)
 8004632:	4293      	cmp	r3, r2
 8004634:	d101      	bne.n	800463a <HAL_GPIO_Init+0x21a>
 8004636:	2309      	movs	r3, #9
 8004638:	e012      	b.n	8004660 <HAL_GPIO_Init+0x240>
 800463a:	230a      	movs	r3, #10
 800463c:	e010      	b.n	8004660 <HAL_GPIO_Init+0x240>
 800463e:	2308      	movs	r3, #8
 8004640:	e00e      	b.n	8004660 <HAL_GPIO_Init+0x240>
 8004642:	2307      	movs	r3, #7
 8004644:	e00c      	b.n	8004660 <HAL_GPIO_Init+0x240>
 8004646:	2306      	movs	r3, #6
 8004648:	e00a      	b.n	8004660 <HAL_GPIO_Init+0x240>
 800464a:	2305      	movs	r3, #5
 800464c:	e008      	b.n	8004660 <HAL_GPIO_Init+0x240>
 800464e:	2304      	movs	r3, #4
 8004650:	e006      	b.n	8004660 <HAL_GPIO_Init+0x240>
 8004652:	2303      	movs	r3, #3
 8004654:	e004      	b.n	8004660 <HAL_GPIO_Init+0x240>
 8004656:	2302      	movs	r3, #2
 8004658:	e002      	b.n	8004660 <HAL_GPIO_Init+0x240>
 800465a:	2301      	movs	r3, #1
 800465c:	e000      	b.n	8004660 <HAL_GPIO_Init+0x240>
 800465e:	2300      	movs	r3, #0
 8004660:	69fa      	ldr	r2, [r7, #28]
 8004662:	f002 0203 	and.w	r2, r2, #3
 8004666:	0092      	lsls	r2, r2, #2
 8004668:	4093      	lsls	r3, r2
 800466a:	69ba      	ldr	r2, [r7, #24]
 800466c:	4313      	orrs	r3, r2
 800466e:	61bb      	str	r3, [r7, #24]
        SYSCFG->EXTICR[position >> 2U] = temp;
 8004670:	4934      	ldr	r1, [pc, #208]	; (8004744 <HAL_GPIO_Init+0x324>)
 8004672:	69fb      	ldr	r3, [r7, #28]
 8004674:	089b      	lsrs	r3, r3, #2
 8004676:	3302      	adds	r3, #2
 8004678:	69ba      	ldr	r2, [r7, #24]
 800467a:	f841 2023 	str.w	r2, [r1, r3, lsl #2]

        /* Clear EXTI line configuration */
        temp = EXTI->IMR;
 800467e:	4b3c      	ldr	r3, [pc, #240]	; (8004770 <HAL_GPIO_Init+0x350>)
 8004680:	681b      	ldr	r3, [r3, #0]
 8004682:	61bb      	str	r3, [r7, #24]
        temp &= ~((uint32_t)iocurrent);
 8004684:	693b      	ldr	r3, [r7, #16]
 8004686:	43db      	mvns	r3, r3
 8004688:	69ba      	ldr	r2, [r7, #24]
 800468a:	4013      	ands	r3, r2
 800468c:	61bb      	str	r3, [r7, #24]
        if((GPIO_Init->Mode & GPIO_MODE_IT) == GPIO_MODE_IT)
 800468e:	683b      	ldr	r3, [r7, #0]
 8004690:	685b      	ldr	r3, [r3, #4]
 8004692:	f403 3380 	and.w	r3, r3, #65536	; 0x10000
 8004696:	2b00      	cmp	r3, #0
 8004698:	d003      	beq.n	80046a2 <HAL_GPIO_Init+0x282>
        {
          temp |= iocurrent;
 800469a:	69ba      	ldr	r2, [r7, #24]
 800469c:	693b      	ldr	r3, [r7, #16]
 800469e:	4313      	orrs	r3, r2
 80046a0:	61bb      	str	r3, [r7, #24]
        }
        EXTI->IMR = temp;
 80046a2:	4a33      	ldr	r2, [pc, #204]	; (8004770 <HAL_GPIO_Init+0x350>)
 80046a4:	69bb      	ldr	r3, [r7, #24]
 80046a6:	6013      	str	r3, [r2, #0]

        temp = EXTI->EMR;
 80046a8:	4b31      	ldr	r3, [pc, #196]	; (8004770 <HAL_GPIO_Init+0x350>)
 80046aa:	685b      	ldr	r3, [r3, #4]
 80046ac:	61bb      	str	r3, [r7, #24]
        temp &= ~((uint32_t)iocurrent);
 80046ae:	693b      	ldr	r3, [r7, #16]
 80046b0:	43db      	mvns	r3, r3
 80046b2:	69ba      	ldr	r2, [r7, #24]
 80046b4:	4013      	ands	r3, r2
 80046b6:	61bb      	str	r3, [r7, #24]
        if((GPIO_Init->Mode & GPIO_MODE_EVT) == GPIO_MODE_EVT)
 80046b8:	683b      	ldr	r3, [r7, #0]
 80046ba:	685b      	ldr	r3, [r3, #4]
 80046bc:	f403 3300 	and.w	r3, r3, #131072	; 0x20000
 80046c0:	2b00      	cmp	r3, #0
 80046c2:	d003      	beq.n	80046cc <HAL_GPIO_Init+0x2ac>
        {
          temp |= iocurrent;
 80046c4:	69ba      	ldr	r2, [r7, #24]
 80046c6:	693b      	ldr	r3, [r7, #16]
 80046c8:	4313      	orrs	r3, r2
 80046ca:	61bb      	str	r3, [r7, #24]
        }
        EXTI->EMR = temp;
 80046cc:	4a28      	ldr	r2, [pc, #160]	; (8004770 <HAL_GPIO_Init+0x350>)
 80046ce:	69bb      	ldr	r3, [r7, #24]
 80046d0:	6053      	str	r3, [r2, #4]

        /* Clear Rising Falling edge configuration */
        temp = EXTI->RTSR;
 80046d2:	4b27      	ldr	r3, [pc, #156]	; (8004770 <HAL_GPIO_Init+0x350>)
 80046d4:	689b      	ldr	r3, [r3, #8]
 80046d6:	61bb      	str	r3, [r7, #24]
        temp &= ~((uint32_t)iocurrent);
 80046d8:	693b      	ldr	r3, [r7, #16]
 80046da:	43db      	mvns	r3, r3
 80046dc:	69ba      	ldr	r2, [r7, #24]
 80046de:	4013      	ands	r3, r2
 80046e0:	61bb      	str	r3, [r7, #24]
        if((GPIO_Init->Mode & RISING_EDGE) == RISING_EDGE)
 80046e2:	683b      	ldr	r3, [r7, #0]
 80046e4:	685b      	ldr	r3, [r3, #4]
 80046e6:	f403 1380 	and.w	r3, r3, #1048576	; 0x100000
 80046ea:	2b00      	cmp	r3, #0
 80046ec:	d003      	beq.n	80046f6 <HAL_GPIO_Init+0x2d6>
        {
          temp |= iocurrent;
 80046ee:	69ba      	ldr	r2, [r7, #24]
 80046f0:	693b      	ldr	r3, [r7, #16]
 80046f2:	4313      	orrs	r3, r2
 80046f4:	61bb      	str	r3, [r7, #24]
        }
        EXTI->RTSR = temp;
 80046f6:	4a1e      	ldr	r2, [pc, #120]	; (8004770 <HAL_GPIO_Init+0x350>)
 80046f8:	69bb      	ldr	r3, [r7, #24]
 80046fa:	6093      	str	r3, [r2, #8]

        temp = EXTI->FTSR;
 80046fc:	4b1c      	ldr	r3, [pc, #112]	; (8004770 <HAL_GPIO_Init+0x350>)
 80046fe:	68db      	ldr	r3, [r3, #12]
 8004700:	61bb      	str	r3, [r7, #24]
        temp &= ~((uint32_t)iocurrent);
 8004702:	693b      	ldr	r3, [r7, #16]
 8004704:	43db      	mvns	r3, r3
 8004706:	69ba      	ldr	r2, [r7, #24]
 8004708:	4013      	ands	r3, r2
 800470a:	61bb      	str	r3, [r7, #24]
        if((GPIO_Init->Mode & FALLING_EDGE) == FALLING_EDGE)
 800470c:	683b      	ldr	r3, [r7, #0]
 800470e:	685b      	ldr	r3, [r3, #4]
 8004710:	f403 1300 	and.w	r3, r3, #2097152	; 0x200000
 8004714:	2b00      	cmp	r3, #0
 8004716:	d003      	beq.n	8004720 <HAL_GPIO_Init+0x300>
        {
          temp |= iocurrent;
 8004718:	69ba      	ldr	r2, [r7, #24]
 800471a:	693b      	ldr	r3, [r7, #16]
 800471c:	4313      	orrs	r3, r2
 800471e:	61bb      	str	r3, [r7, #24]
        }
        EXTI->FTSR = temp;
 8004720:	4a13      	ldr	r2, [pc, #76]	; (8004770 <HAL_GPIO_Init+0x350>)
 8004722:	69bb      	ldr	r3, [r7, #24]
 8004724:	60d3      	str	r3, [r2, #12]
  for(position = 0U; position < GPIO_NUMBER; position++)
 8004726:	69fb      	ldr	r3, [r7, #28]
 8004728:	3301      	adds	r3, #1
 800472a:	61fb      	str	r3, [r7, #28]
 800472c:	69fb      	ldr	r3, [r7, #28]
 800472e:	2b0f      	cmp	r3, #15
 8004730:	f67f ae84 	bls.w	800443c <HAL_GPIO_Init+0x1c>
      }
    }
  }
}
 8004734:	bf00      	nop
 8004736:	3724      	adds	r7, #36	; 0x24
 8004738:	46bd      	mov	sp, r7
 800473a:	f85d 7b04 	ldr.w	r7, [sp], #4
 800473e:	4770      	bx	lr
 8004740:	40023800 	.word	0x40023800
 8004744:	40013800 	.word	0x40013800
 8004748:	40020000 	.word	0x40020000
 800474c:	40020400 	.word	0x40020400
 8004750:	40020800 	.word	0x40020800
 8004754:	40020c00 	.word	0x40020c00
 8004758:	40021000 	.word	0x40021000
 800475c:	40021400 	.word	0x40021400
 8004760:	40021800 	.word	0x40021800
 8004764:	40021c00 	.word	0x40021c00
 8004768:	40022000 	.word	0x40022000
 800476c:	40022400 	.word	0x40022400
 8004770:	40013c00 	.word	0x40013c00

08004774 <HAL_GPIO_WritePin>:
  *            @arg GPIO_PIN_RESET: to clear the port pin
  *            @arg GPIO_PIN_SET: to set the port pin
  * @retval None
  */
void HAL_GPIO_WritePin(GPIO_TypeDef* GPIOx, uint16_t GPIO_Pin, GPIO_PinState PinState)
{
 8004774:	b480      	push	{r7}
 8004776:	b083      	sub	sp, #12
 8004778:	af00      	add	r7, sp, #0
 800477a:	6078      	str	r0, [r7, #4]
 800477c:	460b      	mov	r3, r1
 800477e:	807b      	strh	r3, [r7, #2]
 8004780:	4613      	mov	r3, r2
 8004782:	707b      	strb	r3, [r7, #1]
  /* Check the parameters */
  assert_param(IS_GPIO_PIN(GPIO_Pin));
  assert_param(IS_GPIO_PIN_ACTION(PinState));

  if(PinState != GPIO_PIN_RESET)
 8004784:	787b      	ldrb	r3, [r7, #1]
 8004786:	2b00      	cmp	r3, #0
 8004788:	d003      	beq.n	8004792 <HAL_GPIO_WritePin+0x1e>
  {
    GPIOx->BSRR = GPIO_Pin;
 800478a:	887a      	ldrh	r2, [r7, #2]
 800478c:	687b      	ldr	r3, [r7, #4]
 800478e:	619a      	str	r2, [r3, #24]
  }
  else
  {
    GPIOx->BSRR = (uint32_t)GPIO_Pin << 16U;
  }
}
 8004790:	e003      	b.n	800479a <HAL_GPIO_WritePin+0x26>
    GPIOx->BSRR = (uint32_t)GPIO_Pin << 16U;
 8004792:	887b      	ldrh	r3, [r7, #2]
 8004794:	041a      	lsls	r2, r3, #16
 8004796:	687b      	ldr	r3, [r7, #4]
 8004798:	619a      	str	r2, [r3, #24]
}
 800479a:	bf00      	nop
 800479c:	370c      	adds	r7, #12
 800479e:	46bd      	mov	sp, r7
 80047a0:	f85d 7b04 	ldr.w	r7, [sp], #4
 80047a4:	4770      	bx	lr

080047a6 <HAL_GPIO_TogglePin>:
  *                      x can be (A..I) to select the GPIO peripheral for STM32F40XX and STM32F427X devices.
  * @param  GPIO_Pin Specifies the pins to be toggled.
  * @retval None
  */
void HAL_GPIO_TogglePin(GPIO_TypeDef* GPIOx, uint16_t GPIO_Pin)
{
 80047a6:	b480      	push	{r7}
 80047a8:	b083      	sub	sp, #12
 80047aa:	af00      	add	r7, sp, #0
 80047ac:	6078      	str	r0, [r7, #4]
 80047ae:	460b      	mov	r3, r1
 80047b0:	807b      	strh	r3, [r7, #2]
  /* Check the parameters */
  assert_param(IS_GPIO_PIN(GPIO_Pin));

  if ((GPIOx->ODR & GPIO_Pin) == GPIO_Pin)
 80047b2:	687b      	ldr	r3, [r7, #4]
 80047b4:	695a      	ldr	r2, [r3, #20]
 80047b6:	887b      	ldrh	r3, [r7, #2]
 80047b8:	401a      	ands	r2, r3
 80047ba:	887b      	ldrh	r3, [r7, #2]
 80047bc:	429a      	cmp	r2, r3
 80047be:	d104      	bne.n	80047ca <HAL_GPIO_TogglePin+0x24>
  {
    GPIOx->BSRR = (uint32_t)GPIO_Pin << GPIO_NUMBER;
 80047c0:	887b      	ldrh	r3, [r7, #2]
 80047c2:	041a      	lsls	r2, r3, #16
 80047c4:	687b      	ldr	r3, [r7, #4]
 80047c6:	619a      	str	r2, [r3, #24]
  }
  else
  {
    GPIOx->BSRR = GPIO_Pin;
  }
}
 80047c8:	e002      	b.n	80047d0 <HAL_GPIO_TogglePin+0x2a>
    GPIOx->BSRR = GPIO_Pin;
 80047ca:	887a      	ldrh	r2, [r7, #2]
 80047cc:	687b      	ldr	r3, [r7, #4]
 80047ce:	619a      	str	r2, [r3, #24]
}
 80047d0:	bf00      	nop
 80047d2:	370c      	adds	r7, #12
 80047d4:	46bd      	mov	sp, r7
 80047d6:	f85d 7b04 	ldr.w	r7, [sp], #4
 80047da:	4770      	bx	lr

080047dc <HAL_GPIO_EXTI_IRQHandler>:
  * @brief  This function handles EXTI interrupt request.
  * @param  GPIO_Pin Specifies the pins connected EXTI line
  * @retval None
  */
void HAL_GPIO_EXTI_IRQHandler(uint16_t GPIO_Pin)
{
 80047dc:	b580      	push	{r7, lr}
 80047de:	b082      	sub	sp, #8
 80047e0:	af00      	add	r7, sp, #0
 80047e2:	4603      	mov	r3, r0
 80047e4:	80fb      	strh	r3, [r7, #6]
  /* EXTI line interrupt detected */
  if(__HAL_GPIO_EXTI_GET_IT(GPIO_Pin) != RESET)
 80047e6:	4b08      	ldr	r3, [pc, #32]	; (8004808 <HAL_GPIO_EXTI_IRQHandler+0x2c>)
 80047e8:	695a      	ldr	r2, [r3, #20]
 80047ea:	88fb      	ldrh	r3, [r7, #6]
 80047ec:	4013      	ands	r3, r2
 80047ee:	2b00      	cmp	r3, #0
 80047f0:	d006      	beq.n	8004800 <HAL_GPIO_EXTI_IRQHandler+0x24>
  {
    __HAL_GPIO_EXTI_CLEAR_IT(GPIO_Pin);
 80047f2:	4a05      	ldr	r2, [pc, #20]	; (8004808 <HAL_GPIO_EXTI_IRQHandler+0x2c>)
 80047f4:	88fb      	ldrh	r3, [r7, #6]
 80047f6:	6153      	str	r3, [r2, #20]
    HAL_GPIO_EXTI_Callback(GPIO_Pin);
 80047f8:	88fb      	ldrh	r3, [r7, #6]
 80047fa:	4618      	mov	r0, r3
 80047fc:	f7fe f826 	bl	800284c <HAL_GPIO_EXTI_Callback>
  }
}
 8004800:	bf00      	nop
 8004802:	3708      	adds	r7, #8
 8004804:	46bd      	mov	sp, r7
 8004806:	bd80      	pop	{r7, pc}
 8004808:	40013c00 	.word	0x40013c00

0800480c <HAL_RCC_OscConfig>:
  *         supported by this API. User should request a transition to HSE Off
  *         first and then HSE On or HSE Bypass.
  * @retval HAL status
  */
__weak HAL_StatusTypeDef HAL_RCC_OscConfig(RCC_OscInitTypeDef  *RCC_OscInitStruct)
{
 800480c:	b580      	push	{r7, lr}
 800480e:	b086      	sub	sp, #24
 8004810:	af00      	add	r7, sp, #0
 8004812:	6078      	str	r0, [r7, #4]
  uint32_t tickstart, pll_config;

  /* Check Null pointer */
  if(RCC_OscInitStruct == NULL)
 8004814:	687b      	ldr	r3, [r7, #4]
 8004816:	2b00      	cmp	r3, #0
 8004818:	d101      	bne.n	800481e <HAL_RCC_OscConfig+0x12>
  {
    return HAL_ERROR;
 800481a:	2301      	movs	r3, #1
 800481c:	e25b      	b.n	8004cd6 <HAL_RCC_OscConfig+0x4ca>
  }

  /* Check the parameters */
  assert_param(IS_RCC_OSCILLATORTYPE(RCC_OscInitStruct->OscillatorType));
  /*------------------------------- HSE Configuration ------------------------*/
  if(((RCC_OscInitStruct->OscillatorType) & RCC_OSCILLATORTYPE_HSE) == RCC_OSCILLATORTYPE_HSE)
 800481e:	687b      	ldr	r3, [r7, #4]
 8004820:	681b      	ldr	r3, [r3, #0]
 8004822:	f003 0301 	and.w	r3, r3, #1
 8004826:	2b00      	cmp	r3, #0
 8004828:	d075      	beq.n	8004916 <HAL_RCC_OscConfig+0x10a>
  {
    /* Check the parameters */
    assert_param(IS_RCC_HSE(RCC_OscInitStruct->HSEState));
    /* When the HSE is used as system clock or clock source for PLL in these cases HSE will not disabled */
    if((__HAL_RCC_GET_SYSCLK_SOURCE() == RCC_CFGR_SWS_HSE) ||\
 800482a:	4ba3      	ldr	r3, [pc, #652]	; (8004ab8 <HAL_RCC_OscConfig+0x2ac>)
 800482c:	689b      	ldr	r3, [r3, #8]
 800482e:	f003 030c 	and.w	r3, r3, #12
 8004832:	2b04      	cmp	r3, #4
 8004834:	d00c      	beq.n	8004850 <HAL_RCC_OscConfig+0x44>
      ((__HAL_RCC_GET_SYSCLK_SOURCE() == RCC_CFGR_SWS_PLL) && ((RCC->PLLCFGR & RCC_PLLCFGR_PLLSRC) == RCC_PLLCFGR_PLLSRC_HSE)))
 8004836:	4ba0      	ldr	r3, [pc, #640]	; (8004ab8 <HAL_RCC_OscConfig+0x2ac>)
 8004838:	689b      	ldr	r3, [r3, #8]
 800483a:	f003 030c 	and.w	r3, r3, #12
    if((__HAL_RCC_GET_SYSCLK_SOURCE() == RCC_CFGR_SWS_HSE) ||\
 800483e:	2b08      	cmp	r3, #8
 8004840:	d112      	bne.n	8004868 <HAL_RCC_OscConfig+0x5c>
      ((__HAL_RCC_GET_SYSCLK_SOURCE() == RCC_CFGR_SWS_PLL) && ((RCC->PLLCFGR & RCC_PLLCFGR_PLLSRC) == RCC_PLLCFGR_PLLSRC_HSE)))
 8004842:	4b9d      	ldr	r3, [pc, #628]	; (8004ab8 <HAL_RCC_OscConfig+0x2ac>)
 8004844:	685b      	ldr	r3, [r3, #4]
 8004846:	f403 0380 	and.w	r3, r3, #4194304	; 0x400000
 800484a:	f5b3 0f80 	cmp.w	r3, #4194304	; 0x400000
 800484e:	d10b      	bne.n	8004868 <HAL_RCC_OscConfig+0x5c>
    {
      if((__HAL_RCC_GET_FLAG(RCC_FLAG_HSERDY) != RESET) && (RCC_OscInitStruct->HSEState == RCC_HSE_OFF))
 8004850:	4b99      	ldr	r3, [pc, #612]	; (8004ab8 <HAL_RCC_OscConfig+0x2ac>)
 8004852:	681b      	ldr	r3, [r3, #0]
 8004854:	f403 3300 	and.w	r3, r3, #131072	; 0x20000
 8004858:	2b00      	cmp	r3, #0
 800485a:	d05b      	beq.n	8004914 <HAL_RCC_OscConfig+0x108>
 800485c:	687b      	ldr	r3, [r7, #4]
 800485e:	685b      	ldr	r3, [r3, #4]
 8004860:	2b00      	cmp	r3, #0
 8004862:	d157      	bne.n	8004914 <HAL_RCC_OscConfig+0x108>
      {
        return HAL_ERROR;
 8004864:	2301      	movs	r3, #1
 8004866:	e236      	b.n	8004cd6 <HAL_RCC_OscConfig+0x4ca>
      }
    }
    else
    {
      /* Set the new HSE configuration ---------------------------------------*/
      __HAL_RCC_HSE_CONFIG(RCC_OscInitStruct->HSEState);
 8004868:	687b      	ldr	r3, [r7, #4]
 800486a:	685b      	ldr	r3, [r3, #4]
 800486c:	f5b3 3f80 	cmp.w	r3, #65536	; 0x10000
 8004870:	d106      	bne.n	8004880 <HAL_RCC_OscConfig+0x74>
 8004872:	4b91      	ldr	r3, [pc, #580]	; (8004ab8 <HAL_RCC_OscConfig+0x2ac>)
 8004874:	681b      	ldr	r3, [r3, #0]
 8004876:	4a90      	ldr	r2, [pc, #576]	; (8004ab8 <HAL_RCC_OscConfig+0x2ac>)
 8004878:	f443 3380 	orr.w	r3, r3, #65536	; 0x10000
 800487c:	6013      	str	r3, [r2, #0]
 800487e:	e01d      	b.n	80048bc <HAL_RCC_OscConfig+0xb0>
 8004880:	687b      	ldr	r3, [r7, #4]
 8004882:	685b      	ldr	r3, [r3, #4]
 8004884:	f5b3 2fa0 	cmp.w	r3, #327680	; 0x50000
 8004888:	d10c      	bne.n	80048a4 <HAL_RCC_OscConfig+0x98>
 800488a:	4b8b      	ldr	r3, [pc, #556]	; (8004ab8 <HAL_RCC_OscConfig+0x2ac>)
 800488c:	681b      	ldr	r3, [r3, #0]
 800488e:	4a8a      	ldr	r2, [pc, #552]	; (8004ab8 <HAL_RCC_OscConfig+0x2ac>)
 8004890:	f443 2380 	orr.w	r3, r3, #262144	; 0x40000
 8004894:	6013      	str	r3, [r2, #0]
 8004896:	4b88      	ldr	r3, [pc, #544]	; (8004ab8 <HAL_RCC_OscConfig+0x2ac>)
 8004898:	681b      	ldr	r3, [r3, #0]
 800489a:	4a87      	ldr	r2, [pc, #540]	; (8004ab8 <HAL_RCC_OscConfig+0x2ac>)
 800489c:	f443 3380 	orr.w	r3, r3, #65536	; 0x10000
 80048a0:	6013      	str	r3, [r2, #0]
 80048a2:	e00b      	b.n	80048bc <HAL_RCC_OscConfig+0xb0>
 80048a4:	4b84      	ldr	r3, [pc, #528]	; (8004ab8 <HAL_RCC_OscConfig+0x2ac>)
 80048a6:	681b      	ldr	r3, [r3, #0]
 80048a8:	4a83      	ldr	r2, [pc, #524]	; (8004ab8 <HAL_RCC_OscConfig+0x2ac>)
 80048aa:	f423 3380 	bic.w	r3, r3, #65536	; 0x10000
 80048ae:	6013      	str	r3, [r2, #0]
 80048b0:	4b81      	ldr	r3, [pc, #516]	; (8004ab8 <HAL_RCC_OscConfig+0x2ac>)
 80048b2:	681b      	ldr	r3, [r3, #0]
 80048b4:	4a80      	ldr	r2, [pc, #512]	; (8004ab8 <HAL_RCC_OscConfig+0x2ac>)
 80048b6:	f423 2380 	bic.w	r3, r3, #262144	; 0x40000
 80048ba:	6013      	str	r3, [r2, #0]

      /* Check the HSE State */
      if((RCC_OscInitStruct->HSEState) != RCC_HSE_OFF)
 80048bc:	687b      	ldr	r3, [r7, #4]
 80048be:	685b      	ldr	r3, [r3, #4]
 80048c0:	2b00      	cmp	r3, #0
 80048c2:	d013      	beq.n	80048ec <HAL_RCC_OscConfig+0xe0>
      {
        /* Get Start Tick */
        tickstart = HAL_GetTick();
 80048c4:	f7fe fe40 	bl	8003548 <HAL_GetTick>
 80048c8:	6138      	str	r0, [r7, #16]

        /* Wait till HSE is ready */
        while(__HAL_RCC_GET_FLAG(RCC_FLAG_HSERDY) == RESET)
 80048ca:	e008      	b.n	80048de <HAL_RCC_OscConfig+0xd2>
        {
          if((HAL_GetTick() - tickstart ) > HSE_TIMEOUT_VALUE)
 80048cc:	f7fe fe3c 	bl	8003548 <HAL_GetTick>
 80048d0:	4602      	mov	r2, r0
 80048d2:	693b      	ldr	r3, [r7, #16]
 80048d4:	1ad3      	subs	r3, r2, r3
 80048d6:	2b64      	cmp	r3, #100	; 0x64
 80048d8:	d901      	bls.n	80048de <HAL_RCC_OscConfig+0xd2>
          {
            return HAL_TIMEOUT;
 80048da:	2303      	movs	r3, #3
 80048dc:	e1fb      	b.n	8004cd6 <HAL_RCC_OscConfig+0x4ca>
        while(__HAL_RCC_GET_FLAG(RCC_FLAG_HSERDY) == RESET)
 80048de:	4b76      	ldr	r3, [pc, #472]	; (8004ab8 <HAL_RCC_OscConfig+0x2ac>)
 80048e0:	681b      	ldr	r3, [r3, #0]
 80048e2:	f403 3300 	and.w	r3, r3, #131072	; 0x20000
 80048e6:	2b00      	cmp	r3, #0
 80048e8:	d0f0      	beq.n	80048cc <HAL_RCC_OscConfig+0xc0>
 80048ea:	e014      	b.n	8004916 <HAL_RCC_OscConfig+0x10a>
        }
      }
      else
      {
        /* Get Start Tick */
        tickstart = HAL_GetTick();
 80048ec:	f7fe fe2c 	bl	8003548 <HAL_GetTick>
 80048f0:	6138      	str	r0, [r7, #16]

        /* Wait till HSE is bypassed or disabled */
        while(__HAL_RCC_GET_FLAG(RCC_FLAG_HSERDY) != RESET)
 80048f2:	e008      	b.n	8004906 <HAL_RCC_OscConfig+0xfa>
        {
          if((HAL_GetTick() - tickstart ) > HSE_TIMEOUT_VALUE)
 80048f4:	f7fe fe28 	bl	8003548 <HAL_GetTick>
 80048f8:	4602      	mov	r2, r0
 80048fa:	693b      	ldr	r3, [r7, #16]
 80048fc:	1ad3      	subs	r3, r2, r3
 80048fe:	2b64      	cmp	r3, #100	; 0x64
 8004900:	d901      	bls.n	8004906 <HAL_RCC_OscConfig+0xfa>
          {
            return HAL_TIMEOUT;
 8004902:	2303      	movs	r3, #3
 8004904:	e1e7      	b.n	8004cd6 <HAL_RCC_OscConfig+0x4ca>
        while(__HAL_RCC_GET_FLAG(RCC_FLAG_HSERDY) != RESET)
 8004906:	4b6c      	ldr	r3, [pc, #432]	; (8004ab8 <HAL_RCC_OscConfig+0x2ac>)
 8004908:	681b      	ldr	r3, [r3, #0]
 800490a:	f403 3300 	and.w	r3, r3, #131072	; 0x20000
 800490e:	2b00      	cmp	r3, #0
 8004910:	d1f0      	bne.n	80048f4 <HAL_RCC_OscConfig+0xe8>
 8004912:	e000      	b.n	8004916 <HAL_RCC_OscConfig+0x10a>
      if((__HAL_RCC_GET_FLAG(RCC_FLAG_HSERDY) != RESET) && (RCC_OscInitStruct->HSEState == RCC_HSE_OFF))
 8004914:	bf00      	nop
        }
      }
    }
  }
  /*----------------------------- HSI Configuration --------------------------*/
  if(((RCC_OscInitStruct->OscillatorType) & RCC_OSCILLATORTYPE_HSI) == RCC_OSCILLATORTYPE_HSI)
 8004916:	687b      	ldr	r3, [r7, #4]
 8004918:	681b      	ldr	r3, [r3, #0]
 800491a:	f003 0302 	and.w	r3, r3, #2
 800491e:	2b00      	cmp	r3, #0
 8004920:	d063      	beq.n	80049ea <HAL_RCC_OscConfig+0x1de>
    /* Check the parameters */
    assert_param(IS_RCC_HSI(RCC_OscInitStruct->HSIState));
    assert_param(IS_RCC_CALIBRATION_VALUE(RCC_OscInitStruct->HSICalibrationValue));

    /* Check if HSI is used as system clock or as PLL source when PLL is selected as system clock */
    if((__HAL_RCC_GET_SYSCLK_SOURCE() == RCC_CFGR_SWS_HSI) ||\
 8004922:	4b65      	ldr	r3, [pc, #404]	; (8004ab8 <HAL_RCC_OscConfig+0x2ac>)
 8004924:	689b      	ldr	r3, [r3, #8]
 8004926:	f003 030c 	and.w	r3, r3, #12
 800492a:	2b00      	cmp	r3, #0
 800492c:	d00b      	beq.n	8004946 <HAL_RCC_OscConfig+0x13a>
      ((__HAL_RCC_GET_SYSCLK_SOURCE() == RCC_CFGR_SWS_PLL) && ((RCC->PLLCFGR & RCC_PLLCFGR_PLLSRC) == RCC_PLLCFGR_PLLSRC_HSI)))
 800492e:	4b62      	ldr	r3, [pc, #392]	; (8004ab8 <HAL_RCC_OscConfig+0x2ac>)
 8004930:	689b      	ldr	r3, [r3, #8]
 8004932:	f003 030c 	and.w	r3, r3, #12
    if((__HAL_RCC_GET_SYSCLK_SOURCE() == RCC_CFGR_SWS_HSI) ||\
 8004936:	2b08      	cmp	r3, #8
 8004938:	d11c      	bne.n	8004974 <HAL_RCC_OscConfig+0x168>
      ((__HAL_RCC_GET_SYSCLK_SOURCE() == RCC_CFGR_SWS_PLL) && ((RCC->PLLCFGR & RCC_PLLCFGR_PLLSRC) == RCC_PLLCFGR_PLLSRC_HSI)))
 800493a:	4b5f      	ldr	r3, [pc, #380]	; (8004ab8 <HAL_RCC_OscConfig+0x2ac>)
 800493c:	685b      	ldr	r3, [r3, #4]
 800493e:	f403 0380 	and.w	r3, r3, #4194304	; 0x400000
 8004942:	2b00      	cmp	r3, #0
 8004944:	d116      	bne.n	8004974 <HAL_RCC_OscConfig+0x168>
    {
      /* When HSI is used as system clock it will not disabled */
      if((__HAL_RCC_GET_FLAG(RCC_FLAG_HSIRDY) != RESET) && (RCC_OscInitStruct->HSIState != RCC_HSI_ON))
 8004946:	4b5c      	ldr	r3, [pc, #368]	; (8004ab8 <HAL_RCC_OscConfig+0x2ac>)
 8004948:	681b      	ldr	r3, [r3, #0]
 800494a:	f003 0302 	and.w	r3, r3, #2
 800494e:	2b00      	cmp	r3, #0
 8004950:	d005      	beq.n	800495e <HAL_RCC_OscConfig+0x152>
 8004952:	687b      	ldr	r3, [r7, #4]
 8004954:	68db      	ldr	r3, [r3, #12]
 8004956:	2b01      	cmp	r3, #1
 8004958:	d001      	beq.n	800495e <HAL_RCC_OscConfig+0x152>
      {
        return HAL_ERROR;
 800495a:	2301      	movs	r3, #1
 800495c:	e1bb      	b.n	8004cd6 <HAL_RCC_OscConfig+0x4ca>
      }
      /* Otherwise, just the calibration is allowed */
      else
      {
        /* Adjusts the Internal High Speed oscillator (HSI) calibration value.*/
        __HAL_RCC_HSI_CALIBRATIONVALUE_ADJUST(RCC_OscInitStruct->HSICalibrationValue);
 800495e:	4b56      	ldr	r3, [pc, #344]	; (8004ab8 <HAL_RCC_OscConfig+0x2ac>)
 8004960:	681b      	ldr	r3, [r3, #0]
 8004962:	f023 02f8 	bic.w	r2, r3, #248	; 0xf8
 8004966:	687b      	ldr	r3, [r7, #4]
 8004968:	691b      	ldr	r3, [r3, #16]
 800496a:	00db      	lsls	r3, r3, #3
 800496c:	4952      	ldr	r1, [pc, #328]	; (8004ab8 <HAL_RCC_OscConfig+0x2ac>)
 800496e:	4313      	orrs	r3, r2
 8004970:	600b      	str	r3, [r1, #0]
      if((__HAL_RCC_GET_FLAG(RCC_FLAG_HSIRDY) != RESET) && (RCC_OscInitStruct->HSIState != RCC_HSI_ON))
 8004972:	e03a      	b.n	80049ea <HAL_RCC_OscConfig+0x1de>
      }
    }
    else
    {
      /* Check the HSI State */
      if((RCC_OscInitStruct->HSIState)!= RCC_HSI_OFF)
 8004974:	687b      	ldr	r3, [r7, #4]
 8004976:	68db      	ldr	r3, [r3, #12]
 8004978:	2b00      	cmp	r3, #0
 800497a:	d020      	beq.n	80049be <HAL_RCC_OscConfig+0x1b2>
      {
        /* Enable the Internal High Speed oscillator (HSI). */
        __HAL_RCC_HSI_ENABLE();
 800497c:	4b4f      	ldr	r3, [pc, #316]	; (8004abc <HAL_RCC_OscConfig+0x2b0>)
 800497e:	2201      	movs	r2, #1
 8004980:	601a      	str	r2, [r3, #0]

        /* Get Start Tick*/
        tickstart = HAL_GetTick();
 8004982:	f7fe fde1 	bl	8003548 <HAL_GetTick>
 8004986:	6138      	str	r0, [r7, #16]

        /* Wait till HSI is ready */
        while(__HAL_RCC_GET_FLAG(RCC_FLAG_HSIRDY) == RESET)
 8004988:	e008      	b.n	800499c <HAL_RCC_OscConfig+0x190>
        {
          if((HAL_GetTick() - tickstart ) > HSI_TIMEOUT_VALUE)
 800498a:	f7fe fddd 	bl	8003548 <HAL_GetTick>
 800498e:	4602      	mov	r2, r0
 8004990:	693b      	ldr	r3, [r7, #16]
 8004992:	1ad3      	subs	r3, r2, r3
 8004994:	2b02      	cmp	r3, #2
 8004996:	d901      	bls.n	800499c <HAL_RCC_OscConfig+0x190>
          {
            return HAL_TIMEOUT;
 8004998:	2303      	movs	r3, #3
 800499a:	e19c      	b.n	8004cd6 <HAL_RCC_OscConfig+0x4ca>
        while(__HAL_RCC_GET_FLAG(RCC_FLAG_HSIRDY) == RESET)
 800499c:	4b46      	ldr	r3, [pc, #280]	; (8004ab8 <HAL_RCC_OscConfig+0x2ac>)
 800499e:	681b      	ldr	r3, [r3, #0]
 80049a0:	f003 0302 	and.w	r3, r3, #2
 80049a4:	2b00      	cmp	r3, #0
 80049a6:	d0f0      	beq.n	800498a <HAL_RCC_OscConfig+0x17e>
          }
        }

        /* Adjusts the Internal High Speed oscillator (HSI) calibration value. */
        __HAL_RCC_HSI_CALIBRATIONVALUE_ADJUST(RCC_OscInitStruct->HSICalibrationValue);
 80049a8:	4b43      	ldr	r3, [pc, #268]	; (8004ab8 <HAL_RCC_OscConfig+0x2ac>)
 80049aa:	681b      	ldr	r3, [r3, #0]
 80049ac:	f023 02f8 	bic.w	r2, r3, #248	; 0xf8
 80049b0:	687b      	ldr	r3, [r7, #4]
 80049b2:	691b      	ldr	r3, [r3, #16]
 80049b4:	00db      	lsls	r3, r3, #3
 80049b6:	4940      	ldr	r1, [pc, #256]	; (8004ab8 <HAL_RCC_OscConfig+0x2ac>)
 80049b8:	4313      	orrs	r3, r2
 80049ba:	600b      	str	r3, [r1, #0]
 80049bc:	e015      	b.n	80049ea <HAL_RCC_OscConfig+0x1de>
      }
      else
      {
        /* Disable the Internal High Speed oscillator (HSI). */
        __HAL_RCC_HSI_DISABLE();
 80049be:	4b3f      	ldr	r3, [pc, #252]	; (8004abc <HAL_RCC_OscConfig+0x2b0>)
 80049c0:	2200      	movs	r2, #0
 80049c2:	601a      	str	r2, [r3, #0]

        /* Get Start Tick*/
        tickstart = HAL_GetTick();
 80049c4:	f7fe fdc0 	bl	8003548 <HAL_GetTick>
 80049c8:	6138      	str	r0, [r7, #16]

        /* Wait till HSI is ready */
        while(__HAL_RCC_GET_FLAG(RCC_FLAG_HSIRDY) != RESET)
 80049ca:	e008      	b.n	80049de <HAL_RCC_OscConfig+0x1d2>
        {
          if((HAL_GetTick() - tickstart ) > HSI_TIMEOUT_VALUE)
 80049cc:	f7fe fdbc 	bl	8003548 <HAL_GetTick>
 80049d0:	4602      	mov	r2, r0
 80049d2:	693b      	ldr	r3, [r7, #16]
 80049d4:	1ad3      	subs	r3, r2, r3
 80049d6:	2b02      	cmp	r3, #2
 80049d8:	d901      	bls.n	80049de <HAL_RCC_OscConfig+0x1d2>
          {
            return HAL_TIMEOUT;
 80049da:	2303      	movs	r3, #3
 80049dc:	e17b      	b.n	8004cd6 <HAL_RCC_OscConfig+0x4ca>
        while(__HAL_RCC_GET_FLAG(RCC_FLAG_HSIRDY) != RESET)
 80049de:	4b36      	ldr	r3, [pc, #216]	; (8004ab8 <HAL_RCC_OscConfig+0x2ac>)
 80049e0:	681b      	ldr	r3, [r3, #0]
 80049e2:	f003 0302 	and.w	r3, r3, #2
 80049e6:	2b00      	cmp	r3, #0
 80049e8:	d1f0      	bne.n	80049cc <HAL_RCC_OscConfig+0x1c0>
        }
      }
    }
  }
  /*------------------------------ LSI Configuration -------------------------*/
  if(((RCC_OscInitStruct->OscillatorType) & RCC_OSCILLATORTYPE_LSI) == RCC_OSCILLATORTYPE_LSI)
 80049ea:	687b      	ldr	r3, [r7, #4]
 80049ec:	681b      	ldr	r3, [r3, #0]
 80049ee:	f003 0308 	and.w	r3, r3, #8
 80049f2:	2b00      	cmp	r3, #0
 80049f4:	d030      	beq.n	8004a58 <HAL_RCC_OscConfig+0x24c>
  {
    /* Check the parameters */
    assert_param(IS_RCC_LSI(RCC_OscInitStruct->LSIState));

    /* Check the LSI State */
    if((RCC_OscInitStruct->LSIState)!= RCC_LSI_OFF)
 80049f6:	687b      	ldr	r3, [r7, #4]
 80049f8:	695b      	ldr	r3, [r3, #20]
 80049fa:	2b00      	cmp	r3, #0
 80049fc:	d016      	beq.n	8004a2c <HAL_RCC_OscConfig+0x220>
    {
      /* Enable the Internal Low Speed oscillator (LSI). */
      __HAL_RCC_LSI_ENABLE();
 80049fe:	4b30      	ldr	r3, [pc, #192]	; (8004ac0 <HAL_RCC_OscConfig+0x2b4>)
 8004a00:	2201      	movs	r2, #1
 8004a02:	601a      	str	r2, [r3, #0]

      /* Get Start Tick*/
      tickstart = HAL_GetTick();
 8004a04:	f7fe fda0 	bl	8003548 <HAL_GetTick>
 8004a08:	6138      	str	r0, [r7, #16]

      /* Wait till LSI is ready */
      while(__HAL_RCC_GET_FLAG(RCC_FLAG_LSIRDY) == RESET)
 8004a0a:	e008      	b.n	8004a1e <HAL_RCC_OscConfig+0x212>
      {
        if((HAL_GetTick() - tickstart ) > LSI_TIMEOUT_VALUE)
 8004a0c:	f7fe fd9c 	bl	8003548 <HAL_GetTick>
 8004a10:	4602      	mov	r2, r0
 8004a12:	693b      	ldr	r3, [r7, #16]
 8004a14:	1ad3      	subs	r3, r2, r3
 8004a16:	2b02      	cmp	r3, #2
 8004a18:	d901      	bls.n	8004a1e <HAL_RCC_OscConfig+0x212>
        {
          return HAL_TIMEOUT;
 8004a1a:	2303      	movs	r3, #3
 8004a1c:	e15b      	b.n	8004cd6 <HAL_RCC_OscConfig+0x4ca>
      while(__HAL_RCC_GET_FLAG(RCC_FLAG_LSIRDY) == RESET)
 8004a1e:	4b26      	ldr	r3, [pc, #152]	; (8004ab8 <HAL_RCC_OscConfig+0x2ac>)
 8004a20:	6f5b      	ldr	r3, [r3, #116]	; 0x74
 8004a22:	f003 0302 	and.w	r3, r3, #2
 8004a26:	2b00      	cmp	r3, #0
 8004a28:	d0f0      	beq.n	8004a0c <HAL_RCC_OscConfig+0x200>
 8004a2a:	e015      	b.n	8004a58 <HAL_RCC_OscConfig+0x24c>
      }
    }
    else
    {
      /* Disable the Internal Low Speed oscillator (LSI). */
      __HAL_RCC_LSI_DISABLE();
 8004a2c:	4b24      	ldr	r3, [pc, #144]	; (8004ac0 <HAL_RCC_OscConfig+0x2b4>)
 8004a2e:	2200      	movs	r2, #0
 8004a30:	601a      	str	r2, [r3, #0]

      /* Get Start Tick */
      tickstart = HAL_GetTick();
 8004a32:	f7fe fd89 	bl	8003548 <HAL_GetTick>
 8004a36:	6138      	str	r0, [r7, #16]

      /* Wait till LSI is ready */
      while(__HAL_RCC_GET_FLAG(RCC_FLAG_LSIRDY) != RESET)
 8004a38:	e008      	b.n	8004a4c <HAL_RCC_OscConfig+0x240>
      {
        if((HAL_GetTick() - tickstart ) > LSI_TIMEOUT_VALUE)
 8004a3a:	f7fe fd85 	bl	8003548 <HAL_GetTick>
 8004a3e:	4602      	mov	r2, r0
 8004a40:	693b      	ldr	r3, [r7, #16]
 8004a42:	1ad3      	subs	r3, r2, r3
 8004a44:	2b02      	cmp	r3, #2
 8004a46:	d901      	bls.n	8004a4c <HAL_RCC_OscConfig+0x240>
        {
          return HAL_TIMEOUT;
 8004a48:	2303      	movs	r3, #3
 8004a4a:	e144      	b.n	8004cd6 <HAL_RCC_OscConfig+0x4ca>
      while(__HAL_RCC_GET_FLAG(RCC_FLAG_LSIRDY) != RESET)
 8004a4c:	4b1a      	ldr	r3, [pc, #104]	; (8004ab8 <HAL_RCC_OscConfig+0x2ac>)
 8004a4e:	6f5b      	ldr	r3, [r3, #116]	; 0x74
 8004a50:	f003 0302 	and.w	r3, r3, #2
 8004a54:	2b00      	cmp	r3, #0
 8004a56:	d1f0      	bne.n	8004a3a <HAL_RCC_OscConfig+0x22e>
        }
      }
    }
  }
  /*------------------------------ LSE Configuration -------------------------*/
  if(((RCC_OscInitStruct->OscillatorType) & RCC_OSCILLATORTYPE_LSE) == RCC_OSCILLATORTYPE_LSE)
 8004a58:	687b      	ldr	r3, [r7, #4]
 8004a5a:	681b      	ldr	r3, [r3, #0]
 8004a5c:	f003 0304 	and.w	r3, r3, #4
 8004a60:	2b00      	cmp	r3, #0
 8004a62:	f000 80a0 	beq.w	8004ba6 <HAL_RCC_OscConfig+0x39a>
  {
    FlagStatus       pwrclkchanged = RESET;
 8004a66:	2300      	movs	r3, #0
 8004a68:	75fb      	strb	r3, [r7, #23]
    /* Check the parameters */
    assert_param(IS_RCC_LSE(RCC_OscInitStruct->LSEState));

    /* Update LSE configuration in Backup Domain control register    */
    /* Requires to enable write access to Backup Domain of necessary */
    if(__HAL_RCC_PWR_IS_CLK_DISABLED())
 8004a6a:	4b13      	ldr	r3, [pc, #76]	; (8004ab8 <HAL_RCC_OscConfig+0x2ac>)
 8004a6c:	6c1b      	ldr	r3, [r3, #64]	; 0x40
 8004a6e:	f003 5380 	and.w	r3, r3, #268435456	; 0x10000000
 8004a72:	2b00      	cmp	r3, #0
 8004a74:	d10f      	bne.n	8004a96 <HAL_RCC_OscConfig+0x28a>
    {
      __HAL_RCC_PWR_CLK_ENABLE();
 8004a76:	2300      	movs	r3, #0
 8004a78:	60bb      	str	r3, [r7, #8]
 8004a7a:	4b0f      	ldr	r3, [pc, #60]	; (8004ab8 <HAL_RCC_OscConfig+0x2ac>)
 8004a7c:	6c1b      	ldr	r3, [r3, #64]	; 0x40
 8004a7e:	4a0e      	ldr	r2, [pc, #56]	; (8004ab8 <HAL_RCC_OscConfig+0x2ac>)
 8004a80:	f043 5380 	orr.w	r3, r3, #268435456	; 0x10000000
 8004a84:	6413      	str	r3, [r2, #64]	; 0x40
 8004a86:	4b0c      	ldr	r3, [pc, #48]	; (8004ab8 <HAL_RCC_OscConfig+0x2ac>)
 8004a88:	6c1b      	ldr	r3, [r3, #64]	; 0x40
 8004a8a:	f003 5380 	and.w	r3, r3, #268435456	; 0x10000000
 8004a8e:	60bb      	str	r3, [r7, #8]
 8004a90:	68bb      	ldr	r3, [r7, #8]
      pwrclkchanged = SET;
 8004a92:	2301      	movs	r3, #1
 8004a94:	75fb      	strb	r3, [r7, #23]
    }

    if(HAL_IS_BIT_CLR(PWR->CR, PWR_CR_DBP))
 8004a96:	4b0b      	ldr	r3, [pc, #44]	; (8004ac4 <HAL_RCC_OscConfig+0x2b8>)
 8004a98:	681b      	ldr	r3, [r3, #0]
 8004a9a:	f403 7380 	and.w	r3, r3, #256	; 0x100
 8004a9e:	2b00      	cmp	r3, #0
 8004aa0:	d121      	bne.n	8004ae6 <HAL_RCC_OscConfig+0x2da>
    {
      /* Enable write access to Backup domain */
      SET_BIT(PWR->CR, PWR_CR_DBP);
 8004aa2:	4b08      	ldr	r3, [pc, #32]	; (8004ac4 <HAL_RCC_OscConfig+0x2b8>)
 8004aa4:	681b      	ldr	r3, [r3, #0]
 8004aa6:	4a07      	ldr	r2, [pc, #28]	; (8004ac4 <HAL_RCC_OscConfig+0x2b8>)
 8004aa8:	f443 7380 	orr.w	r3, r3, #256	; 0x100
 8004aac:	6013      	str	r3, [r2, #0]

      /* Wait for Backup domain Write protection disable */
      tickstart = HAL_GetTick();
 8004aae:	f7fe fd4b 	bl	8003548 <HAL_GetTick>
 8004ab2:	6138      	str	r0, [r7, #16]

      while(HAL_IS_BIT_CLR(PWR->CR, PWR_CR_DBP))
 8004ab4:	e011      	b.n	8004ada <HAL_RCC_OscConfig+0x2ce>
 8004ab6:	bf00      	nop
 8004ab8:	40023800 	.word	0x40023800
 8004abc:	42470000 	.word	0x42470000
 8004ac0:	42470e80 	.word	0x42470e80
 8004ac4:	40007000 	.word	0x40007000
      {
        if((HAL_GetTick() - tickstart) > RCC_DBP_TIMEOUT_VALUE)
 8004ac8:	f7fe fd3e 	bl	8003548 <HAL_GetTick>
 8004acc:	4602      	mov	r2, r0
 8004ace:	693b      	ldr	r3, [r7, #16]
 8004ad0:	1ad3      	subs	r3, r2, r3
 8004ad2:	2b02      	cmp	r3, #2
 8004ad4:	d901      	bls.n	8004ada <HAL_RCC_OscConfig+0x2ce>
        {
          return HAL_TIMEOUT;
 8004ad6:	2303      	movs	r3, #3
 8004ad8:	e0fd      	b.n	8004cd6 <HAL_RCC_OscConfig+0x4ca>
      while(HAL_IS_BIT_CLR(PWR->CR, PWR_CR_DBP))
 8004ada:	4b81      	ldr	r3, [pc, #516]	; (8004ce0 <HAL_RCC_OscConfig+0x4d4>)
 8004adc:	681b      	ldr	r3, [r3, #0]
 8004ade:	f403 7380 	and.w	r3, r3, #256	; 0x100
 8004ae2:	2b00      	cmp	r3, #0
 8004ae4:	d0f0      	beq.n	8004ac8 <HAL_RCC_OscConfig+0x2bc>
        }
      }
    }

    /* Set the new LSE configuration -----------------------------------------*/
    __HAL_RCC_LSE_CONFIG(RCC_OscInitStruct->LSEState);
 8004ae6:	687b      	ldr	r3, [r7, #4]
 8004ae8:	689b      	ldr	r3, [r3, #8]
 8004aea:	2b01      	cmp	r3, #1
 8004aec:	d106      	bne.n	8004afc <HAL_RCC_OscConfig+0x2f0>
 8004aee:	4b7d      	ldr	r3, [pc, #500]	; (8004ce4 <HAL_RCC_OscConfig+0x4d8>)
 8004af0:	6f1b      	ldr	r3, [r3, #112]	; 0x70
 8004af2:	4a7c      	ldr	r2, [pc, #496]	; (8004ce4 <HAL_RCC_OscConfig+0x4d8>)
 8004af4:	f043 0301 	orr.w	r3, r3, #1
 8004af8:	6713      	str	r3, [r2, #112]	; 0x70
 8004afa:	e01c      	b.n	8004b36 <HAL_RCC_OscConfig+0x32a>
 8004afc:	687b      	ldr	r3, [r7, #4]
 8004afe:	689b      	ldr	r3, [r3, #8]
 8004b00:	2b05      	cmp	r3, #5
 8004b02:	d10c      	bne.n	8004b1e <HAL_RCC_OscConfig+0x312>
 8004b04:	4b77      	ldr	r3, [pc, #476]	; (8004ce4 <HAL_RCC_OscConfig+0x4d8>)
 8004b06:	6f1b      	ldr	r3, [r3, #112]	; 0x70
 8004b08:	4a76      	ldr	r2, [pc, #472]	; (8004ce4 <HAL_RCC_OscConfig+0x4d8>)
 8004b0a:	f043 0304 	orr.w	r3, r3, #4
 8004b0e:	6713      	str	r3, [r2, #112]	; 0x70
 8004b10:	4b74      	ldr	r3, [pc, #464]	; (8004ce4 <HAL_RCC_OscConfig+0x4d8>)
 8004b12:	6f1b      	ldr	r3, [r3, #112]	; 0x70
 8004b14:	4a73      	ldr	r2, [pc, #460]	; (8004ce4 <HAL_RCC_OscConfig+0x4d8>)
 8004b16:	f043 0301 	orr.w	r3, r3, #1
 8004b1a:	6713      	str	r3, [r2, #112]	; 0x70
 8004b1c:	e00b      	b.n	8004b36 <HAL_RCC_OscConfig+0x32a>
 8004b1e:	4b71      	ldr	r3, [pc, #452]	; (8004ce4 <HAL_RCC_OscConfig+0x4d8>)
 8004b20:	6f1b      	ldr	r3, [r3, #112]	; 0x70
 8004b22:	4a70      	ldr	r2, [pc, #448]	; (8004ce4 <HAL_RCC_OscConfig+0x4d8>)
 8004b24:	f023 0301 	bic.w	r3, r3, #1
 8004b28:	6713      	str	r3, [r2, #112]	; 0x70
 8004b2a:	4b6e      	ldr	r3, [pc, #440]	; (8004ce4 <HAL_RCC_OscConfig+0x4d8>)
 8004b2c:	6f1b      	ldr	r3, [r3, #112]	; 0x70
 8004b2e:	4a6d      	ldr	r2, [pc, #436]	; (8004ce4 <HAL_RCC_OscConfig+0x4d8>)
 8004b30:	f023 0304 	bic.w	r3, r3, #4
 8004b34:	6713      	str	r3, [r2, #112]	; 0x70
    /* Check the LSE State */
    if((RCC_OscInitStruct->LSEState) != RCC_LSE_OFF)
 8004b36:	687b      	ldr	r3, [r7, #4]
 8004b38:	689b      	ldr	r3, [r3, #8]
 8004b3a:	2b00      	cmp	r3, #0
 8004b3c:	d015      	beq.n	8004b6a <HAL_RCC_OscConfig+0x35e>
    {
      /* Get Start Tick*/
      tickstart = HAL_GetTick();
 8004b3e:	f7fe fd03 	bl	8003548 <HAL_GetTick>
 8004b42:	6138      	str	r0, [r7, #16]

      /* Wait till LSE is ready */
      while(__HAL_RCC_GET_FLAG(RCC_FLAG_LSERDY) == RESET)
 8004b44:	e00a      	b.n	8004b5c <HAL_RCC_OscConfig+0x350>
      {
        if((HAL_GetTick() - tickstart ) > RCC_LSE_TIMEOUT_VALUE)
 8004b46:	f7fe fcff 	bl	8003548 <HAL_GetTick>
 8004b4a:	4602      	mov	r2, r0
 8004b4c:	693b      	ldr	r3, [r7, #16]
 8004b4e:	1ad3      	subs	r3, r2, r3
 8004b50:	f241 3288 	movw	r2, #5000	; 0x1388
 8004b54:	4293      	cmp	r3, r2
 8004b56:	d901      	bls.n	8004b5c <HAL_RCC_OscConfig+0x350>
        {
          return HAL_TIMEOUT;
 8004b58:	2303      	movs	r3, #3
 8004b5a:	e0bc      	b.n	8004cd6 <HAL_RCC_OscConfig+0x4ca>
      while(__HAL_RCC_GET_FLAG(RCC_FLAG_LSERDY) == RESET)
 8004b5c:	4b61      	ldr	r3, [pc, #388]	; (8004ce4 <HAL_RCC_OscConfig+0x4d8>)
 8004b5e:	6f1b      	ldr	r3, [r3, #112]	; 0x70
 8004b60:	f003 0302 	and.w	r3, r3, #2
 8004b64:	2b00      	cmp	r3, #0
 8004b66:	d0ee      	beq.n	8004b46 <HAL_RCC_OscConfig+0x33a>
 8004b68:	e014      	b.n	8004b94 <HAL_RCC_OscConfig+0x388>
      }
    }
    else
    {
      /* Get Start Tick */
      tickstart = HAL_GetTick();
 8004b6a:	f7fe fced 	bl	8003548 <HAL_GetTick>
 8004b6e:	6138      	str	r0, [r7, #16]

      /* Wait till LSE is ready */
      while(__HAL_RCC_GET_FLAG(RCC_FLAG_LSERDY) != RESET)
 8004b70:	e00a      	b.n	8004b88 <HAL_RCC_OscConfig+0x37c>
      {
        if((HAL_GetTick() - tickstart ) > RCC_LSE_TIMEOUT_VALUE)
 8004b72:	f7fe fce9 	bl	8003548 <HAL_GetTick>
 8004b76:	4602      	mov	r2, r0
 8004b78:	693b      	ldr	r3, [r7, #16]
 8004b7a:	1ad3      	subs	r3, r2, r3
 8004b7c:	f241 3288 	movw	r2, #5000	; 0x1388
 8004b80:	4293      	cmp	r3, r2
 8004b82:	d901      	bls.n	8004b88 <HAL_RCC_OscConfig+0x37c>
        {
          return HAL_TIMEOUT;
 8004b84:	2303      	movs	r3, #3
 8004b86:	e0a6      	b.n	8004cd6 <HAL_RCC_OscConfig+0x4ca>
      while(__HAL_RCC_GET_FLAG(RCC_FLAG_LSERDY) != RESET)
 8004b88:	4b56      	ldr	r3, [pc, #344]	; (8004ce4 <HAL_RCC_OscConfig+0x4d8>)
 8004b8a:	6f1b      	ldr	r3, [r3, #112]	; 0x70
 8004b8c:	f003 0302 	and.w	r3, r3, #2
 8004b90:	2b00      	cmp	r3, #0
 8004b92:	d1ee      	bne.n	8004b72 <HAL_RCC_OscConfig+0x366>
        }
      }
    }

    /* Restore clock configuration if changed */
    if(pwrclkchanged == SET)
 8004b94:	7dfb      	ldrb	r3, [r7, #23]
 8004b96:	2b01      	cmp	r3, #1
 8004b98:	d105      	bne.n	8004ba6 <HAL_RCC_OscConfig+0x39a>
    {
      __HAL_RCC_PWR_CLK_DISABLE();
 8004b9a:	4b52      	ldr	r3, [pc, #328]	; (8004ce4 <HAL_RCC_OscConfig+0x4d8>)
 8004b9c:	6c1b      	ldr	r3, [r3, #64]	; 0x40
 8004b9e:	4a51      	ldr	r2, [pc, #324]	; (8004ce4 <HAL_RCC_OscConfig+0x4d8>)
 8004ba0:	f023 5380 	bic.w	r3, r3, #268435456	; 0x10000000
 8004ba4:	6413      	str	r3, [r2, #64]	; 0x40
    }
  }
  /*-------------------------------- PLL Configuration -----------------------*/
  /* Check the parameters */
  assert_param(IS_RCC_PLL(RCC_OscInitStruct->PLL.PLLState));
  if ((RCC_OscInitStruct->PLL.PLLState) != RCC_PLL_NONE)
 8004ba6:	687b      	ldr	r3, [r7, #4]
 8004ba8:	699b      	ldr	r3, [r3, #24]
 8004baa:	2b00      	cmp	r3, #0
 8004bac:	f000 8092 	beq.w	8004cd4 <HAL_RCC_OscConfig+0x4c8>
  {
    /* Check if the PLL is used as system clock or not */
    if(__HAL_RCC_GET_SYSCLK_SOURCE() != RCC_CFGR_SWS_PLL)
 8004bb0:	4b4c      	ldr	r3, [pc, #304]	; (8004ce4 <HAL_RCC_OscConfig+0x4d8>)
 8004bb2:	689b      	ldr	r3, [r3, #8]
 8004bb4:	f003 030c 	and.w	r3, r3, #12
 8004bb8:	2b08      	cmp	r3, #8
 8004bba:	d05c      	beq.n	8004c76 <HAL_RCC_OscConfig+0x46a>
    {
      if((RCC_OscInitStruct->PLL.PLLState) == RCC_PLL_ON)
 8004bbc:	687b      	ldr	r3, [r7, #4]
 8004bbe:	699b      	ldr	r3, [r3, #24]
 8004bc0:	2b02      	cmp	r3, #2
 8004bc2:	d141      	bne.n	8004c48 <HAL_RCC_OscConfig+0x43c>
        assert_param(IS_RCC_PLLN_VALUE(RCC_OscInitStruct->PLL.PLLN));
        assert_param(IS_RCC_PLLP_VALUE(RCC_OscInitStruct->PLL.PLLP));
        assert_param(IS_RCC_PLLQ_VALUE(RCC_OscInitStruct->PLL.PLLQ));

        /* Disable the main PLL. */
        __HAL_RCC_PLL_DISABLE();
 8004bc4:	4b48      	ldr	r3, [pc, #288]	; (8004ce8 <HAL_RCC_OscConfig+0x4dc>)
 8004bc6:	2200      	movs	r2, #0
 8004bc8:	601a      	str	r2, [r3, #0]

        /* Get Start Tick */
        tickstart = HAL_GetTick();
 8004bca:	f7fe fcbd 	bl	8003548 <HAL_GetTick>
 8004bce:	6138      	str	r0, [r7, #16]

        /* Wait till PLL is ready */
        while(__HAL_RCC_GET_FLAG(RCC_FLAG_PLLRDY) != RESET)
 8004bd0:	e008      	b.n	8004be4 <HAL_RCC_OscConfig+0x3d8>
        {
          if((HAL_GetTick() - tickstart ) > PLL_TIMEOUT_VALUE)
 8004bd2:	f7fe fcb9 	bl	8003548 <HAL_GetTick>
 8004bd6:	4602      	mov	r2, r0
 8004bd8:	693b      	ldr	r3, [r7, #16]
 8004bda:	1ad3      	subs	r3, r2, r3
 8004bdc:	2b02      	cmp	r3, #2
 8004bde:	d901      	bls.n	8004be4 <HAL_RCC_OscConfig+0x3d8>
          {
            return HAL_TIMEOUT;
 8004be0:	2303      	movs	r3, #3
 8004be2:	e078      	b.n	8004cd6 <HAL_RCC_OscConfig+0x4ca>
        while(__HAL_RCC_GET_FLAG(RCC_FLAG_PLLRDY) != RESET)
 8004be4:	4b3f      	ldr	r3, [pc, #252]	; (8004ce4 <HAL_RCC_OscConfig+0x4d8>)
 8004be6:	681b      	ldr	r3, [r3, #0]
 8004be8:	f003 7300 	and.w	r3, r3, #33554432	; 0x2000000
 8004bec:	2b00      	cmp	r3, #0
 8004bee:	d1f0      	bne.n	8004bd2 <HAL_RCC_OscConfig+0x3c6>
          }
        }

        /* Configure the main PLL clock source, multiplication and division factors. */
        WRITE_REG(RCC->PLLCFGR, (RCC_OscInitStruct->PLL.PLLSource                                            | \
 8004bf0:	687b      	ldr	r3, [r7, #4]
 8004bf2:	69da      	ldr	r2, [r3, #28]
 8004bf4:	687b      	ldr	r3, [r7, #4]
 8004bf6:	6a1b      	ldr	r3, [r3, #32]
 8004bf8:	431a      	orrs	r2, r3
 8004bfa:	687b      	ldr	r3, [r7, #4]
 8004bfc:	6a5b      	ldr	r3, [r3, #36]	; 0x24
 8004bfe:	019b      	lsls	r3, r3, #6
 8004c00:	431a      	orrs	r2, r3
 8004c02:	687b      	ldr	r3, [r7, #4]
 8004c04:	6a9b      	ldr	r3, [r3, #40]	; 0x28
 8004c06:	085b      	lsrs	r3, r3, #1
 8004c08:	3b01      	subs	r3, #1
 8004c0a:	041b      	lsls	r3, r3, #16
 8004c0c:	431a      	orrs	r2, r3
 8004c0e:	687b      	ldr	r3, [r7, #4]
 8004c10:	6adb      	ldr	r3, [r3, #44]	; 0x2c
 8004c12:	061b      	lsls	r3, r3, #24
 8004c14:	4933      	ldr	r1, [pc, #204]	; (8004ce4 <HAL_RCC_OscConfig+0x4d8>)
 8004c16:	4313      	orrs	r3, r2
 8004c18:	604b      	str	r3, [r1, #4]
                                 RCC_OscInitStruct->PLL.PLLM                                                 | \
                                 (RCC_OscInitStruct->PLL.PLLN << RCC_PLLCFGR_PLLN_Pos)             | \
                                 (((RCC_OscInitStruct->PLL.PLLP >> 1U) - 1U) << RCC_PLLCFGR_PLLP_Pos) | \
                                 (RCC_OscInitStruct->PLL.PLLQ << RCC_PLLCFGR_PLLQ_Pos)));
        /* Enable the main PLL. */
        __HAL_RCC_PLL_ENABLE();
 8004c1a:	4b33      	ldr	r3, [pc, #204]	; (8004ce8 <HAL_RCC_OscConfig+0x4dc>)
 8004c1c:	2201      	movs	r2, #1
 8004c1e:	601a      	str	r2, [r3, #0]

        /* Get Start Tick */
        tickstart = HAL_GetTick();
 8004c20:	f7fe fc92 	bl	8003548 <HAL_GetTick>
 8004c24:	6138      	str	r0, [r7, #16]

        /* Wait till PLL is ready */
        while(__HAL_RCC_GET_FLAG(RCC_FLAG_PLLRDY) == RESET)
 8004c26:	e008      	b.n	8004c3a <HAL_RCC_OscConfig+0x42e>
        {
          if((HAL_GetTick() - tickstart ) > PLL_TIMEOUT_VALUE)
 8004c28:	f7fe fc8e 	bl	8003548 <HAL_GetTick>
 8004c2c:	4602      	mov	r2, r0
 8004c2e:	693b      	ldr	r3, [r7, #16]
 8004c30:	1ad3      	subs	r3, r2, r3
 8004c32:	2b02      	cmp	r3, #2
 8004c34:	d901      	bls.n	8004c3a <HAL_RCC_OscConfig+0x42e>
          {
            return HAL_TIMEOUT;
 8004c36:	2303      	movs	r3, #3
 8004c38:	e04d      	b.n	8004cd6 <HAL_RCC_OscConfig+0x4ca>
        while(__HAL_RCC_GET_FLAG(RCC_FLAG_PLLRDY) == RESET)
 8004c3a:	4b2a      	ldr	r3, [pc, #168]	; (8004ce4 <HAL_RCC_OscConfig+0x4d8>)
 8004c3c:	681b      	ldr	r3, [r3, #0]
 8004c3e:	f003 7300 	and.w	r3, r3, #33554432	; 0x2000000
 8004c42:	2b00      	cmp	r3, #0
 8004c44:	d0f0      	beq.n	8004c28 <HAL_RCC_OscConfig+0x41c>
 8004c46:	e045      	b.n	8004cd4 <HAL_RCC_OscConfig+0x4c8>
        }
      }
      else
      {
        /* Disable the main PLL. */
        __HAL_RCC_PLL_DISABLE();
 8004c48:	4b27      	ldr	r3, [pc, #156]	; (8004ce8 <HAL_RCC_OscConfig+0x4dc>)
 8004c4a:	2200      	movs	r2, #0
 8004c4c:	601a      	str	r2, [r3, #0]

        /* Get Start Tick */
        tickstart = HAL_GetTick();
 8004c4e:	f7fe fc7b 	bl	8003548 <HAL_GetTick>
 8004c52:	6138      	str	r0, [r7, #16]

        /* Wait till PLL is ready */
        while(__HAL_RCC_GET_FLAG(RCC_FLAG_PLLRDY) != RESET)
 8004c54:	e008      	b.n	8004c68 <HAL_RCC_OscConfig+0x45c>
        {
          if((HAL_GetTick() - tickstart ) > PLL_TIMEOUT_VALUE)
 8004c56:	f7fe fc77 	bl	8003548 <HAL_GetTick>
 8004c5a:	4602      	mov	r2, r0
 8004c5c:	693b      	ldr	r3, [r7, #16]
 8004c5e:	1ad3      	subs	r3, r2, r3
 8004c60:	2b02      	cmp	r3, #2
 8004c62:	d901      	bls.n	8004c68 <HAL_RCC_OscConfig+0x45c>
          {
            return HAL_TIMEOUT;
 8004c64:	2303      	movs	r3, #3
 8004c66:	e036      	b.n	8004cd6 <HAL_RCC_OscConfig+0x4ca>
        while(__HAL_RCC_GET_FLAG(RCC_FLAG_PLLRDY) != RESET)
 8004c68:	4b1e      	ldr	r3, [pc, #120]	; (8004ce4 <HAL_RCC_OscConfig+0x4d8>)
 8004c6a:	681b      	ldr	r3, [r3, #0]
 8004c6c:	f003 7300 	and.w	r3, r3, #33554432	; 0x2000000
 8004c70:	2b00      	cmp	r3, #0
 8004c72:	d1f0      	bne.n	8004c56 <HAL_RCC_OscConfig+0x44a>
 8004c74:	e02e      	b.n	8004cd4 <HAL_RCC_OscConfig+0x4c8>
      }
    }
    else
    {
      /* Check if there is a request to disable the PLL used as System clock source */
      if((RCC_OscInitStruct->PLL.PLLState) == RCC_PLL_OFF)
 8004c76:	687b      	ldr	r3, [r7, #4]
 8004c78:	699b      	ldr	r3, [r3, #24]
 8004c7a:	2b01      	cmp	r3, #1
 8004c7c:	d101      	bne.n	8004c82 <HAL_RCC_OscConfig+0x476>
      {
        return HAL_ERROR;
 8004c7e:	2301      	movs	r3, #1
 8004c80:	e029      	b.n	8004cd6 <HAL_RCC_OscConfig+0x4ca>
      }
      else
      {
        /* Do not return HAL_ERROR if request repeats the current configuration */
        pll_config = RCC->PLLCFGR;
 8004c82:	4b18      	ldr	r3, [pc, #96]	; (8004ce4 <HAL_RCC_OscConfig+0x4d8>)
 8004c84:	685b      	ldr	r3, [r3, #4]
 8004c86:	60fb      	str	r3, [r7, #12]
        if((READ_BIT(pll_config, RCC_PLLCFGR_PLLSRC) != RCC_OscInitStruct->PLL.PLLSource) ||
 8004c88:	68fb      	ldr	r3, [r7, #12]
 8004c8a:	f403 0280 	and.w	r2, r3, #4194304	; 0x400000
 8004c8e:	687b      	ldr	r3, [r7, #4]
 8004c90:	69db      	ldr	r3, [r3, #28]
 8004c92:	429a      	cmp	r2, r3
 8004c94:	d11c      	bne.n	8004cd0 <HAL_RCC_OscConfig+0x4c4>
           (READ_BIT(pll_config, RCC_PLLCFGR_PLLM) != RCC_OscInitStruct->PLL.PLLM) ||
 8004c96:	68fb      	ldr	r3, [r7, #12]
 8004c98:	f003 023f 	and.w	r2, r3, #63	; 0x3f
 8004c9c:	687b      	ldr	r3, [r7, #4]
 8004c9e:	6a1b      	ldr	r3, [r3, #32]
        if((READ_BIT(pll_config, RCC_PLLCFGR_PLLSRC) != RCC_OscInitStruct->PLL.PLLSource) ||
 8004ca0:	429a      	cmp	r2, r3
 8004ca2:	d115      	bne.n	8004cd0 <HAL_RCC_OscConfig+0x4c4>
           (READ_BIT(pll_config, RCC_PLLCFGR_PLLN) != RCC_OscInitStruct->PLL.PLLN) ||
 8004ca4:	68fa      	ldr	r2, [r7, #12]
 8004ca6:	f647 73c0 	movw	r3, #32704	; 0x7fc0
 8004caa:	4013      	ands	r3, r2
 8004cac:	687a      	ldr	r2, [r7, #4]
 8004cae:	6a52      	ldr	r2, [r2, #36]	; 0x24
           (READ_BIT(pll_config, RCC_PLLCFGR_PLLM) != RCC_OscInitStruct->PLL.PLLM) ||
 8004cb0:	4293      	cmp	r3, r2
 8004cb2:	d10d      	bne.n	8004cd0 <HAL_RCC_OscConfig+0x4c4>
           (READ_BIT(pll_config, RCC_PLLCFGR_PLLP) != RCC_OscInitStruct->PLL.PLLP) ||
 8004cb4:	68fb      	ldr	r3, [r7, #12]
 8004cb6:	f403 3240 	and.w	r2, r3, #196608	; 0x30000
 8004cba:	687b      	ldr	r3, [r7, #4]
 8004cbc:	6a9b      	ldr	r3, [r3, #40]	; 0x28
           (READ_BIT(pll_config, RCC_PLLCFGR_PLLN) != RCC_OscInitStruct->PLL.PLLN) ||
 8004cbe:	429a      	cmp	r2, r3
 8004cc0:	d106      	bne.n	8004cd0 <HAL_RCC_OscConfig+0x4c4>
           (READ_BIT(pll_config, RCC_PLLCFGR_PLLQ) != RCC_OscInitStruct->PLL.PLLQ))
 8004cc2:	68fb      	ldr	r3, [r7, #12]
 8004cc4:	f003 6270 	and.w	r2, r3, #251658240	; 0xf000000
 8004cc8:	687b      	ldr	r3, [r7, #4]
 8004cca:	6adb      	ldr	r3, [r3, #44]	; 0x2c
           (READ_BIT(pll_config, RCC_PLLCFGR_PLLP) != RCC_OscInitStruct->PLL.PLLP) ||
 8004ccc:	429a      	cmp	r2, r3
 8004cce:	d001      	beq.n	8004cd4 <HAL_RCC_OscConfig+0x4c8>
        {
          return HAL_ERROR;
 8004cd0:	2301      	movs	r3, #1
 8004cd2:	e000      	b.n	8004cd6 <HAL_RCC_OscConfig+0x4ca>
        }
      }
    }
  }
  return HAL_OK;
 8004cd4:	2300      	movs	r3, #0
}
 8004cd6:	4618      	mov	r0, r3
 8004cd8:	3718      	adds	r7, #24
 8004cda:	46bd      	mov	sp, r7
 8004cdc:	bd80      	pop	{r7, pc}
 8004cde:	bf00      	nop
 8004ce0:	40007000 	.word	0x40007000
 8004ce4:	40023800 	.word	0x40023800
 8004ce8:	42470060 	.word	0x42470060

08004cec <HAL_RCC_ClockConfig>:
  *         HPRE[3:0] bits to ensure that HCLK not exceed the maximum allowed frequency
  *         (for more details refer to section above "Initialization/de-initialization functions")
  * @retval None
  */
HAL_StatusTypeDef HAL_RCC_ClockConfig(RCC_ClkInitTypeDef  *RCC_ClkInitStruct, uint32_t FLatency)
{
 8004cec:	b580      	push	{r7, lr}
 8004cee:	b084      	sub	sp, #16
 8004cf0:	af00      	add	r7, sp, #0
 8004cf2:	6078      	str	r0, [r7, #4]
 8004cf4:	6039      	str	r1, [r7, #0]
  uint32_t tickstart;

  /* Check Null pointer */
  if(RCC_ClkInitStruct == NULL)
 8004cf6:	687b      	ldr	r3, [r7, #4]
 8004cf8:	2b00      	cmp	r3, #0
 8004cfa:	d101      	bne.n	8004d00 <HAL_RCC_ClockConfig+0x14>
  {
    return HAL_ERROR;
 8004cfc:	2301      	movs	r3, #1
 8004cfe:	e0cc      	b.n	8004e9a <HAL_RCC_ClockConfig+0x1ae>
  /* To correctly read data from FLASH memory, the number of wait states (LATENCY)
    must be correctly programmed according to the frequency of the CPU clock
    (HCLK) and the supply voltage of the device. */

  /* Increasing the number of wait states because of higher CPU frequency */
  if(FLatency > __HAL_FLASH_GET_LATENCY())
 8004d00:	4b68      	ldr	r3, [pc, #416]	; (8004ea4 <HAL_RCC_ClockConfig+0x1b8>)
 8004d02:	681b      	ldr	r3, [r3, #0]
 8004d04:	f003 030f 	and.w	r3, r3, #15
 8004d08:	683a      	ldr	r2, [r7, #0]
 8004d0a:	429a      	cmp	r2, r3
 8004d0c:	d90c      	bls.n	8004d28 <HAL_RCC_ClockConfig+0x3c>
  {
    /* Program the new number of wait states to the LATENCY bits in the FLASH_ACR register */
    __HAL_FLASH_SET_LATENCY(FLatency);
 8004d0e:	4b65      	ldr	r3, [pc, #404]	; (8004ea4 <HAL_RCC_ClockConfig+0x1b8>)
 8004d10:	683a      	ldr	r2, [r7, #0]
 8004d12:	b2d2      	uxtb	r2, r2
 8004d14:	701a      	strb	r2, [r3, #0]

    /* Check that the new number of wait states is taken into account to access the Flash
    memory by reading the FLASH_ACR register */
    if(__HAL_FLASH_GET_LATENCY() != FLatency)
 8004d16:	4b63      	ldr	r3, [pc, #396]	; (8004ea4 <HAL_RCC_ClockConfig+0x1b8>)
 8004d18:	681b      	ldr	r3, [r3, #0]
 8004d1a:	f003 030f 	and.w	r3, r3, #15
 8004d1e:	683a      	ldr	r2, [r7, #0]
 8004d20:	429a      	cmp	r2, r3
 8004d22:	d001      	beq.n	8004d28 <HAL_RCC_ClockConfig+0x3c>
    {
      return HAL_ERROR;
 8004d24:	2301      	movs	r3, #1
 8004d26:	e0b8      	b.n	8004e9a <HAL_RCC_ClockConfig+0x1ae>
    }
  }

  /*-------------------------- HCLK Configuration --------------------------*/
  if(((RCC_ClkInitStruct->ClockType) & RCC_CLOCKTYPE_HCLK) == RCC_CLOCKTYPE_HCLK)
 8004d28:	687b      	ldr	r3, [r7, #4]
 8004d2a:	681b      	ldr	r3, [r3, #0]
 8004d2c:	f003 0302 	and.w	r3, r3, #2
 8004d30:	2b00      	cmp	r3, #0
 8004d32:	d020      	beq.n	8004d76 <HAL_RCC_ClockConfig+0x8a>
  {
    /* Set the highest APBx dividers in order to ensure that we do not go through
       a non-spec phase whatever we decrease or increase HCLK. */
    if(((RCC_ClkInitStruct->ClockType) & RCC_CLOCKTYPE_PCLK1) == RCC_CLOCKTYPE_PCLK1)
 8004d34:	687b      	ldr	r3, [r7, #4]
 8004d36:	681b      	ldr	r3, [r3, #0]
 8004d38:	f003 0304 	and.w	r3, r3, #4
 8004d3c:	2b00      	cmp	r3, #0
 8004d3e:	d005      	beq.n	8004d4c <HAL_RCC_ClockConfig+0x60>
    {
      MODIFY_REG(RCC->CFGR, RCC_CFGR_PPRE1, RCC_HCLK_DIV16);
 8004d40:	4b59      	ldr	r3, [pc, #356]	; (8004ea8 <HAL_RCC_ClockConfig+0x1bc>)
 8004d42:	689b      	ldr	r3, [r3, #8]
 8004d44:	4a58      	ldr	r2, [pc, #352]	; (8004ea8 <HAL_RCC_ClockConfig+0x1bc>)
 8004d46:	f443 53e0 	orr.w	r3, r3, #7168	; 0x1c00
 8004d4a:	6093      	str	r3, [r2, #8]
    }

    if(((RCC_ClkInitStruct->ClockType) & RCC_CLOCKTYPE_PCLK2) == RCC_CLOCKTYPE_PCLK2)
 8004d4c:	687b      	ldr	r3, [r7, #4]
 8004d4e:	681b      	ldr	r3, [r3, #0]
 8004d50:	f003 0308 	and.w	r3, r3, #8
 8004d54:	2b00      	cmp	r3, #0
 8004d56:	d005      	beq.n	8004d64 <HAL_RCC_ClockConfig+0x78>
    {
      MODIFY_REG(RCC->CFGR, RCC_CFGR_PPRE2, (RCC_HCLK_DIV16 << 3));
 8004d58:	4b53      	ldr	r3, [pc, #332]	; (8004ea8 <HAL_RCC_ClockConfig+0x1bc>)
 8004d5a:	689b      	ldr	r3, [r3, #8]
 8004d5c:	4a52      	ldr	r2, [pc, #328]	; (8004ea8 <HAL_RCC_ClockConfig+0x1bc>)
 8004d5e:	f443 4360 	orr.w	r3, r3, #57344	; 0xe000
 8004d62:	6093      	str	r3, [r2, #8]
    }

    assert_param(IS_RCC_HCLK(RCC_ClkInitStruct->AHBCLKDivider));
    MODIFY_REG(RCC->CFGR, RCC_CFGR_HPRE, RCC_ClkInitStruct->AHBCLKDivider);
 8004d64:	4b50      	ldr	r3, [pc, #320]	; (8004ea8 <HAL_RCC_ClockConfig+0x1bc>)
 8004d66:	689b      	ldr	r3, [r3, #8]
 8004d68:	f023 02f0 	bic.w	r2, r3, #240	; 0xf0
 8004d6c:	687b      	ldr	r3, [r7, #4]
 8004d6e:	689b      	ldr	r3, [r3, #8]
 8004d70:	494d      	ldr	r1, [pc, #308]	; (8004ea8 <HAL_RCC_ClockConfig+0x1bc>)
 8004d72:	4313      	orrs	r3, r2
 8004d74:	608b      	str	r3, [r1, #8]
  }

  /*------------------------- SYSCLK Configuration ---------------------------*/
  if(((RCC_ClkInitStruct->ClockType) & RCC_CLOCKTYPE_SYSCLK) == RCC_CLOCKTYPE_SYSCLK)
 8004d76:	687b      	ldr	r3, [r7, #4]
 8004d78:	681b      	ldr	r3, [r3, #0]
 8004d7a:	f003 0301 	and.w	r3, r3, #1
 8004d7e:	2b00      	cmp	r3, #0
 8004d80:	d044      	beq.n	8004e0c <HAL_RCC_ClockConfig+0x120>
  {
    assert_param(IS_RCC_SYSCLKSOURCE(RCC_ClkInitStruct->SYSCLKSource));

    /* HSE is selected as System Clock Source */
    if(RCC_ClkInitStruct->SYSCLKSource == RCC_SYSCLKSOURCE_HSE)
 8004d82:	687b      	ldr	r3, [r7, #4]
 8004d84:	685b      	ldr	r3, [r3, #4]
 8004d86:	2b01      	cmp	r3, #1
 8004d88:	d107      	bne.n	8004d9a <HAL_RCC_ClockConfig+0xae>
    {
      /* Check the HSE ready flag */
      if(__HAL_RCC_GET_FLAG(RCC_FLAG_HSERDY) == RESET)
 8004d8a:	4b47      	ldr	r3, [pc, #284]	; (8004ea8 <HAL_RCC_ClockConfig+0x1bc>)
 8004d8c:	681b      	ldr	r3, [r3, #0]
 8004d8e:	f403 3300 	and.w	r3, r3, #131072	; 0x20000
 8004d92:	2b00      	cmp	r3, #0
 8004d94:	d119      	bne.n	8004dca <HAL_RCC_ClockConfig+0xde>
      {
        return HAL_ERROR;
 8004d96:	2301      	movs	r3, #1
 8004d98:	e07f      	b.n	8004e9a <HAL_RCC_ClockConfig+0x1ae>
      }
    }
    /* PLL is selected as System Clock Source */
    else if((RCC_ClkInitStruct->SYSCLKSource == RCC_SYSCLKSOURCE_PLLCLK)   ||
 8004d9a:	687b      	ldr	r3, [r7, #4]
 8004d9c:	685b      	ldr	r3, [r3, #4]
 8004d9e:	2b02      	cmp	r3, #2
 8004da0:	d003      	beq.n	8004daa <HAL_RCC_ClockConfig+0xbe>
            (RCC_ClkInitStruct->SYSCLKSource == RCC_SYSCLKSOURCE_PLLRCLK))
 8004da2:	687b      	ldr	r3, [r7, #4]
 8004da4:	685b      	ldr	r3, [r3, #4]
    else if((RCC_ClkInitStruct->SYSCLKSource == RCC_SYSCLKSOURCE_PLLCLK)   ||
 8004da6:	2b03      	cmp	r3, #3
 8004da8:	d107      	bne.n	8004dba <HAL_RCC_ClockConfig+0xce>
    {
      /* Check the PLL ready flag */
      if(__HAL_RCC_GET_FLAG(RCC_FLAG_PLLRDY) == RESET)
 8004daa:	4b3f      	ldr	r3, [pc, #252]	; (8004ea8 <HAL_RCC_ClockConfig+0x1bc>)
 8004dac:	681b      	ldr	r3, [r3, #0]
 8004dae:	f003 7300 	and.w	r3, r3, #33554432	; 0x2000000
 8004db2:	2b00      	cmp	r3, #0
 8004db4:	d109      	bne.n	8004dca <HAL_RCC_ClockConfig+0xde>
      {
        return HAL_ERROR;
 8004db6:	2301      	movs	r3, #1
 8004db8:	e06f      	b.n	8004e9a <HAL_RCC_ClockConfig+0x1ae>
    }
    /* HSI is selected as System Clock Source */
    else
    {
      /* Check the HSI ready flag */
      if(__HAL_RCC_GET_FLAG(RCC_FLAG_HSIRDY) == RESET)
 8004dba:	4b3b      	ldr	r3, [pc, #236]	; (8004ea8 <HAL_RCC_ClockConfig+0x1bc>)
 8004dbc:	681b      	ldr	r3, [r3, #0]
 8004dbe:	f003 0302 	and.w	r3, r3, #2
 8004dc2:	2b00      	cmp	r3, #0
 8004dc4:	d101      	bne.n	8004dca <HAL_RCC_ClockConfig+0xde>
      {
        return HAL_ERROR;
 8004dc6:	2301      	movs	r3, #1
 8004dc8:	e067      	b.n	8004e9a <HAL_RCC_ClockConfig+0x1ae>
      }
    }

    __HAL_RCC_SYSCLK_CONFIG(RCC_ClkInitStruct->SYSCLKSource);
 8004dca:	4b37      	ldr	r3, [pc, #220]	; (8004ea8 <HAL_RCC_ClockConfig+0x1bc>)
 8004dcc:	689b      	ldr	r3, [r3, #8]
 8004dce:	f023 0203 	bic.w	r2, r3, #3
 8004dd2:	687b      	ldr	r3, [r7, #4]
 8004dd4:	685b      	ldr	r3, [r3, #4]
 8004dd6:	4934      	ldr	r1, [pc, #208]	; (8004ea8 <HAL_RCC_ClockConfig+0x1bc>)
 8004dd8:	4313      	orrs	r3, r2
 8004dda:	608b      	str	r3, [r1, #8]

    /* Get Start Tick */
    tickstart = HAL_GetTick();
 8004ddc:	f7fe fbb4 	bl	8003548 <HAL_GetTick>
 8004de0:	60f8      	str	r0, [r7, #12]

    while (__HAL_RCC_GET_SYSCLK_SOURCE() != (RCC_ClkInitStruct->SYSCLKSource << RCC_CFGR_SWS_Pos))
 8004de2:	e00a      	b.n	8004dfa <HAL_RCC_ClockConfig+0x10e>
    {
      if ((HAL_GetTick() - tickstart) > CLOCKSWITCH_TIMEOUT_VALUE)
 8004de4:	f7fe fbb0 	bl	8003548 <HAL_GetTick>
 8004de8:	4602      	mov	r2, r0
 8004dea:	68fb      	ldr	r3, [r7, #12]
 8004dec:	1ad3      	subs	r3, r2, r3
 8004dee:	f241 3288 	movw	r2, #5000	; 0x1388
 8004df2:	4293      	cmp	r3, r2
 8004df4:	d901      	bls.n	8004dfa <HAL_RCC_ClockConfig+0x10e>
      {
        return HAL_TIMEOUT;
 8004df6:	2303      	movs	r3, #3
 8004df8:	e04f      	b.n	8004e9a <HAL_RCC_ClockConfig+0x1ae>
    while (__HAL_RCC_GET_SYSCLK_SOURCE() != (RCC_ClkInitStruct->SYSCLKSource << RCC_CFGR_SWS_Pos))
 8004dfa:	4b2b      	ldr	r3, [pc, #172]	; (8004ea8 <HAL_RCC_ClockConfig+0x1bc>)
 8004dfc:	689b      	ldr	r3, [r3, #8]
 8004dfe:	f003 020c 	and.w	r2, r3, #12
 8004e02:	687b      	ldr	r3, [r7, #4]
 8004e04:	685b      	ldr	r3, [r3, #4]
 8004e06:	009b      	lsls	r3, r3, #2
 8004e08:	429a      	cmp	r2, r3
 8004e0a:	d1eb      	bne.n	8004de4 <HAL_RCC_ClockConfig+0xf8>
      }
    }
  }

  /* Decreasing the number of wait states because of lower CPU frequency */
  if(FLatency < __HAL_FLASH_GET_LATENCY())
 8004e0c:	4b25      	ldr	r3, [pc, #148]	; (8004ea4 <HAL_RCC_ClockConfig+0x1b8>)
 8004e0e:	681b      	ldr	r3, [r3, #0]
 8004e10:	f003 030f 	and.w	r3, r3, #15
 8004e14:	683a      	ldr	r2, [r7, #0]
 8004e16:	429a      	cmp	r2, r3
 8004e18:	d20c      	bcs.n	8004e34 <HAL_RCC_ClockConfig+0x148>
  {
     /* Program the new number of wait states to the LATENCY bits in the FLASH_ACR register */
    __HAL_FLASH_SET_LATENCY(FLatency);
 8004e1a:	4b22      	ldr	r3, [pc, #136]	; (8004ea4 <HAL_RCC_ClockConfig+0x1b8>)
 8004e1c:	683a      	ldr	r2, [r7, #0]
 8004e1e:	b2d2      	uxtb	r2, r2
 8004e20:	701a      	strb	r2, [r3, #0]

    /* Check that the new number of wait states is taken into account to access the Flash
    memory by reading the FLASH_ACR register */
    if(__HAL_FLASH_GET_LATENCY() != FLatency)
 8004e22:	4b20      	ldr	r3, [pc, #128]	; (8004ea4 <HAL_RCC_ClockConfig+0x1b8>)
 8004e24:	681b      	ldr	r3, [r3, #0]
 8004e26:	f003 030f 	and.w	r3, r3, #15
 8004e2a:	683a      	ldr	r2, [r7, #0]
 8004e2c:	429a      	cmp	r2, r3
 8004e2e:	d001      	beq.n	8004e34 <HAL_RCC_ClockConfig+0x148>
    {
      return HAL_ERROR;
 8004e30:	2301      	movs	r3, #1
 8004e32:	e032      	b.n	8004e9a <HAL_RCC_ClockConfig+0x1ae>
    }
  }

  /*-------------------------- PCLK1 Configuration ---------------------------*/
  if(((RCC_ClkInitStruct->ClockType) & RCC_CLOCKTYPE_PCLK1) == RCC_CLOCKTYPE_PCLK1)
 8004e34:	687b      	ldr	r3, [r7, #4]
 8004e36:	681b      	ldr	r3, [r3, #0]
 8004e38:	f003 0304 	and.w	r3, r3, #4
 8004e3c:	2b00      	cmp	r3, #0
 8004e3e:	d008      	beq.n	8004e52 <HAL_RCC_ClockConfig+0x166>
  {
    assert_param(IS_RCC_PCLK(RCC_ClkInitStruct->APB1CLKDivider));
    MODIFY_REG(RCC->CFGR, RCC_CFGR_PPRE1, RCC_ClkInitStruct->APB1CLKDivider);
 8004e40:	4b19      	ldr	r3, [pc, #100]	; (8004ea8 <HAL_RCC_ClockConfig+0x1bc>)
 8004e42:	689b      	ldr	r3, [r3, #8]
 8004e44:	f423 52e0 	bic.w	r2, r3, #7168	; 0x1c00
 8004e48:	687b      	ldr	r3, [r7, #4]
 8004e4a:	68db      	ldr	r3, [r3, #12]
 8004e4c:	4916      	ldr	r1, [pc, #88]	; (8004ea8 <HAL_RCC_ClockConfig+0x1bc>)
 8004e4e:	4313      	orrs	r3, r2
 8004e50:	608b      	str	r3, [r1, #8]
  }

  /*-------------------------- PCLK2 Configuration ---------------------------*/
  if(((RCC_ClkInitStruct->ClockType) & RCC_CLOCKTYPE_PCLK2) == RCC_CLOCKTYPE_PCLK2)
 8004e52:	687b      	ldr	r3, [r7, #4]
 8004e54:	681b      	ldr	r3, [r3, #0]
 8004e56:	f003 0308 	and.w	r3, r3, #8
 8004e5a:	2b00      	cmp	r3, #0
 8004e5c:	d009      	beq.n	8004e72 <HAL_RCC_ClockConfig+0x186>
  {
    assert_param(IS_RCC_PCLK(RCC_ClkInitStruct->APB2CLKDivider));
    MODIFY_REG(RCC->CFGR, RCC_CFGR_PPRE2, ((RCC_ClkInitStruct->APB2CLKDivider) << 3U));
 8004e5e:	4b12      	ldr	r3, [pc, #72]	; (8004ea8 <HAL_RCC_ClockConfig+0x1bc>)
 8004e60:	689b      	ldr	r3, [r3, #8]
 8004e62:	f423 4260 	bic.w	r2, r3, #57344	; 0xe000
 8004e66:	687b      	ldr	r3, [r7, #4]
 8004e68:	691b      	ldr	r3, [r3, #16]
 8004e6a:	00db      	lsls	r3, r3, #3
 8004e6c:	490e      	ldr	r1, [pc, #56]	; (8004ea8 <HAL_RCC_ClockConfig+0x1bc>)
 8004e6e:	4313      	orrs	r3, r2
 8004e70:	608b      	str	r3, [r1, #8]
  }

  /* Update the SystemCoreClock global variable */
  SystemCoreClock = HAL_RCC_GetSysClockFreq() >> AHBPrescTable[(RCC->CFGR & RCC_CFGR_HPRE)>> RCC_CFGR_HPRE_Pos];
 8004e72:	f000 f821 	bl	8004eb8 <HAL_RCC_GetSysClockFreq>
 8004e76:	4601      	mov	r1, r0
 8004e78:	4b0b      	ldr	r3, [pc, #44]	; (8004ea8 <HAL_RCC_ClockConfig+0x1bc>)
 8004e7a:	689b      	ldr	r3, [r3, #8]
 8004e7c:	091b      	lsrs	r3, r3, #4
 8004e7e:	f003 030f 	and.w	r3, r3, #15
 8004e82:	4a0a      	ldr	r2, [pc, #40]	; (8004eac <HAL_RCC_ClockConfig+0x1c0>)
 8004e84:	5cd3      	ldrb	r3, [r2, r3]
 8004e86:	fa21 f303 	lsr.w	r3, r1, r3
 8004e8a:	4a09      	ldr	r2, [pc, #36]	; (8004eb0 <HAL_RCC_ClockConfig+0x1c4>)
 8004e8c:	6013      	str	r3, [r2, #0]

  /* Configure the source of time base considering new system clocks settings */
  HAL_InitTick (uwTickPrio);
 8004e8e:	4b09      	ldr	r3, [pc, #36]	; (8004eb4 <HAL_RCC_ClockConfig+0x1c8>)
 8004e90:	681b      	ldr	r3, [r3, #0]
 8004e92:	4618      	mov	r0, r3
 8004e94:	f7fd fe04 	bl	8002aa0 <HAL_InitTick>

  return HAL_OK;
 8004e98:	2300      	movs	r3, #0
}
 8004e9a:	4618      	mov	r0, r3
 8004e9c:	3710      	adds	r7, #16
 8004e9e:	46bd      	mov	sp, r7
 8004ea0:	bd80      	pop	{r7, pc}
 8004ea2:	bf00      	nop
 8004ea4:	40023c00 	.word	0x40023c00
 8004ea8:	40023800 	.word	0x40023800
 8004eac:	0800a104 	.word	0x0800a104
 8004eb0:	20000000 	.word	0x20000000
 8004eb4:	20000004 	.word	0x20000004

08004eb8 <HAL_RCC_GetSysClockFreq>:
  *
  *
  * @retval SYSCLK frequency
  */
__weak uint32_t HAL_RCC_GetSysClockFreq(void)
{
 8004eb8:	b5f0      	push	{r4, r5, r6, r7, lr}
 8004eba:	b085      	sub	sp, #20
 8004ebc:	af00      	add	r7, sp, #0
  uint32_t pllm = 0U, pllvco = 0U, pllp = 0U;
 8004ebe:	2300      	movs	r3, #0
 8004ec0:	607b      	str	r3, [r7, #4]
 8004ec2:	2300      	movs	r3, #0
 8004ec4:	60fb      	str	r3, [r7, #12]
 8004ec6:	2300      	movs	r3, #0
 8004ec8:	603b      	str	r3, [r7, #0]
  uint32_t sysclockfreq = 0U;
 8004eca:	2300      	movs	r3, #0
 8004ecc:	60bb      	str	r3, [r7, #8]

  /* Get SYSCLK source -------------------------------------------------------*/
  switch (RCC->CFGR & RCC_CFGR_SWS)
 8004ece:	4b50      	ldr	r3, [pc, #320]	; (8005010 <HAL_RCC_GetSysClockFreq+0x158>)
 8004ed0:	689b      	ldr	r3, [r3, #8]
 8004ed2:	f003 030c 	and.w	r3, r3, #12
 8004ed6:	2b04      	cmp	r3, #4
 8004ed8:	d007      	beq.n	8004eea <HAL_RCC_GetSysClockFreq+0x32>
 8004eda:	2b08      	cmp	r3, #8
 8004edc:	d008      	beq.n	8004ef0 <HAL_RCC_GetSysClockFreq+0x38>
 8004ede:	2b00      	cmp	r3, #0
 8004ee0:	f040 808d 	bne.w	8004ffe <HAL_RCC_GetSysClockFreq+0x146>
  {
    case RCC_CFGR_SWS_HSI:  /* HSI used as system clock source */
    {
      sysclockfreq = HSI_VALUE;
 8004ee4:	4b4b      	ldr	r3, [pc, #300]	; (8005014 <HAL_RCC_GetSysClockFreq+0x15c>)
 8004ee6:	60bb      	str	r3, [r7, #8]
       break;
 8004ee8:	e08c      	b.n	8005004 <HAL_RCC_GetSysClockFreq+0x14c>
    }
    case RCC_CFGR_SWS_HSE:  /* HSE used as system clock  source */
    {
      sysclockfreq = HSE_VALUE;
 8004eea:	4b4b      	ldr	r3, [pc, #300]	; (8005018 <HAL_RCC_GetSysClockFreq+0x160>)
 8004eec:	60bb      	str	r3, [r7, #8]
      break;
 8004eee:	e089      	b.n	8005004 <HAL_RCC_GetSysClockFreq+0x14c>
    }
    case RCC_CFGR_SWS_PLL:  /* PLL used as system clock  source */
    {
      /* PLL_VCO = (HSE_VALUE or HSI_VALUE / PLLM) * PLLN
      SYSCLK = PLL_VCO / PLLP */
      pllm = RCC->PLLCFGR & RCC_PLLCFGR_PLLM;
 8004ef0:	4b47      	ldr	r3, [pc, #284]	; (8005010 <HAL_RCC_GetSysClockFreq+0x158>)
 8004ef2:	685b      	ldr	r3, [r3, #4]
 8004ef4:	f003 033f 	and.w	r3, r3, #63	; 0x3f
 8004ef8:	607b      	str	r3, [r7, #4]
      if(__HAL_RCC_GET_PLL_OSCSOURCE() != RCC_PLLSOURCE_HSI)
 8004efa:	4b45      	ldr	r3, [pc, #276]	; (8005010 <HAL_RCC_GetSysClockFreq+0x158>)
 8004efc:	685b      	ldr	r3, [r3, #4]
 8004efe:	f403 0380 	and.w	r3, r3, #4194304	; 0x400000
 8004f02:	2b00      	cmp	r3, #0
 8004f04:	d023      	beq.n	8004f4e <HAL_RCC_GetSysClockFreq+0x96>
      {
        /* HSE used as PLL clock source */
        pllvco = (uint32_t) ((((uint64_t) HSE_VALUE * ((uint64_t) ((RCC->PLLCFGR & RCC_PLLCFGR_PLLN) >> RCC_PLLCFGR_PLLN_Pos)))) / (uint64_t)pllm);
 8004f06:	4b42      	ldr	r3, [pc, #264]	; (8005010 <HAL_RCC_GetSysClockFreq+0x158>)
 8004f08:	685b      	ldr	r3, [r3, #4]
 8004f0a:	099b      	lsrs	r3, r3, #6
 8004f0c:	f04f 0400 	mov.w	r4, #0
 8004f10:	f240 11ff 	movw	r1, #511	; 0x1ff
 8004f14:	f04f 0200 	mov.w	r2, #0
 8004f18:	ea03 0501 	and.w	r5, r3, r1
 8004f1c:	ea04 0602 	and.w	r6, r4, r2
 8004f20:	4a3d      	ldr	r2, [pc, #244]	; (8005018 <HAL_RCC_GetSysClockFreq+0x160>)
 8004f22:	fb02 f106 	mul.w	r1, r2, r6
 8004f26:	2200      	movs	r2, #0
 8004f28:	fb02 f205 	mul.w	r2, r2, r5
 8004f2c:	440a      	add	r2, r1
 8004f2e:	493a      	ldr	r1, [pc, #232]	; (8005018 <HAL_RCC_GetSysClockFreq+0x160>)
 8004f30:	fba5 0101 	umull	r0, r1, r5, r1
 8004f34:	1853      	adds	r3, r2, r1
 8004f36:	4619      	mov	r1, r3
 8004f38:	687b      	ldr	r3, [r7, #4]
 8004f3a:	f04f 0400 	mov.w	r4, #0
 8004f3e:	461a      	mov	r2, r3
 8004f40:	4623      	mov	r3, r4
 8004f42:	f7fb fe59 	bl	8000bf8 <__aeabi_uldivmod>
 8004f46:	4603      	mov	r3, r0
 8004f48:	460c      	mov	r4, r1
 8004f4a:	60fb      	str	r3, [r7, #12]
 8004f4c:	e049      	b.n	8004fe2 <HAL_RCC_GetSysClockFreq+0x12a>
      }
      else
      {
        /* HSI used as PLL clock source */
        pllvco = (uint32_t) ((((uint64_t) HSI_VALUE * ((uint64_t) ((RCC->PLLCFGR & RCC_PLLCFGR_PLLN) >> RCC_PLLCFGR_PLLN_Pos)))) / (uint64_t)pllm);
 8004f4e:	4b30      	ldr	r3, [pc, #192]	; (8005010 <HAL_RCC_GetSysClockFreq+0x158>)
 8004f50:	685b      	ldr	r3, [r3, #4]
 8004f52:	099b      	lsrs	r3, r3, #6
 8004f54:	f04f 0400 	mov.w	r4, #0
 8004f58:	f240 11ff 	movw	r1, #511	; 0x1ff
 8004f5c:	f04f 0200 	mov.w	r2, #0
 8004f60:	ea03 0501 	and.w	r5, r3, r1
 8004f64:	ea04 0602 	and.w	r6, r4, r2
 8004f68:	4629      	mov	r1, r5
 8004f6a:	4632      	mov	r2, r6
 8004f6c:	f04f 0300 	mov.w	r3, #0
 8004f70:	f04f 0400 	mov.w	r4, #0
 8004f74:	0154      	lsls	r4, r2, #5
 8004f76:	ea44 64d1 	orr.w	r4, r4, r1, lsr #27
 8004f7a:	014b      	lsls	r3, r1, #5
 8004f7c:	4619      	mov	r1, r3
 8004f7e:	4622      	mov	r2, r4
 8004f80:	1b49      	subs	r1, r1, r5
 8004f82:	eb62 0206 	sbc.w	r2, r2, r6
 8004f86:	f04f 0300 	mov.w	r3, #0
 8004f8a:	f04f 0400 	mov.w	r4, #0
 8004f8e:	0194      	lsls	r4, r2, #6
 8004f90:	ea44 6491 	orr.w	r4, r4, r1, lsr #26
 8004f94:	018b      	lsls	r3, r1, #6
 8004f96:	1a5b      	subs	r3, r3, r1
 8004f98:	eb64 0402 	sbc.w	r4, r4, r2
 8004f9c:	f04f 0100 	mov.w	r1, #0
 8004fa0:	f04f 0200 	mov.w	r2, #0
 8004fa4:	00e2      	lsls	r2, r4, #3
 8004fa6:	ea42 7253 	orr.w	r2, r2, r3, lsr #29
 8004faa:	00d9      	lsls	r1, r3, #3
 8004fac:	460b      	mov	r3, r1
 8004fae:	4614      	mov	r4, r2
 8004fb0:	195b      	adds	r3, r3, r5
 8004fb2:	eb44 0406 	adc.w	r4, r4, r6
 8004fb6:	f04f 0100 	mov.w	r1, #0
 8004fba:	f04f 0200 	mov.w	r2, #0
 8004fbe:	02a2      	lsls	r2, r4, #10
 8004fc0:	ea42 5293 	orr.w	r2, r2, r3, lsr #22
 8004fc4:	0299      	lsls	r1, r3, #10
 8004fc6:	460b      	mov	r3, r1
 8004fc8:	4614      	mov	r4, r2
 8004fca:	4618      	mov	r0, r3
 8004fcc:	4621      	mov	r1, r4
 8004fce:	687b      	ldr	r3, [r7, #4]
 8004fd0:	f04f 0400 	mov.w	r4, #0
 8004fd4:	461a      	mov	r2, r3
 8004fd6:	4623      	mov	r3, r4
 8004fd8:	f7fb fe0e 	bl	8000bf8 <__aeabi_uldivmod>
 8004fdc:	4603      	mov	r3, r0
 8004fde:	460c      	mov	r4, r1
 8004fe0:	60fb      	str	r3, [r7, #12]
      }
      pllp = ((((RCC->PLLCFGR & RCC_PLLCFGR_PLLP) >> RCC_PLLCFGR_PLLP_Pos) + 1U) *2U);
 8004fe2:	4b0b      	ldr	r3, [pc, #44]	; (8005010 <HAL_RCC_GetSysClockFreq+0x158>)
 8004fe4:	685b      	ldr	r3, [r3, #4]
 8004fe6:	0c1b      	lsrs	r3, r3, #16
 8004fe8:	f003 0303 	and.w	r3, r3, #3
 8004fec:	3301      	adds	r3, #1
 8004fee:	005b      	lsls	r3, r3, #1
 8004ff0:	603b      	str	r3, [r7, #0]

      sysclockfreq = pllvco/pllp;
 8004ff2:	68fa      	ldr	r2, [r7, #12]
 8004ff4:	683b      	ldr	r3, [r7, #0]
 8004ff6:	fbb2 f3f3 	udiv	r3, r2, r3
 8004ffa:	60bb      	str	r3, [r7, #8]
      break;
 8004ffc:	e002      	b.n	8005004 <HAL_RCC_GetSysClockFreq+0x14c>
    }
    default:
    {
      sysclockfreq = HSI_VALUE;
 8004ffe:	4b05      	ldr	r3, [pc, #20]	; (8005014 <HAL_RCC_GetSysClockFreq+0x15c>)
 8005000:	60bb      	str	r3, [r7, #8]
      break;
 8005002:	bf00      	nop
    }
  }
  return sysclockfreq;
 8005004:	68bb      	ldr	r3, [r7, #8]
}
 8005006:	4618      	mov	r0, r3
 8005008:	3714      	adds	r7, #20
 800500a:	46bd      	mov	sp, r7
 800500c:	bdf0      	pop	{r4, r5, r6, r7, pc}
 800500e:	bf00      	nop
 8005010:	40023800 	.word	0x40023800
 8005014:	00f42400 	.word	0x00f42400
 8005018:	00b71b00 	.word	0x00b71b00

0800501c <HAL_RCC_GetHCLKFreq>:
  * @note   The SystemCoreClock CMSIS variable is used to store System Clock Frequency
  *         and updated within this function
  * @retval HCLK frequency
  */
uint32_t HAL_RCC_GetHCLKFreq(void)
{
 800501c:	b480      	push	{r7}
 800501e:	af00      	add	r7, sp, #0
  return SystemCoreClock;
 8005020:	4b03      	ldr	r3, [pc, #12]	; (8005030 <HAL_RCC_GetHCLKFreq+0x14>)
 8005022:	681b      	ldr	r3, [r3, #0]
}
 8005024:	4618      	mov	r0, r3
 8005026:	46bd      	mov	sp, r7
 8005028:	f85d 7b04 	ldr.w	r7, [sp], #4
 800502c:	4770      	bx	lr
 800502e:	bf00      	nop
 8005030:	20000000 	.word	0x20000000

08005034 <HAL_RCC_GetPCLK1Freq>:
  * @note   Each time PCLK1 changes, this function must be called to update the
  *         right PCLK1 value. Otherwise, any configuration based on this function will be incorrect.
  * @retval PCLK1 frequency
  */
uint32_t HAL_RCC_GetPCLK1Freq(void)
{
 8005034:	b580      	push	{r7, lr}
 8005036:	af00      	add	r7, sp, #0
  /* Get HCLK source and Compute PCLK1 frequency ---------------------------*/
  return (HAL_RCC_GetHCLKFreq() >> APBPrescTable[(RCC->CFGR & RCC_CFGR_PPRE1)>> RCC_CFGR_PPRE1_Pos]);
 8005038:	f7ff fff0 	bl	800501c <HAL_RCC_GetHCLKFreq>
 800503c:	4601      	mov	r1, r0
 800503e:	4b05      	ldr	r3, [pc, #20]	; (8005054 <HAL_RCC_GetPCLK1Freq+0x20>)
 8005040:	689b      	ldr	r3, [r3, #8]
 8005042:	0a9b      	lsrs	r3, r3, #10
 8005044:	f003 0307 	and.w	r3, r3, #7
 8005048:	4a03      	ldr	r2, [pc, #12]	; (8005058 <HAL_RCC_GetPCLK1Freq+0x24>)
 800504a:	5cd3      	ldrb	r3, [r2, r3]
 800504c:	fa21 f303 	lsr.w	r3, r1, r3
}
 8005050:	4618      	mov	r0, r3
 8005052:	bd80      	pop	{r7, pc}
 8005054:	40023800 	.word	0x40023800
 8005058:	0800a114 	.word	0x0800a114

0800505c <HAL_RCC_GetPCLK2Freq>:
  * @note   Each time PCLK2 changes, this function must be called to update the
  *         right PCLK2 value. Otherwise, any configuration based on this function will be incorrect.
  * @retval PCLK2 frequency
  */
uint32_t HAL_RCC_GetPCLK2Freq(void)
{
 800505c:	b580      	push	{r7, lr}
 800505e:	af00      	add	r7, sp, #0
  /* Get HCLK source and Compute PCLK2 frequency ---------------------------*/
  return (HAL_RCC_GetHCLKFreq()>> APBPrescTable[(RCC->CFGR & RCC_CFGR_PPRE2)>> RCC_CFGR_PPRE2_Pos]);
 8005060:	f7ff ffdc 	bl	800501c <HAL_RCC_GetHCLKFreq>
 8005064:	4601      	mov	r1, r0
 8005066:	4b05      	ldr	r3, [pc, #20]	; (800507c <HAL_RCC_GetPCLK2Freq+0x20>)
 8005068:	689b      	ldr	r3, [r3, #8]
 800506a:	0b5b      	lsrs	r3, r3, #13
 800506c:	f003 0307 	and.w	r3, r3, #7
 8005070:	4a03      	ldr	r2, [pc, #12]	; (8005080 <HAL_RCC_GetPCLK2Freq+0x24>)
 8005072:	5cd3      	ldrb	r3, [r2, r3]
 8005074:	fa21 f303 	lsr.w	r3, r1, r3
}
 8005078:	4618      	mov	r0, r3
 800507a:	bd80      	pop	{r7, pc}
 800507c:	40023800 	.word	0x40023800
 8005080:	0800a114 	.word	0x0800a114

08005084 <HAL_RCC_GetClockConfig>:
  * will be configured.
  * @param  pFLatency Pointer on the Flash Latency.
  * @retval None
  */
void HAL_RCC_GetClockConfig(RCC_ClkInitTypeDef  *RCC_ClkInitStruct, uint32_t *pFLatency)
{
 8005084:	b480      	push	{r7}
 8005086:	b083      	sub	sp, #12
 8005088:	af00      	add	r7, sp, #0
 800508a:	6078      	str	r0, [r7, #4]
 800508c:	6039      	str	r1, [r7, #0]
  /* Set all possible values for the Clock type parameter --------------------*/
  RCC_ClkInitStruct->ClockType = RCC_CLOCKTYPE_SYSCLK | RCC_CLOCKTYPE_HCLK | RCC_CLOCKTYPE_PCLK1 | RCC_CLOCKTYPE_PCLK2;
 800508e:	687b      	ldr	r3, [r7, #4]
 8005090:	220f      	movs	r2, #15
 8005092:	601a      	str	r2, [r3, #0]

  /* Get the SYSCLK configuration --------------------------------------------*/
  RCC_ClkInitStruct->SYSCLKSource = (uint32_t)(RCC->CFGR & RCC_CFGR_SW);
 8005094:	4b12      	ldr	r3, [pc, #72]	; (80050e0 <HAL_RCC_GetClockConfig+0x5c>)
 8005096:	689b      	ldr	r3, [r3, #8]
 8005098:	f003 0203 	and.w	r2, r3, #3
 800509c:	687b      	ldr	r3, [r7, #4]
 800509e:	605a      	str	r2, [r3, #4]

  /* Get the HCLK configuration ----------------------------------------------*/
  RCC_ClkInitStruct->AHBCLKDivider = (uint32_t)(RCC->CFGR & RCC_CFGR_HPRE);
 80050a0:	4b0f      	ldr	r3, [pc, #60]	; (80050e0 <HAL_RCC_GetClockConfig+0x5c>)
 80050a2:	689b      	ldr	r3, [r3, #8]
 80050a4:	f003 02f0 	and.w	r2, r3, #240	; 0xf0
 80050a8:	687b      	ldr	r3, [r7, #4]
 80050aa:	609a      	str	r2, [r3, #8]

  /* Get the APB1 configuration ----------------------------------------------*/
  RCC_ClkInitStruct->APB1CLKDivider = (uint32_t)(RCC->CFGR & RCC_CFGR_PPRE1);
 80050ac:	4b0c      	ldr	r3, [pc, #48]	; (80050e0 <HAL_RCC_GetClockConfig+0x5c>)
 80050ae:	689b      	ldr	r3, [r3, #8]
 80050b0:	f403 52e0 	and.w	r2, r3, #7168	; 0x1c00
 80050b4:	687b      	ldr	r3, [r7, #4]
 80050b6:	60da      	str	r2, [r3, #12]

  /* Get the APB2 configuration ----------------------------------------------*/
  RCC_ClkInitStruct->APB2CLKDivider = (uint32_t)((RCC->CFGR & RCC_CFGR_PPRE2) >> 3U);
 80050b8:	4b09      	ldr	r3, [pc, #36]	; (80050e0 <HAL_RCC_GetClockConfig+0x5c>)
 80050ba:	689b      	ldr	r3, [r3, #8]
 80050bc:	08db      	lsrs	r3, r3, #3
 80050be:	f403 52e0 	and.w	r2, r3, #7168	; 0x1c00
 80050c2:	687b      	ldr	r3, [r7, #4]
 80050c4:	611a      	str	r2, [r3, #16]

  /* Get the Flash Wait State (Latency) configuration ------------------------*/
  *pFLatency = (uint32_t)(FLASH->ACR & FLASH_ACR_LATENCY);
 80050c6:	4b07      	ldr	r3, [pc, #28]	; (80050e4 <HAL_RCC_GetClockConfig+0x60>)
 80050c8:	681b      	ldr	r3, [r3, #0]
 80050ca:	f003 020f 	and.w	r2, r3, #15
 80050ce:	683b      	ldr	r3, [r7, #0]
 80050d0:	601a      	str	r2, [r3, #0]
}
 80050d2:	bf00      	nop
 80050d4:	370c      	adds	r7, #12
 80050d6:	46bd      	mov	sp, r7
 80050d8:	f85d 7b04 	ldr.w	r7, [sp], #4
 80050dc:	4770      	bx	lr
 80050de:	bf00      	nop
 80050e0:	40023800 	.word	0x40023800
 80050e4:	40023c00 	.word	0x40023c00

080050e8 <HAL_TIM_Base_Init>:
  *         Ex: call @ref HAL_TIM_Base_DeInit() before HAL_TIM_Base_Init()
  * @param  htim TIM Base handle
  * @retval HAL status
  */
HAL_StatusTypeDef HAL_TIM_Base_Init(TIM_HandleTypeDef *htim)
{
 80050e8:	b580      	push	{r7, lr}
 80050ea:	b082      	sub	sp, #8
 80050ec:	af00      	add	r7, sp, #0
 80050ee:	6078      	str	r0, [r7, #4]
  /* Check the TIM handle allocation */
  if (htim == NULL)
 80050f0:	687b      	ldr	r3, [r7, #4]
 80050f2:	2b00      	cmp	r3, #0
 80050f4:	d101      	bne.n	80050fa <HAL_TIM_Base_Init+0x12>
  {
    return HAL_ERROR;
 80050f6:	2301      	movs	r3, #1
 80050f8:	e01d      	b.n	8005136 <HAL_TIM_Base_Init+0x4e>
  assert_param(IS_TIM_INSTANCE(htim->Instance));
  assert_param(IS_TIM_COUNTER_MODE(htim->Init.CounterMode));
  assert_param(IS_TIM_CLOCKDIVISION_DIV(htim->Init.ClockDivision));
  assert_param(IS_TIM_AUTORELOAD_PRELOAD(htim->Init.AutoReloadPreload));

  if (htim->State == HAL_TIM_STATE_RESET)
 80050fa:	687b      	ldr	r3, [r7, #4]
 80050fc:	f893 303d 	ldrb.w	r3, [r3, #61]	; 0x3d
 8005100:	b2db      	uxtb	r3, r3
 8005102:	2b00      	cmp	r3, #0
 8005104:	d106      	bne.n	8005114 <HAL_TIM_Base_Init+0x2c>
  {
    /* Allocate lock resource and initialize it */
    htim->Lock = HAL_UNLOCKED;
 8005106:	687b      	ldr	r3, [r7, #4]
 8005108:	2200      	movs	r2, #0
 800510a:	f883 203c 	strb.w	r2, [r3, #60]	; 0x3c
    }
    /* Init the low level hardware : GPIO, CLOCK, NVIC */
    htim->Base_MspInitCallback(htim);
#else
    /* Init the low level hardware : GPIO, CLOCK, NVIC */
    HAL_TIM_Base_MspInit(htim);
 800510e:	6878      	ldr	r0, [r7, #4]
 8005110:	f7fd ffd8 	bl	80030c4 <HAL_TIM_Base_MspInit>
#endif /* USE_HAL_TIM_REGISTER_CALLBACKS */
  }

  /* Set the TIM state */
  htim->State = HAL_TIM_STATE_BUSY;
 8005114:	687b      	ldr	r3, [r7, #4]
 8005116:	2202      	movs	r2, #2
 8005118:	f883 203d 	strb.w	r2, [r3, #61]	; 0x3d

  /* Set the Time Base configuration */
  TIM_Base_SetConfig(htim->Instance, &htim->Init);
 800511c:	687b      	ldr	r3, [r7, #4]
 800511e:	681a      	ldr	r2, [r3, #0]
 8005120:	687b      	ldr	r3, [r7, #4]
 8005122:	3304      	adds	r3, #4
 8005124:	4619      	mov	r1, r3
 8005126:	4610      	mov	r0, r2
 8005128:	f000 fa8c 	bl	8005644 <TIM_Base_SetConfig>

  /* Initialize the TIM state*/
  htim->State = HAL_TIM_STATE_READY;
 800512c:	687b      	ldr	r3, [r7, #4]
 800512e:	2201      	movs	r2, #1
 8005130:	f883 203d 	strb.w	r2, [r3, #61]	; 0x3d

  return HAL_OK;
 8005134:	2300      	movs	r3, #0
}
 8005136:	4618      	mov	r0, r3
 8005138:	3708      	adds	r7, #8
 800513a:	46bd      	mov	sp, r7
 800513c:	bd80      	pop	{r7, pc}

0800513e <HAL_TIM_Base_Start_IT>:
  * @brief  Starts the TIM Base generation in interrupt mode.
  * @param  htim TIM Base handle
  * @retval HAL status
  */
HAL_StatusTypeDef HAL_TIM_Base_Start_IT(TIM_HandleTypeDef *htim)
{
 800513e:	b480      	push	{r7}
 8005140:	b085      	sub	sp, #20
 8005142:	af00      	add	r7, sp, #0
 8005144:	6078      	str	r0, [r7, #4]

  /* Check the parameters */
  assert_param(IS_TIM_INSTANCE(htim->Instance));

  /* Enable the TIM Update interrupt */
  __HAL_TIM_ENABLE_IT(htim, TIM_IT_UPDATE);
 8005146:	687b      	ldr	r3, [r7, #4]
 8005148:	681b      	ldr	r3, [r3, #0]
 800514a:	68da      	ldr	r2, [r3, #12]
 800514c:	687b      	ldr	r3, [r7, #4]
 800514e:	681b      	ldr	r3, [r3, #0]
 8005150:	f042 0201 	orr.w	r2, r2, #1
 8005154:	60da      	str	r2, [r3, #12]

  /* Enable the Peripheral, except in trigger mode where enable is automatically done with trigger */
  tmpsmcr = htim->Instance->SMCR & TIM_SMCR_SMS;
 8005156:	687b      	ldr	r3, [r7, #4]
 8005158:	681b      	ldr	r3, [r3, #0]
 800515a:	689b      	ldr	r3, [r3, #8]
 800515c:	f003 0307 	and.w	r3, r3, #7
 8005160:	60fb      	str	r3, [r7, #12]
  if (!IS_TIM_SLAVEMODE_TRIGGER_ENABLED(tmpsmcr))
 8005162:	68fb      	ldr	r3, [r7, #12]
 8005164:	2b06      	cmp	r3, #6
 8005166:	d007      	beq.n	8005178 <HAL_TIM_Base_Start_IT+0x3a>
  {
    __HAL_TIM_ENABLE(htim);
 8005168:	687b      	ldr	r3, [r7, #4]
 800516a:	681b      	ldr	r3, [r3, #0]
 800516c:	681a      	ldr	r2, [r3, #0]
 800516e:	687b      	ldr	r3, [r7, #4]
 8005170:	681b      	ldr	r3, [r3, #0]
 8005172:	f042 0201 	orr.w	r2, r2, #1
 8005176:	601a      	str	r2, [r3, #0]
  }

  /* Return function status */
  return HAL_OK;
 8005178:	2300      	movs	r3, #0
}
 800517a:	4618      	mov	r0, r3
 800517c:	3714      	adds	r7, #20
 800517e:	46bd      	mov	sp, r7
 8005180:	f85d 7b04 	ldr.w	r7, [sp], #4
 8005184:	4770      	bx	lr

08005186 <HAL_TIM_PWM_Init>:
  *         Ex: call @ref HAL_TIM_PWM_DeInit() before HAL_TIM_PWM_Init()
  * @param  htim TIM PWM handle
  * @retval HAL status
  */
HAL_StatusTypeDef HAL_TIM_PWM_Init(TIM_HandleTypeDef *htim)
{
 8005186:	b580      	push	{r7, lr}
 8005188:	b082      	sub	sp, #8
 800518a:	af00      	add	r7, sp, #0
 800518c:	6078      	str	r0, [r7, #4]
  /* Check the TIM handle allocation */
  if (htim == NULL)
 800518e:	687b      	ldr	r3, [r7, #4]
 8005190:	2b00      	cmp	r3, #0
 8005192:	d101      	bne.n	8005198 <HAL_TIM_PWM_Init+0x12>
  {
    return HAL_ERROR;
 8005194:	2301      	movs	r3, #1
 8005196:	e01d      	b.n	80051d4 <HAL_TIM_PWM_Init+0x4e>
  assert_param(IS_TIM_INSTANCE(htim->Instance));
  assert_param(IS_TIM_COUNTER_MODE(htim->Init.CounterMode));
  assert_param(IS_TIM_CLOCKDIVISION_DIV(htim->Init.ClockDivision));
  assert_param(IS_TIM_AUTORELOAD_PRELOAD(htim->Init.AutoReloadPreload));

  if (htim->State == HAL_TIM_STATE_RESET)
 8005198:	687b      	ldr	r3, [r7, #4]
 800519a:	f893 303d 	ldrb.w	r3, [r3, #61]	; 0x3d
 800519e:	b2db      	uxtb	r3, r3
 80051a0:	2b00      	cmp	r3, #0
 80051a2:	d106      	bne.n	80051b2 <HAL_TIM_PWM_Init+0x2c>
  {
    /* Allocate lock resource and initialize it */
    htim->Lock = HAL_UNLOCKED;
 80051a4:	687b      	ldr	r3, [r7, #4]
 80051a6:	2200      	movs	r2, #0
 80051a8:	f883 203c 	strb.w	r2, [r3, #60]	; 0x3c
    }
    /* Init the low level hardware : GPIO, CLOCK, NVIC */
    htim->PWM_MspInitCallback(htim);
#else
    /* Init the low level hardware : GPIO, CLOCK, NVIC and DMA */
    HAL_TIM_PWM_MspInit(htim);
 80051ac:	6878      	ldr	r0, [r7, #4]
 80051ae:	f7fd ff3d 	bl	800302c <HAL_TIM_PWM_MspInit>
#endif /* USE_HAL_TIM_REGISTER_CALLBACKS */
  }

  /* Set the TIM state */
  htim->State = HAL_TIM_STATE_BUSY;
 80051b2:	687b      	ldr	r3, [r7, #4]
 80051b4:	2202      	movs	r2, #2
 80051b6:	f883 203d 	strb.w	r2, [r3, #61]	; 0x3d

  /* Init the base time for the PWM */
  TIM_Base_SetConfig(htim->Instance, &htim->Init);
 80051ba:	687b      	ldr	r3, [r7, #4]
 80051bc:	681a      	ldr	r2, [r3, #0]
 80051be:	687b      	ldr	r3, [r7, #4]
 80051c0:	3304      	adds	r3, #4
 80051c2:	4619      	mov	r1, r3
 80051c4:	4610      	mov	r0, r2
 80051c6:	f000 fa3d 	bl	8005644 <TIM_Base_SetConfig>

  /* Initialize the TIM state*/
  htim->State = HAL_TIM_STATE_READY;
 80051ca:	687b      	ldr	r3, [r7, #4]
 80051cc:	2201      	movs	r2, #1
 80051ce:	f883 203d 	strb.w	r2, [r3, #61]	; 0x3d

  return HAL_OK;
 80051d2:	2300      	movs	r3, #0
}
 80051d4:	4618      	mov	r0, r3
 80051d6:	3708      	adds	r7, #8
 80051d8:	46bd      	mov	sp, r7
 80051da:	bd80      	pop	{r7, pc}

080051dc <HAL_TIM_PWM_Start>:
  *            @arg TIM_CHANNEL_3: TIM Channel 3 selected
  *            @arg TIM_CHANNEL_4: TIM Channel 4 selected
  * @retval HAL status
  */
HAL_StatusTypeDef HAL_TIM_PWM_Start(TIM_HandleTypeDef *htim, uint32_t Channel)
{
 80051dc:	b580      	push	{r7, lr}
 80051de:	b084      	sub	sp, #16
 80051e0:	af00      	add	r7, sp, #0
 80051e2:	6078      	str	r0, [r7, #4]
 80051e4:	6039      	str	r1, [r7, #0]

  /* Check the parameters */
  assert_param(IS_TIM_CCX_INSTANCE(htim->Instance, Channel));

  /* Enable the Capture compare channel */
  TIM_CCxChannelCmd(htim->Instance, Channel, TIM_CCx_ENABLE);
 80051e6:	687b      	ldr	r3, [r7, #4]
 80051e8:	681b      	ldr	r3, [r3, #0]
 80051ea:	2201      	movs	r2, #1
 80051ec:	6839      	ldr	r1, [r7, #0]
 80051ee:	4618      	mov	r0, r3
 80051f0:	f000 fc78 	bl	8005ae4 <TIM_CCxChannelCmd>

  if (IS_TIM_BREAK_INSTANCE(htim->Instance) != RESET)
 80051f4:	687b      	ldr	r3, [r7, #4]
 80051f6:	681b      	ldr	r3, [r3, #0]
 80051f8:	4a15      	ldr	r2, [pc, #84]	; (8005250 <HAL_TIM_PWM_Start+0x74>)
 80051fa:	4293      	cmp	r3, r2
 80051fc:	d004      	beq.n	8005208 <HAL_TIM_PWM_Start+0x2c>
 80051fe:	687b      	ldr	r3, [r7, #4]
 8005200:	681b      	ldr	r3, [r3, #0]
 8005202:	4a14      	ldr	r2, [pc, #80]	; (8005254 <HAL_TIM_PWM_Start+0x78>)
 8005204:	4293      	cmp	r3, r2
 8005206:	d101      	bne.n	800520c <HAL_TIM_PWM_Start+0x30>
 8005208:	2301      	movs	r3, #1
 800520a:	e000      	b.n	800520e <HAL_TIM_PWM_Start+0x32>
 800520c:	2300      	movs	r3, #0
 800520e:	2b00      	cmp	r3, #0
 8005210:	d007      	beq.n	8005222 <HAL_TIM_PWM_Start+0x46>
  {
    /* Enable the main output */
    __HAL_TIM_MOE_ENABLE(htim);
 8005212:	687b      	ldr	r3, [r7, #4]
 8005214:	681b      	ldr	r3, [r3, #0]
 8005216:	6c5a      	ldr	r2, [r3, #68]	; 0x44
 8005218:	687b      	ldr	r3, [r7, #4]
 800521a:	681b      	ldr	r3, [r3, #0]
 800521c:	f442 4200 	orr.w	r2, r2, #32768	; 0x8000
 8005220:	645a      	str	r2, [r3, #68]	; 0x44
  }

  /* Enable the Peripheral, except in trigger mode where enable is automatically done with trigger */
  tmpsmcr = htim->Instance->SMCR & TIM_SMCR_SMS;
 8005222:	687b      	ldr	r3, [r7, #4]
 8005224:	681b      	ldr	r3, [r3, #0]
 8005226:	689b      	ldr	r3, [r3, #8]
 8005228:	f003 0307 	and.w	r3, r3, #7
 800522c:	60fb      	str	r3, [r7, #12]
  if (!IS_TIM_SLAVEMODE_TRIGGER_ENABLED(tmpsmcr))
 800522e:	68fb      	ldr	r3, [r7, #12]
 8005230:	2b06      	cmp	r3, #6
 8005232:	d007      	beq.n	8005244 <HAL_TIM_PWM_Start+0x68>
  {
    __HAL_TIM_ENABLE(htim);
 8005234:	687b      	ldr	r3, [r7, #4]
 8005236:	681b      	ldr	r3, [r3, #0]
 8005238:	681a      	ldr	r2, [r3, #0]
 800523a:	687b      	ldr	r3, [r7, #4]
 800523c:	681b      	ldr	r3, [r3, #0]
 800523e:	f042 0201 	orr.w	r2, r2, #1
 8005242:	601a      	str	r2, [r3, #0]
  }

  /* Return function status */
  return HAL_OK;
 8005244:	2300      	movs	r3, #0
}
 8005246:	4618      	mov	r0, r3
 8005248:	3710      	adds	r7, #16
 800524a:	46bd      	mov	sp, r7
 800524c:	bd80      	pop	{r7, pc}
 800524e:	bf00      	nop
 8005250:	40010000 	.word	0x40010000
 8005254:	40010400 	.word	0x40010400

08005258 <HAL_TIM_IRQHandler>:
  * @brief  This function handles TIM interrupts requests.
  * @param  htim TIM  handle
  * @retval None
  */
void HAL_TIM_IRQHandler(TIM_HandleTypeDef *htim)
{
 8005258:	b580      	push	{r7, lr}
 800525a:	b082      	sub	sp, #8
 800525c:	af00      	add	r7, sp, #0
 800525e:	6078      	str	r0, [r7, #4]
  /* Capture compare 1 event */
  if (__HAL_TIM_GET_FLAG(htim, TIM_FLAG_CC1) != RESET)
 8005260:	687b      	ldr	r3, [r7, #4]
 8005262:	681b      	ldr	r3, [r3, #0]
 8005264:	691b      	ldr	r3, [r3, #16]
 8005266:	f003 0302 	and.w	r3, r3, #2
 800526a:	2b02      	cmp	r3, #2
 800526c:	d122      	bne.n	80052b4 <HAL_TIM_IRQHandler+0x5c>
  {
    if (__HAL_TIM_GET_IT_SOURCE(htim, TIM_IT_CC1) != RESET)
 800526e:	687b      	ldr	r3, [r7, #4]
 8005270:	681b      	ldr	r3, [r3, #0]
 8005272:	68db      	ldr	r3, [r3, #12]
 8005274:	f003 0302 	and.w	r3, r3, #2
 8005278:	2b02      	cmp	r3, #2
 800527a:	d11b      	bne.n	80052b4 <HAL_TIM_IRQHandler+0x5c>
    {
      {
        __HAL_TIM_CLEAR_IT(htim, TIM_IT_CC1);
 800527c:	687b      	ldr	r3, [r7, #4]
 800527e:	681b      	ldr	r3, [r3, #0]
 8005280:	f06f 0202 	mvn.w	r2, #2
 8005284:	611a      	str	r2, [r3, #16]
        htim->Channel = HAL_TIM_ACTIVE_CHANNEL_1;
 8005286:	687b      	ldr	r3, [r7, #4]
 8005288:	2201      	movs	r2, #1
 800528a:	771a      	strb	r2, [r3, #28]

        /* Input capture event */
        if ((htim->Instance->CCMR1 & TIM_CCMR1_CC1S) != 0x00U)
 800528c:	687b      	ldr	r3, [r7, #4]
 800528e:	681b      	ldr	r3, [r3, #0]
 8005290:	699b      	ldr	r3, [r3, #24]
 8005292:	f003 0303 	and.w	r3, r3, #3
 8005296:	2b00      	cmp	r3, #0
 8005298:	d003      	beq.n	80052a2 <HAL_TIM_IRQHandler+0x4a>
        {
#if (USE_HAL_TIM_REGISTER_CALLBACKS == 1)
          htim->IC_CaptureCallback(htim);
#else
          HAL_TIM_IC_CaptureCallback(htim);
 800529a:	6878      	ldr	r0, [r7, #4]
 800529c:	f000 f9b4 	bl	8005608 <HAL_TIM_IC_CaptureCallback>
 80052a0:	e005      	b.n	80052ae <HAL_TIM_IRQHandler+0x56>
        {
#if (USE_HAL_TIM_REGISTER_CALLBACKS == 1)
          htim->OC_DelayElapsedCallback(htim);
          htim->PWM_PulseFinishedCallback(htim);
#else
          HAL_TIM_OC_DelayElapsedCallback(htim);
 80052a2:	6878      	ldr	r0, [r7, #4]
 80052a4:	f000 f9a6 	bl	80055f4 <HAL_TIM_OC_DelayElapsedCallback>
          HAL_TIM_PWM_PulseFinishedCallback(htim);
 80052a8:	6878      	ldr	r0, [r7, #4]
 80052aa:	f000 f9b7 	bl	800561c <HAL_TIM_PWM_PulseFinishedCallback>
#endif /* USE_HAL_TIM_REGISTER_CALLBACKS */
        }
        htim->Channel = HAL_TIM_ACTIVE_CHANNEL_CLEARED;
 80052ae:	687b      	ldr	r3, [r7, #4]
 80052b0:	2200      	movs	r2, #0
 80052b2:	771a      	strb	r2, [r3, #28]
      }
    }
  }
  /* Capture compare 2 event */
  if (__HAL_TIM_GET_FLAG(htim, TIM_FLAG_CC2) != RESET)
 80052b4:	687b      	ldr	r3, [r7, #4]
 80052b6:	681b      	ldr	r3, [r3, #0]
 80052b8:	691b      	ldr	r3, [r3, #16]
 80052ba:	f003 0304 	and.w	r3, r3, #4
 80052be:	2b04      	cmp	r3, #4
 80052c0:	d122      	bne.n	8005308 <HAL_TIM_IRQHandler+0xb0>
  {
    if (__HAL_TIM_GET_IT_SOURCE(htim, TIM_IT_CC2) != RESET)
 80052c2:	687b      	ldr	r3, [r7, #4]
 80052c4:	681b      	ldr	r3, [r3, #0]
 80052c6:	68db      	ldr	r3, [r3, #12]
 80052c8:	f003 0304 	and.w	r3, r3, #4
 80052cc:	2b04      	cmp	r3, #4
 80052ce:	d11b      	bne.n	8005308 <HAL_TIM_IRQHandler+0xb0>
    {
      __HAL_TIM_CLEAR_IT(htim, TIM_IT_CC2);
 80052d0:	687b      	ldr	r3, [r7, #4]
 80052d2:	681b      	ldr	r3, [r3, #0]
 80052d4:	f06f 0204 	mvn.w	r2, #4
 80052d8:	611a      	str	r2, [r3, #16]
      htim->Channel = HAL_TIM_ACTIVE_CHANNEL_2;
 80052da:	687b      	ldr	r3, [r7, #4]
 80052dc:	2202      	movs	r2, #2
 80052de:	771a      	strb	r2, [r3, #28]
      /* Input capture event */
      if ((htim->Instance->CCMR1 & TIM_CCMR1_CC2S) != 0x00U)
 80052e0:	687b      	ldr	r3, [r7, #4]
 80052e2:	681b      	ldr	r3, [r3, #0]
 80052e4:	699b      	ldr	r3, [r3, #24]
 80052e6:	f403 7340 	and.w	r3, r3, #768	; 0x300
 80052ea:	2b00      	cmp	r3, #0
 80052ec:	d003      	beq.n	80052f6 <HAL_TIM_IRQHandler+0x9e>
      {
#if (USE_HAL_TIM_REGISTER_CALLBACKS == 1)
        htim->IC_CaptureCallback(htim);
#else
        HAL_TIM_IC_CaptureCallback(htim);
 80052ee:	6878      	ldr	r0, [r7, #4]
 80052f0:	f000 f98a 	bl	8005608 <HAL_TIM_IC_CaptureCallback>
 80052f4:	e005      	b.n	8005302 <HAL_TIM_IRQHandler+0xaa>
      {
#if (USE_HAL_TIM_REGISTER_CALLBACKS == 1)
        htim->OC_DelayElapsedCallback(htim);
        htim->PWM_PulseFinishedCallback(htim);
#else
        HAL_TIM_OC_DelayElapsedCallback(htim);
 80052f6:	6878      	ldr	r0, [r7, #4]
 80052f8:	f000 f97c 	bl	80055f4 <HAL_TIM_OC_DelayElapsedCallback>
        HAL_TIM_PWM_PulseFinishedCallback(htim);
 80052fc:	6878      	ldr	r0, [r7, #4]
 80052fe:	f000 f98d 	bl	800561c <HAL_TIM_PWM_PulseFinishedCallback>
#endif /* USE_HAL_TIM_REGISTER_CALLBACKS */
      }
      htim->Channel = HAL_TIM_ACTIVE_CHANNEL_CLEARED;
 8005302:	687b      	ldr	r3, [r7, #4]
 8005304:	2200      	movs	r2, #0
 8005306:	771a      	strb	r2, [r3, #28]
    }
  }
  /* Capture compare 3 event */
  if (__HAL_TIM_GET_FLAG(htim, TIM_FLAG_CC3) != RESET)
 8005308:	687b      	ldr	r3, [r7, #4]
 800530a:	681b      	ldr	r3, [r3, #0]
 800530c:	691b      	ldr	r3, [r3, #16]
 800530e:	f003 0308 	and.w	r3, r3, #8
 8005312:	2b08      	cmp	r3, #8
 8005314:	d122      	bne.n	800535c <HAL_TIM_IRQHandler+0x104>
  {
    if (__HAL_TIM_GET_IT_SOURCE(htim, TIM_IT_CC3) != RESET)
 8005316:	687b      	ldr	r3, [r7, #4]
 8005318:	681b      	ldr	r3, [r3, #0]
 800531a:	68db      	ldr	r3, [r3, #12]
 800531c:	f003 0308 	and.w	r3, r3, #8
 8005320:	2b08      	cmp	r3, #8
 8005322:	d11b      	bne.n	800535c <HAL_TIM_IRQHandler+0x104>
    {
      __HAL_TIM_CLEAR_IT(htim, TIM_IT_CC3);
 8005324:	687b      	ldr	r3, [r7, #4]
 8005326:	681b      	ldr	r3, [r3, #0]
 8005328:	f06f 0208 	mvn.w	r2, #8
 800532c:	611a      	str	r2, [r3, #16]
      htim->Channel = HAL_TIM_ACTIVE_CHANNEL_3;
 800532e:	687b      	ldr	r3, [r7, #4]
 8005330:	2204      	movs	r2, #4
 8005332:	771a      	strb	r2, [r3, #28]
      /* Input capture event */
      if ((htim->Instance->CCMR2 & TIM_CCMR2_CC3S) != 0x00U)
 8005334:	687b      	ldr	r3, [r7, #4]
 8005336:	681b      	ldr	r3, [r3, #0]
 8005338:	69db      	ldr	r3, [r3, #28]
 800533a:	f003 0303 	and.w	r3, r3, #3
 800533e:	2b00      	cmp	r3, #0
 8005340:	d003      	beq.n	800534a <HAL_TIM_IRQHandler+0xf2>
      {
#if (USE_HAL_TIM_REGISTER_CALLBACKS == 1)
        htim->IC_CaptureCallback(htim);
#else
        HAL_TIM_IC_CaptureCallback(htim);
 8005342:	6878      	ldr	r0, [r7, #4]
 8005344:	f000 f960 	bl	8005608 <HAL_TIM_IC_CaptureCallback>
 8005348:	e005      	b.n	8005356 <HAL_TIM_IRQHandler+0xfe>
      {
#if (USE_HAL_TIM_REGISTER_CALLBACKS == 1)
        htim->OC_DelayElapsedCallback(htim);
        htim->PWM_PulseFinishedCallback(htim);
#else
        HAL_TIM_OC_DelayElapsedCallback(htim);
 800534a:	6878      	ldr	r0, [r7, #4]
 800534c:	f000 f952 	bl	80055f4 <HAL_TIM_OC_DelayElapsedCallback>
        HAL_TIM_PWM_PulseFinishedCallback(htim);
 8005350:	6878      	ldr	r0, [r7, #4]
 8005352:	f000 f963 	bl	800561c <HAL_TIM_PWM_PulseFinishedCallback>
#endif /* USE_HAL_TIM_REGISTER_CALLBACKS */
      }
      htim->Channel = HAL_TIM_ACTIVE_CHANNEL_CLEARED;
 8005356:	687b      	ldr	r3, [r7, #4]
 8005358:	2200      	movs	r2, #0
 800535a:	771a      	strb	r2, [r3, #28]
    }
  }
  /* Capture compare 4 event */
  if (__HAL_TIM_GET_FLAG(htim, TIM_FLAG_CC4) != RESET)
 800535c:	687b      	ldr	r3, [r7, #4]
 800535e:	681b      	ldr	r3, [r3, #0]
 8005360:	691b      	ldr	r3, [r3, #16]
 8005362:	f003 0310 	and.w	r3, r3, #16
 8005366:	2b10      	cmp	r3, #16
 8005368:	d122      	bne.n	80053b0 <HAL_TIM_IRQHandler+0x158>
  {
    if (__HAL_TIM_GET_IT_SOURCE(htim, TIM_IT_CC4) != RESET)
 800536a:	687b      	ldr	r3, [r7, #4]
 800536c:	681b      	ldr	r3, [r3, #0]
 800536e:	68db      	ldr	r3, [r3, #12]
 8005370:	f003 0310 	and.w	r3, r3, #16
 8005374:	2b10      	cmp	r3, #16
 8005376:	d11b      	bne.n	80053b0 <HAL_TIM_IRQHandler+0x158>
    {
      __HAL_TIM_CLEAR_IT(htim, TIM_IT_CC4);
 8005378:	687b      	ldr	r3, [r7, #4]
 800537a:	681b      	ldr	r3, [r3, #0]
 800537c:	f06f 0210 	mvn.w	r2, #16
 8005380:	611a      	str	r2, [r3, #16]
      htim->Channel = HAL_TIM_ACTIVE_CHANNEL_4;
 8005382:	687b      	ldr	r3, [r7, #4]
 8005384:	2208      	movs	r2, #8
 8005386:	771a      	strb	r2, [r3, #28]
      /* Input capture event */
      if ((htim->Instance->CCMR2 & TIM_CCMR2_CC4S) != 0x00U)
 8005388:	687b      	ldr	r3, [r7, #4]
 800538a:	681b      	ldr	r3, [r3, #0]
 800538c:	69db      	ldr	r3, [r3, #28]
 800538e:	f403 7340 	and.w	r3, r3, #768	; 0x300
 8005392:	2b00      	cmp	r3, #0
 8005394:	d003      	beq.n	800539e <HAL_TIM_IRQHandler+0x146>
      {
#if (USE_HAL_TIM_REGISTER_CALLBACKS == 1)
        htim->IC_CaptureCallback(htim);
#else
        HAL_TIM_IC_CaptureCallback(htim);
 8005396:	6878      	ldr	r0, [r7, #4]
 8005398:	f000 f936 	bl	8005608 <HAL_TIM_IC_CaptureCallback>
 800539c:	e005      	b.n	80053aa <HAL_TIM_IRQHandler+0x152>
      {
#if (USE_HAL_TIM_REGISTER_CALLBACKS == 1)
        htim->OC_DelayElapsedCallback(htim);
        htim->PWM_PulseFinishedCallback(htim);
#else
        HAL_TIM_OC_DelayElapsedCallback(htim);
 800539e:	6878      	ldr	r0, [r7, #4]
 80053a0:	f000 f928 	bl	80055f4 <HAL_TIM_OC_DelayElapsedCallback>
        HAL_TIM_PWM_PulseFinishedCallback(htim);
 80053a4:	6878      	ldr	r0, [r7, #4]
 80053a6:	f000 f939 	bl	800561c <HAL_TIM_PWM_PulseFinishedCallback>
#endif /* USE_HAL_TIM_REGISTER_CALLBACKS */
      }
      htim->Channel = HAL_TIM_ACTIVE_CHANNEL_CLEARED;
 80053aa:	687b      	ldr	r3, [r7, #4]
 80053ac:	2200      	movs	r2, #0
 80053ae:	771a      	strb	r2, [r3, #28]
    }
  }
  /* TIM Update event */
  if (__HAL_TIM_GET_FLAG(htim, TIM_FLAG_UPDATE) != RESET)
 80053b0:	687b      	ldr	r3, [r7, #4]
 80053b2:	681b      	ldr	r3, [r3, #0]
 80053b4:	691b      	ldr	r3, [r3, #16]
 80053b6:	f003 0301 	and.w	r3, r3, #1
 80053ba:	2b01      	cmp	r3, #1
 80053bc:	d10e      	bne.n	80053dc <HAL_TIM_IRQHandler+0x184>
  {
    if (__HAL_TIM_GET_IT_SOURCE(htim, TIM_IT_UPDATE) != RESET)
 80053be:	687b      	ldr	r3, [r7, #4]
 80053c0:	681b      	ldr	r3, [r3, #0]
 80053c2:	68db      	ldr	r3, [r3, #12]
 80053c4:	f003 0301 	and.w	r3, r3, #1
 80053c8:	2b01      	cmp	r3, #1
 80053ca:	d107      	bne.n	80053dc <HAL_TIM_IRQHandler+0x184>
    {
      __HAL_TIM_CLEAR_IT(htim, TIM_IT_UPDATE);
 80053cc:	687b      	ldr	r3, [r7, #4]
 80053ce:	681b      	ldr	r3, [r3, #0]
 80053d0:	f06f 0201 	mvn.w	r2, #1
 80053d4:	611a      	str	r2, [r3, #16]
#if (USE_HAL_TIM_REGISTER_CALLBACKS == 1)
      htim->PeriodElapsedCallback(htim);
#else
      HAL_TIM_PeriodElapsedCallback(htim);
 80053d6:	6878      	ldr	r0, [r7, #4]
 80053d8:	f7fd fb0c 	bl	80029f4 <HAL_TIM_PeriodElapsedCallback>
#endif /* USE_HAL_TIM_REGISTER_CALLBACKS */
    }
  }
  /* TIM Break input event */
  if (__HAL_TIM_GET_FLAG(htim, TIM_FLAG_BREAK) != RESET)
 80053dc:	687b      	ldr	r3, [r7, #4]
 80053de:	681b      	ldr	r3, [r3, #0]
 80053e0:	691b      	ldr	r3, [r3, #16]
 80053e2:	f003 0380 	and.w	r3, r3, #128	; 0x80
 80053e6:	2b80      	cmp	r3, #128	; 0x80
 80053e8:	d10e      	bne.n	8005408 <HAL_TIM_IRQHandler+0x1b0>
  {
    if (__HAL_TIM_GET_IT_SOURCE(htim, TIM_IT_BREAK) != RESET)
 80053ea:	687b      	ldr	r3, [r7, #4]
 80053ec:	681b      	ldr	r3, [r3, #0]
 80053ee:	68db      	ldr	r3, [r3, #12]
 80053f0:	f003 0380 	and.w	r3, r3, #128	; 0x80
 80053f4:	2b80      	cmp	r3, #128	; 0x80
 80053f6:	d107      	bne.n	8005408 <HAL_TIM_IRQHandler+0x1b0>
    {
      __HAL_TIM_CLEAR_IT(htim, TIM_IT_BREAK);
 80053f8:	687b      	ldr	r3, [r7, #4]
 80053fa:	681b      	ldr	r3, [r3, #0]
 80053fc:	f06f 0280 	mvn.w	r2, #128	; 0x80
 8005400:	611a      	str	r2, [r3, #16]
#if (USE_HAL_TIM_REGISTER_CALLBACKS == 1)
      htim->BreakCallback(htim);
#else
      HAL_TIMEx_BreakCallback(htim);
 8005402:	6878      	ldr	r0, [r7, #4]
 8005404:	f000 fc1a 	bl	8005c3c <HAL_TIMEx_BreakCallback>
#endif /* USE_HAL_TIM_REGISTER_CALLBACKS */
    }
  }
  /* TIM Trigger detection event */
  if (__HAL_TIM_GET_FLAG(htim, TIM_FLAG_TRIGGER) != RESET)
 8005408:	687b      	ldr	r3, [r7, #4]
 800540a:	681b      	ldr	r3, [r3, #0]
 800540c:	691b      	ldr	r3, [r3, #16]
 800540e:	f003 0340 	and.w	r3, r3, #64	; 0x40
 8005412:	2b40      	cmp	r3, #64	; 0x40
 8005414:	d10e      	bne.n	8005434 <HAL_TIM_IRQHandler+0x1dc>
  {
    if (__HAL_TIM_GET_IT_SOURCE(htim, TIM_IT_TRIGGER) != RESET)
 8005416:	687b      	ldr	r3, [r7, #4]
 8005418:	681b      	ldr	r3, [r3, #0]
 800541a:	68db      	ldr	r3, [r3, #12]
 800541c:	f003 0340 	and.w	r3, r3, #64	; 0x40
 8005420:	2b40      	cmp	r3, #64	; 0x40
 8005422:	d107      	bne.n	8005434 <HAL_TIM_IRQHandler+0x1dc>
    {
      __HAL_TIM_CLEAR_IT(htim, TIM_IT_TRIGGER);
 8005424:	687b      	ldr	r3, [r7, #4]
 8005426:	681b      	ldr	r3, [r3, #0]
 8005428:	f06f 0240 	mvn.w	r2, #64	; 0x40
 800542c:	611a      	str	r2, [r3, #16]
#if (USE_HAL_TIM_REGISTER_CALLBACKS == 1)
      htim->TriggerCallback(htim);
#else
      HAL_TIM_TriggerCallback(htim);
 800542e:	6878      	ldr	r0, [r7, #4]
 8005430:	f000 f8fe 	bl	8005630 <HAL_TIM_TriggerCallback>
#endif /* USE_HAL_TIM_REGISTER_CALLBACKS */
    }
  }
  /* TIM commutation event */
  if (__HAL_TIM_GET_FLAG(htim, TIM_FLAG_COM) != RESET)
 8005434:	687b      	ldr	r3, [r7, #4]
 8005436:	681b      	ldr	r3, [r3, #0]
 8005438:	691b      	ldr	r3, [r3, #16]
 800543a:	f003 0320 	and.w	r3, r3, #32
 800543e:	2b20      	cmp	r3, #32
 8005440:	d10e      	bne.n	8005460 <HAL_TIM_IRQHandler+0x208>
  {
    if (__HAL_TIM_GET_IT_SOURCE(htim, TIM_IT_COM) != RESET)
 8005442:	687b      	ldr	r3, [r7, #4]
 8005444:	681b      	ldr	r3, [r3, #0]
 8005446:	68db      	ldr	r3, [r3, #12]
 8005448:	f003 0320 	and.w	r3, r3, #32
 800544c:	2b20      	cmp	r3, #32
 800544e:	d107      	bne.n	8005460 <HAL_TIM_IRQHandler+0x208>
    {
      __HAL_TIM_CLEAR_IT(htim, TIM_FLAG_COM);
 8005450:	687b      	ldr	r3, [r7, #4]
 8005452:	681b      	ldr	r3, [r3, #0]
 8005454:	f06f 0220 	mvn.w	r2, #32
 8005458:	611a      	str	r2, [r3, #16]
#if (USE_HAL_TIM_REGISTER_CALLBACKS == 1)
      htim->CommutationCallback(htim);
#else
      HAL_TIMEx_CommutCallback(htim);
 800545a:	6878      	ldr	r0, [r7, #4]
 800545c:	f000 fbe4 	bl	8005c28 <HAL_TIMEx_CommutCallback>
#endif /* USE_HAL_TIM_REGISTER_CALLBACKS */
    }
  }
}
 8005460:	bf00      	nop
 8005462:	3708      	adds	r7, #8
 8005464:	46bd      	mov	sp, r7
 8005466:	bd80      	pop	{r7, pc}

08005468 <HAL_TIM_PWM_ConfigChannel>:
  * @retval HAL status
  */
HAL_StatusTypeDef HAL_TIM_PWM_ConfigChannel(TIM_HandleTypeDef *htim,
                                            TIM_OC_InitTypeDef *sConfig,
                                            uint32_t Channel)
{
 8005468:	b580      	push	{r7, lr}
 800546a:	b084      	sub	sp, #16
 800546c:	af00      	add	r7, sp, #0
 800546e:	60f8      	str	r0, [r7, #12]
 8005470:	60b9      	str	r1, [r7, #8]
 8005472:	607a      	str	r2, [r7, #4]
  assert_param(IS_TIM_PWM_MODE(sConfig->OCMode));
  assert_param(IS_TIM_OC_POLARITY(sConfig->OCPolarity));
  assert_param(IS_TIM_FAST_STATE(sConfig->OCFastMode));

  /* Process Locked */
  __HAL_LOCK(htim);
 8005474:	68fb      	ldr	r3, [r7, #12]
 8005476:	f893 303c 	ldrb.w	r3, [r3, #60]	; 0x3c
 800547a:	2b01      	cmp	r3, #1
 800547c:	d101      	bne.n	8005482 <HAL_TIM_PWM_ConfigChannel+0x1a>
 800547e:	2302      	movs	r3, #2
 8005480:	e0b4      	b.n	80055ec <HAL_TIM_PWM_ConfigChannel+0x184>
 8005482:	68fb      	ldr	r3, [r7, #12]
 8005484:	2201      	movs	r2, #1
 8005486:	f883 203c 	strb.w	r2, [r3, #60]	; 0x3c

  htim->State = HAL_TIM_STATE_BUSY;
 800548a:	68fb      	ldr	r3, [r7, #12]
 800548c:	2202      	movs	r2, #2
 800548e:	f883 203d 	strb.w	r2, [r3, #61]	; 0x3d

  switch (Channel)
 8005492:	687b      	ldr	r3, [r7, #4]
 8005494:	2b0c      	cmp	r3, #12
 8005496:	f200 809f 	bhi.w	80055d8 <HAL_TIM_PWM_ConfigChannel+0x170>
 800549a:	a201      	add	r2, pc, #4	; (adr r2, 80054a0 <HAL_TIM_PWM_ConfigChannel+0x38>)
 800549c:	f852 f023 	ldr.w	pc, [r2, r3, lsl #2]
 80054a0:	080054d5 	.word	0x080054d5
 80054a4:	080055d9 	.word	0x080055d9
 80054a8:	080055d9 	.word	0x080055d9
 80054ac:	080055d9 	.word	0x080055d9
 80054b0:	08005515 	.word	0x08005515
 80054b4:	080055d9 	.word	0x080055d9
 80054b8:	080055d9 	.word	0x080055d9
 80054bc:	080055d9 	.word	0x080055d9
 80054c0:	08005557 	.word	0x08005557
 80054c4:	080055d9 	.word	0x080055d9
 80054c8:	080055d9 	.word	0x080055d9
 80054cc:	080055d9 	.word	0x080055d9
 80054d0:	08005597 	.word	0x08005597
    {
      /* Check the parameters */
      assert_param(IS_TIM_CC1_INSTANCE(htim->Instance));

      /* Configure the Channel 1 in PWM mode */
      TIM_OC1_SetConfig(htim->Instance, sConfig);
 80054d4:	68fb      	ldr	r3, [r7, #12]
 80054d6:	681b      	ldr	r3, [r3, #0]
 80054d8:	68b9      	ldr	r1, [r7, #8]
 80054da:	4618      	mov	r0, r3
 80054dc:	f000 f952 	bl	8005784 <TIM_OC1_SetConfig>

      /* Set the Preload enable bit for channel1 */
      htim->Instance->CCMR1 |= TIM_CCMR1_OC1PE;
 80054e0:	68fb      	ldr	r3, [r7, #12]
 80054e2:	681b      	ldr	r3, [r3, #0]
 80054e4:	699a      	ldr	r2, [r3, #24]
 80054e6:	68fb      	ldr	r3, [r7, #12]
 80054e8:	681b      	ldr	r3, [r3, #0]
 80054ea:	f042 0208 	orr.w	r2, r2, #8
 80054ee:	619a      	str	r2, [r3, #24]

      /* Configure the Output Fast mode */
      htim->Instance->CCMR1 &= ~TIM_CCMR1_OC1FE;
 80054f0:	68fb      	ldr	r3, [r7, #12]
 80054f2:	681b      	ldr	r3, [r3, #0]
 80054f4:	699a      	ldr	r2, [r3, #24]
 80054f6:	68fb      	ldr	r3, [r7, #12]
 80054f8:	681b      	ldr	r3, [r3, #0]
 80054fa:	f022 0204 	bic.w	r2, r2, #4
 80054fe:	619a      	str	r2, [r3, #24]
      htim->Instance->CCMR1 |= sConfig->OCFastMode;
 8005500:	68fb      	ldr	r3, [r7, #12]
 8005502:	681b      	ldr	r3, [r3, #0]
 8005504:	6999      	ldr	r1, [r3, #24]
 8005506:	68bb      	ldr	r3, [r7, #8]
 8005508:	691a      	ldr	r2, [r3, #16]
 800550a:	68fb      	ldr	r3, [r7, #12]
 800550c:	681b      	ldr	r3, [r3, #0]
 800550e:	430a      	orrs	r2, r1
 8005510:	619a      	str	r2, [r3, #24]
      break;
 8005512:	e062      	b.n	80055da <HAL_TIM_PWM_ConfigChannel+0x172>
    {
      /* Check the parameters */
      assert_param(IS_TIM_CC2_INSTANCE(htim->Instance));

      /* Configure the Channel 2 in PWM mode */
      TIM_OC2_SetConfig(htim->Instance, sConfig);
 8005514:	68fb      	ldr	r3, [r7, #12]
 8005516:	681b      	ldr	r3, [r3, #0]
 8005518:	68b9      	ldr	r1, [r7, #8]
 800551a:	4618      	mov	r0, r3
 800551c:	f000 f9a2 	bl	8005864 <TIM_OC2_SetConfig>

      /* Set the Preload enable bit for channel2 */
      htim->Instance->CCMR1 |= TIM_CCMR1_OC2PE;
 8005520:	68fb      	ldr	r3, [r7, #12]
 8005522:	681b      	ldr	r3, [r3, #0]
 8005524:	699a      	ldr	r2, [r3, #24]
 8005526:	68fb      	ldr	r3, [r7, #12]
 8005528:	681b      	ldr	r3, [r3, #0]
 800552a:	f442 6200 	orr.w	r2, r2, #2048	; 0x800
 800552e:	619a      	str	r2, [r3, #24]

      /* Configure the Output Fast mode */
      htim->Instance->CCMR1 &= ~TIM_CCMR1_OC2FE;
 8005530:	68fb      	ldr	r3, [r7, #12]
 8005532:	681b      	ldr	r3, [r3, #0]
 8005534:	699a      	ldr	r2, [r3, #24]
 8005536:	68fb      	ldr	r3, [r7, #12]
 8005538:	681b      	ldr	r3, [r3, #0]
 800553a:	f422 6280 	bic.w	r2, r2, #1024	; 0x400
 800553e:	619a      	str	r2, [r3, #24]
      htim->Instance->CCMR1 |= sConfig->OCFastMode << 8U;
 8005540:	68fb      	ldr	r3, [r7, #12]
 8005542:	681b      	ldr	r3, [r3, #0]
 8005544:	6999      	ldr	r1, [r3, #24]
 8005546:	68bb      	ldr	r3, [r7, #8]
 8005548:	691b      	ldr	r3, [r3, #16]
 800554a:	021a      	lsls	r2, r3, #8
 800554c:	68fb      	ldr	r3, [r7, #12]
 800554e:	681b      	ldr	r3, [r3, #0]
 8005550:	430a      	orrs	r2, r1
 8005552:	619a      	str	r2, [r3, #24]
      break;
 8005554:	e041      	b.n	80055da <HAL_TIM_PWM_ConfigChannel+0x172>
    {
      /* Check the parameters */
      assert_param(IS_TIM_CC3_INSTANCE(htim->Instance));

      /* Configure the Channel 3 in PWM mode */
      TIM_OC3_SetConfig(htim->Instance, sConfig);
 8005556:	68fb      	ldr	r3, [r7, #12]
 8005558:	681b      	ldr	r3, [r3, #0]
 800555a:	68b9      	ldr	r1, [r7, #8]
 800555c:	4618      	mov	r0, r3
 800555e:	f000 f9f7 	bl	8005950 <TIM_OC3_SetConfig>

      /* Set the Preload enable bit for channel3 */
      htim->Instance->CCMR2 |= TIM_CCMR2_OC3PE;
 8005562:	68fb      	ldr	r3, [r7, #12]
 8005564:	681b      	ldr	r3, [r3, #0]
 8005566:	69da      	ldr	r2, [r3, #28]
 8005568:	68fb      	ldr	r3, [r7, #12]
 800556a:	681b      	ldr	r3, [r3, #0]
 800556c:	f042 0208 	orr.w	r2, r2, #8
 8005570:	61da      	str	r2, [r3, #28]

      /* Configure the Output Fast mode */
      htim->Instance->CCMR2 &= ~TIM_CCMR2_OC3FE;
 8005572:	68fb      	ldr	r3, [r7, #12]
 8005574:	681b      	ldr	r3, [r3, #0]
 8005576:	69da      	ldr	r2, [r3, #28]
 8005578:	68fb      	ldr	r3, [r7, #12]
 800557a:	681b      	ldr	r3, [r3, #0]
 800557c:	f022 0204 	bic.w	r2, r2, #4
 8005580:	61da      	str	r2, [r3, #28]
      htim->Instance->CCMR2 |= sConfig->OCFastMode;
 8005582:	68fb      	ldr	r3, [r7, #12]
 8005584:	681b      	ldr	r3, [r3, #0]
 8005586:	69d9      	ldr	r1, [r3, #28]
 8005588:	68bb      	ldr	r3, [r7, #8]
 800558a:	691a      	ldr	r2, [r3, #16]
 800558c:	68fb      	ldr	r3, [r7, #12]
 800558e:	681b      	ldr	r3, [r3, #0]
 8005590:	430a      	orrs	r2, r1
 8005592:	61da      	str	r2, [r3, #28]
      break;
 8005594:	e021      	b.n	80055da <HAL_TIM_PWM_ConfigChannel+0x172>
    {
      /* Check the parameters */
      assert_param(IS_TIM_CC4_INSTANCE(htim->Instance));

      /* Configure the Channel 4 in PWM mode */
      TIM_OC4_SetConfig(htim->Instance, sConfig);
 8005596:	68fb      	ldr	r3, [r7, #12]
 8005598:	681b      	ldr	r3, [r3, #0]
 800559a:	68b9      	ldr	r1, [r7, #8]
 800559c:	4618      	mov	r0, r3
 800559e:	f000 fa4b 	bl	8005a38 <TIM_OC4_SetConfig>

      /* Set the Preload enable bit for channel4 */
      htim->Instance->CCMR2 |= TIM_CCMR2_OC4PE;
 80055a2:	68fb      	ldr	r3, [r7, #12]
 80055a4:	681b      	ldr	r3, [r3, #0]
 80055a6:	69da      	ldr	r2, [r3, #28]
 80055a8:	68fb      	ldr	r3, [r7, #12]
 80055aa:	681b      	ldr	r3, [r3, #0]
 80055ac:	f442 6200 	orr.w	r2, r2, #2048	; 0x800
 80055b0:	61da      	str	r2, [r3, #28]

      /* Configure the Output Fast mode */
      htim->Instance->CCMR2 &= ~TIM_CCMR2_OC4FE;
 80055b2:	68fb      	ldr	r3, [r7, #12]
 80055b4:	681b      	ldr	r3, [r3, #0]
 80055b6:	69da      	ldr	r2, [r3, #28]
 80055b8:	68fb      	ldr	r3, [r7, #12]
 80055ba:	681b      	ldr	r3, [r3, #0]
 80055bc:	f422 6280 	bic.w	r2, r2, #1024	; 0x400
 80055c0:	61da      	str	r2, [r3, #28]
      htim->Instance->CCMR2 |= sConfig->OCFastMode << 8U;
 80055c2:	68fb      	ldr	r3, [r7, #12]
 80055c4:	681b      	ldr	r3, [r3, #0]
 80055c6:	69d9      	ldr	r1, [r3, #28]
 80055c8:	68bb      	ldr	r3, [r7, #8]
 80055ca:	691b      	ldr	r3, [r3, #16]
 80055cc:	021a      	lsls	r2, r3, #8
 80055ce:	68fb      	ldr	r3, [r7, #12]
 80055d0:	681b      	ldr	r3, [r3, #0]
 80055d2:	430a      	orrs	r2, r1
 80055d4:	61da      	str	r2, [r3, #28]
      break;
 80055d6:	e000      	b.n	80055da <HAL_TIM_PWM_ConfigChannel+0x172>
    }

    default:
      break;
 80055d8:	bf00      	nop
  }

  htim->State = HAL_TIM_STATE_READY;
 80055da:	68fb      	ldr	r3, [r7, #12]
 80055dc:	2201      	movs	r2, #1
 80055de:	f883 203d 	strb.w	r2, [r3, #61]	; 0x3d

  __HAL_UNLOCK(htim);
 80055e2:	68fb      	ldr	r3, [r7, #12]
 80055e4:	2200      	movs	r2, #0
 80055e6:	f883 203c 	strb.w	r2, [r3, #60]	; 0x3c

  return HAL_OK;
 80055ea:	2300      	movs	r3, #0
}
 80055ec:	4618      	mov	r0, r3
 80055ee:	3710      	adds	r7, #16
 80055f0:	46bd      	mov	sp, r7
 80055f2:	bd80      	pop	{r7, pc}

080055f4 <HAL_TIM_OC_DelayElapsedCallback>:
  * @brief  Output Compare callback in non-blocking mode
  * @param  htim TIM OC handle
  * @retval None
  */
__weak void HAL_TIM_OC_DelayElapsedCallback(TIM_HandleTypeDef *htim)
{
 80055f4:	b480      	push	{r7}
 80055f6:	b083      	sub	sp, #12
 80055f8:	af00      	add	r7, sp, #0
 80055fa:	6078      	str	r0, [r7, #4]
  UNUSED(htim);

  /* NOTE : This function should not be modified, when the callback is needed,
            the HAL_TIM_OC_DelayElapsedCallback could be implemented in the user file
   */
}
 80055fc:	bf00      	nop
 80055fe:	370c      	adds	r7, #12
 8005600:	46bd      	mov	sp, r7
 8005602:	f85d 7b04 	ldr.w	r7, [sp], #4
 8005606:	4770      	bx	lr

08005608 <HAL_TIM_IC_CaptureCallback>:
  * @brief  Input Capture callback in non-blocking mode
  * @param  htim TIM IC handle
  * @retval None
  */
__weak void HAL_TIM_IC_CaptureCallback(TIM_HandleTypeDef *htim)
{
 8005608:	b480      	push	{r7}
 800560a:	b083      	sub	sp, #12
 800560c:	af00      	add	r7, sp, #0
 800560e:	6078      	str	r0, [r7, #4]
  UNUSED(htim);

  /* NOTE : This function should not be modified, when the callback is needed,
            the HAL_TIM_IC_CaptureCallback could be implemented in the user file
   */
}
 8005610:	bf00      	nop
 8005612:	370c      	adds	r7, #12
 8005614:	46bd      	mov	sp, r7
 8005616:	f85d 7b04 	ldr.w	r7, [sp], #4
 800561a:	4770      	bx	lr

0800561c <HAL_TIM_PWM_PulseFinishedCallback>:
  * @brief  PWM Pulse finished callback in non-blocking mode
  * @param  htim TIM handle
  * @retval None
  */
__weak void HAL_TIM_PWM_PulseFinishedCallback(TIM_HandleTypeDef *htim)
{
 800561c:	b480      	push	{r7}
 800561e:	b083      	sub	sp, #12
 8005620:	af00      	add	r7, sp, #0
 8005622:	6078      	str	r0, [r7, #4]
  UNUSED(htim);

  /* NOTE : This function should not be modified, when the callback is needed,
            the HAL_TIM_PWM_PulseFinishedCallback could be implemented in the user file
   */
}
 8005624:	bf00      	nop
 8005626:	370c      	adds	r7, #12
 8005628:	46bd      	mov	sp, r7
 800562a:	f85d 7b04 	ldr.w	r7, [sp], #4
 800562e:	4770      	bx	lr

08005630 <HAL_TIM_TriggerCallback>:
  * @brief  Hall Trigger detection callback in non-blocking mode
  * @param  htim TIM handle
  * @retval None
  */
__weak void HAL_TIM_TriggerCallback(TIM_HandleTypeDef *htim)
{
 8005630:	b480      	push	{r7}
 8005632:	b083      	sub	sp, #12
 8005634:	af00      	add	r7, sp, #0
 8005636:	6078      	str	r0, [r7, #4]
  UNUSED(htim);

  /* NOTE : This function should not be modified, when the callback is needed,
            the HAL_TIM_TriggerCallback could be implemented in the user file
   */
}
 8005638:	bf00      	nop
 800563a:	370c      	adds	r7, #12
 800563c:	46bd      	mov	sp, r7
 800563e:	f85d 7b04 	ldr.w	r7, [sp], #4
 8005642:	4770      	bx	lr

08005644 <TIM_Base_SetConfig>:
  * @param  TIMx TIM peripheral
  * @param  Structure TIM Base configuration structure
  * @retval None
  */
void TIM_Base_SetConfig(TIM_TypeDef *TIMx, TIM_Base_InitTypeDef *Structure)
{
 8005644:	b480      	push	{r7}
 8005646:	b085      	sub	sp, #20
 8005648:	af00      	add	r7, sp, #0
 800564a:	6078      	str	r0, [r7, #4]
 800564c:	6039      	str	r1, [r7, #0]
  uint32_t tmpcr1;
  tmpcr1 = TIMx->CR1;
 800564e:	687b      	ldr	r3, [r7, #4]
 8005650:	681b      	ldr	r3, [r3, #0]
 8005652:	60fb      	str	r3, [r7, #12]

  /* Set TIM Time Base Unit parameters ---------------------------------------*/
  if (IS_TIM_COUNTER_MODE_SELECT_INSTANCE(TIMx))
 8005654:	687b      	ldr	r3, [r7, #4]
 8005656:	4a40      	ldr	r2, [pc, #256]	; (8005758 <TIM_Base_SetConfig+0x114>)
 8005658:	4293      	cmp	r3, r2
 800565a:	d013      	beq.n	8005684 <TIM_Base_SetConfig+0x40>
 800565c:	687b      	ldr	r3, [r7, #4]
 800565e:	f1b3 4f80 	cmp.w	r3, #1073741824	; 0x40000000
 8005662:	d00f      	beq.n	8005684 <TIM_Base_SetConfig+0x40>
 8005664:	687b      	ldr	r3, [r7, #4]
 8005666:	4a3d      	ldr	r2, [pc, #244]	; (800575c <TIM_Base_SetConfig+0x118>)
 8005668:	4293      	cmp	r3, r2
 800566a:	d00b      	beq.n	8005684 <TIM_Base_SetConfig+0x40>
 800566c:	687b      	ldr	r3, [r7, #4]
 800566e:	4a3c      	ldr	r2, [pc, #240]	; (8005760 <TIM_Base_SetConfig+0x11c>)
 8005670:	4293      	cmp	r3, r2
 8005672:	d007      	beq.n	8005684 <TIM_Base_SetConfig+0x40>
 8005674:	687b      	ldr	r3, [r7, #4]
 8005676:	4a3b      	ldr	r2, [pc, #236]	; (8005764 <TIM_Base_SetConfig+0x120>)
 8005678:	4293      	cmp	r3, r2
 800567a:	d003      	beq.n	8005684 <TIM_Base_SetConfig+0x40>
 800567c:	687b      	ldr	r3, [r7, #4]
 800567e:	4a3a      	ldr	r2, [pc, #232]	; (8005768 <TIM_Base_SetConfig+0x124>)
 8005680:	4293      	cmp	r3, r2
 8005682:	d108      	bne.n	8005696 <TIM_Base_SetConfig+0x52>
  {
    /* Select the Counter Mode */
    tmpcr1 &= ~(TIM_CR1_DIR | TIM_CR1_CMS);
 8005684:	68fb      	ldr	r3, [r7, #12]
 8005686:	f023 0370 	bic.w	r3, r3, #112	; 0x70
 800568a:	60fb      	str	r3, [r7, #12]
    tmpcr1 |= Structure->CounterMode;
 800568c:	683b      	ldr	r3, [r7, #0]
 800568e:	685b      	ldr	r3, [r3, #4]
 8005690:	68fa      	ldr	r2, [r7, #12]
 8005692:	4313      	orrs	r3, r2
 8005694:	60fb      	str	r3, [r7, #12]
  }

  if (IS_TIM_CLOCK_DIVISION_INSTANCE(TIMx))
 8005696:	687b      	ldr	r3, [r7, #4]
 8005698:	4a2f      	ldr	r2, [pc, #188]	; (8005758 <TIM_Base_SetConfig+0x114>)
 800569a:	4293      	cmp	r3, r2
 800569c:	d02b      	beq.n	80056f6 <TIM_Base_SetConfig+0xb2>
 800569e:	687b      	ldr	r3, [r7, #4]
 80056a0:	f1b3 4f80 	cmp.w	r3, #1073741824	; 0x40000000
 80056a4:	d027      	beq.n	80056f6 <TIM_Base_SetConfig+0xb2>
 80056a6:	687b      	ldr	r3, [r7, #4]
 80056a8:	4a2c      	ldr	r2, [pc, #176]	; (800575c <TIM_Base_SetConfig+0x118>)
 80056aa:	4293      	cmp	r3, r2
 80056ac:	d023      	beq.n	80056f6 <TIM_Base_SetConfig+0xb2>
 80056ae:	687b      	ldr	r3, [r7, #4]
 80056b0:	4a2b      	ldr	r2, [pc, #172]	; (8005760 <TIM_Base_SetConfig+0x11c>)
 80056b2:	4293      	cmp	r3, r2
 80056b4:	d01f      	beq.n	80056f6 <TIM_Base_SetConfig+0xb2>
 80056b6:	687b      	ldr	r3, [r7, #4]
 80056b8:	4a2a      	ldr	r2, [pc, #168]	; (8005764 <TIM_Base_SetConfig+0x120>)
 80056ba:	4293      	cmp	r3, r2
 80056bc:	d01b      	beq.n	80056f6 <TIM_Base_SetConfig+0xb2>
 80056be:	687b      	ldr	r3, [r7, #4]
 80056c0:	4a29      	ldr	r2, [pc, #164]	; (8005768 <TIM_Base_SetConfig+0x124>)
 80056c2:	4293      	cmp	r3, r2
 80056c4:	d017      	beq.n	80056f6 <TIM_Base_SetConfig+0xb2>
 80056c6:	687b      	ldr	r3, [r7, #4]
 80056c8:	4a28      	ldr	r2, [pc, #160]	; (800576c <TIM_Base_SetConfig+0x128>)
 80056ca:	4293      	cmp	r3, r2
 80056cc:	d013      	beq.n	80056f6 <TIM_Base_SetConfig+0xb2>
 80056ce:	687b      	ldr	r3, [r7, #4]
 80056d0:	4a27      	ldr	r2, [pc, #156]	; (8005770 <TIM_Base_SetConfig+0x12c>)
 80056d2:	4293      	cmp	r3, r2
 80056d4:	d00f      	beq.n	80056f6 <TIM_Base_SetConfig+0xb2>
 80056d6:	687b      	ldr	r3, [r7, #4]
 80056d8:	4a26      	ldr	r2, [pc, #152]	; (8005774 <TIM_Base_SetConfig+0x130>)
 80056da:	4293      	cmp	r3, r2
 80056dc:	d00b      	beq.n	80056f6 <TIM_Base_SetConfig+0xb2>
 80056de:	687b      	ldr	r3, [r7, #4]
 80056e0:	4a25      	ldr	r2, [pc, #148]	; (8005778 <TIM_Base_SetConfig+0x134>)
 80056e2:	4293      	cmp	r3, r2
 80056e4:	d007      	beq.n	80056f6 <TIM_Base_SetConfig+0xb2>
 80056e6:	687b      	ldr	r3, [r7, #4]
 80056e8:	4a24      	ldr	r2, [pc, #144]	; (800577c <TIM_Base_SetConfig+0x138>)
 80056ea:	4293      	cmp	r3, r2
 80056ec:	d003      	beq.n	80056f6 <TIM_Base_SetConfig+0xb2>
 80056ee:	687b      	ldr	r3, [r7, #4]
 80056f0:	4a23      	ldr	r2, [pc, #140]	; (8005780 <TIM_Base_SetConfig+0x13c>)
 80056f2:	4293      	cmp	r3, r2
 80056f4:	d108      	bne.n	8005708 <TIM_Base_SetConfig+0xc4>
  {
    /* Set the clock division */
    tmpcr1 &= ~TIM_CR1_CKD;
 80056f6:	68fb      	ldr	r3, [r7, #12]
 80056f8:	f423 7340 	bic.w	r3, r3, #768	; 0x300
 80056fc:	60fb      	str	r3, [r7, #12]
    tmpcr1 |= (uint32_t)Structure->ClockDivision;
 80056fe:	683b      	ldr	r3, [r7, #0]
 8005700:	68db      	ldr	r3, [r3, #12]
 8005702:	68fa      	ldr	r2, [r7, #12]
 8005704:	4313      	orrs	r3, r2
 8005706:	60fb      	str	r3, [r7, #12]
  }

  /* Set the auto-reload preload */
  MODIFY_REG(tmpcr1, TIM_CR1_ARPE, Structure->AutoReloadPreload);
 8005708:	68fb      	ldr	r3, [r7, #12]
 800570a:	f023 0280 	bic.w	r2, r3, #128	; 0x80
 800570e:	683b      	ldr	r3, [r7, #0]
 8005710:	695b      	ldr	r3, [r3, #20]
 8005712:	4313      	orrs	r3, r2
 8005714:	60fb      	str	r3, [r7, #12]

  TIMx->CR1 = tmpcr1;
 8005716:	687b      	ldr	r3, [r7, #4]
 8005718:	68fa      	ldr	r2, [r7, #12]
 800571a:	601a      	str	r2, [r3, #0]

  /* Set the Autoreload value */
  TIMx->ARR = (uint32_t)Structure->Period ;
 800571c:	683b      	ldr	r3, [r7, #0]
 800571e:	689a      	ldr	r2, [r3, #8]
 8005720:	687b      	ldr	r3, [r7, #4]
 8005722:	62da      	str	r2, [r3, #44]	; 0x2c

  /* Set the Prescaler value */
  TIMx->PSC = Structure->Prescaler;
 8005724:	683b      	ldr	r3, [r7, #0]
 8005726:	681a      	ldr	r2, [r3, #0]
 8005728:	687b      	ldr	r3, [r7, #4]
 800572a:	629a      	str	r2, [r3, #40]	; 0x28

  if (IS_TIM_REPETITION_COUNTER_INSTANCE(TIMx))
 800572c:	687b      	ldr	r3, [r7, #4]
 800572e:	4a0a      	ldr	r2, [pc, #40]	; (8005758 <TIM_Base_SetConfig+0x114>)
 8005730:	4293      	cmp	r3, r2
 8005732:	d003      	beq.n	800573c <TIM_Base_SetConfig+0xf8>
 8005734:	687b      	ldr	r3, [r7, #4]
 8005736:	4a0c      	ldr	r2, [pc, #48]	; (8005768 <TIM_Base_SetConfig+0x124>)
 8005738:	4293      	cmp	r3, r2
 800573a:	d103      	bne.n	8005744 <TIM_Base_SetConfig+0x100>
  {
    /* Set the Repetition Counter value */
    TIMx->RCR = Structure->RepetitionCounter;
 800573c:	683b      	ldr	r3, [r7, #0]
 800573e:	691a      	ldr	r2, [r3, #16]
 8005740:	687b      	ldr	r3, [r7, #4]
 8005742:	631a      	str	r2, [r3, #48]	; 0x30
  }

  /* Generate an update event to reload the Prescaler
     and the repetition counter (only for advanced timer) value immediately */
  TIMx->EGR = TIM_EGR_UG;
 8005744:	687b      	ldr	r3, [r7, #4]
 8005746:	2201      	movs	r2, #1
 8005748:	615a      	str	r2, [r3, #20]
}
 800574a:	bf00      	nop
 800574c:	3714      	adds	r7, #20
 800574e:	46bd      	mov	sp, r7
 8005750:	f85d 7b04 	ldr.w	r7, [sp], #4
 8005754:	4770      	bx	lr
 8005756:	bf00      	nop
 8005758:	40010000 	.word	0x40010000
 800575c:	40000400 	.word	0x40000400
 8005760:	40000800 	.word	0x40000800
 8005764:	40000c00 	.word	0x40000c00
 8005768:	40010400 	.word	0x40010400
 800576c:	40014000 	.word	0x40014000
 8005770:	40014400 	.word	0x40014400
 8005774:	40014800 	.word	0x40014800
 8005778:	40001800 	.word	0x40001800
 800577c:	40001c00 	.word	0x40001c00
 8005780:	40002000 	.word	0x40002000

08005784 <TIM_OC1_SetConfig>:
  * @param  TIMx to select the TIM peripheral
  * @param  OC_Config The ouput configuration structure
  * @retval None
  */
static void TIM_OC1_SetConfig(TIM_TypeDef *TIMx, TIM_OC_InitTypeDef *OC_Config)
{
 8005784:	b480      	push	{r7}
 8005786:	b087      	sub	sp, #28
 8005788:	af00      	add	r7, sp, #0
 800578a:	6078      	str	r0, [r7, #4]
 800578c:	6039      	str	r1, [r7, #0]
  uint32_t tmpccmrx;
  uint32_t tmpccer;
  uint32_t tmpcr2;

  /* Disable the Channel 1: Reset the CC1E Bit */
  TIMx->CCER &= ~TIM_CCER_CC1E;
 800578e:	687b      	ldr	r3, [r7, #4]
 8005790:	6a1b      	ldr	r3, [r3, #32]
 8005792:	f023 0201 	bic.w	r2, r3, #1
 8005796:	687b      	ldr	r3, [r7, #4]
 8005798:	621a      	str	r2, [r3, #32]

  /* Get the TIMx CCER register value */
  tmpccer = TIMx->CCER;
 800579a:	687b      	ldr	r3, [r7, #4]
 800579c:	6a1b      	ldr	r3, [r3, #32]
 800579e:	617b      	str	r3, [r7, #20]
  /* Get the TIMx CR2 register value */
  tmpcr2 =  TIMx->CR2;
 80057a0:	687b      	ldr	r3, [r7, #4]
 80057a2:	685b      	ldr	r3, [r3, #4]
 80057a4:	613b      	str	r3, [r7, #16]

  /* Get the TIMx CCMR1 register value */
  tmpccmrx = TIMx->CCMR1;
 80057a6:	687b      	ldr	r3, [r7, #4]
 80057a8:	699b      	ldr	r3, [r3, #24]
 80057aa:	60fb      	str	r3, [r7, #12]

  /* Reset the Output Compare Mode Bits */
  tmpccmrx &= ~TIM_CCMR1_OC1M;
 80057ac:	68fb      	ldr	r3, [r7, #12]
 80057ae:	f023 0370 	bic.w	r3, r3, #112	; 0x70
 80057b2:	60fb      	str	r3, [r7, #12]
  tmpccmrx &= ~TIM_CCMR1_CC1S;
 80057b4:	68fb      	ldr	r3, [r7, #12]
 80057b6:	f023 0303 	bic.w	r3, r3, #3
 80057ba:	60fb      	str	r3, [r7, #12]
  /* Select the Output Compare Mode */
  tmpccmrx |= OC_Config->OCMode;
 80057bc:	683b      	ldr	r3, [r7, #0]
 80057be:	681b      	ldr	r3, [r3, #0]
 80057c0:	68fa      	ldr	r2, [r7, #12]
 80057c2:	4313      	orrs	r3, r2
 80057c4:	60fb      	str	r3, [r7, #12]

  /* Reset the Output Polarity level */
  tmpccer &= ~TIM_CCER_CC1P;
 80057c6:	697b      	ldr	r3, [r7, #20]
 80057c8:	f023 0302 	bic.w	r3, r3, #2
 80057cc:	617b      	str	r3, [r7, #20]
  /* Set the Output Compare Polarity */
  tmpccer |= OC_Config->OCPolarity;
 80057ce:	683b      	ldr	r3, [r7, #0]
 80057d0:	689b      	ldr	r3, [r3, #8]
 80057d2:	697a      	ldr	r2, [r7, #20]
 80057d4:	4313      	orrs	r3, r2
 80057d6:	617b      	str	r3, [r7, #20]

  if (IS_TIM_CCXN_INSTANCE(TIMx, TIM_CHANNEL_1))
 80057d8:	687b      	ldr	r3, [r7, #4]
 80057da:	4a20      	ldr	r2, [pc, #128]	; (800585c <TIM_OC1_SetConfig+0xd8>)
 80057dc:	4293      	cmp	r3, r2
 80057de:	d003      	beq.n	80057e8 <TIM_OC1_SetConfig+0x64>
 80057e0:	687b      	ldr	r3, [r7, #4]
 80057e2:	4a1f      	ldr	r2, [pc, #124]	; (8005860 <TIM_OC1_SetConfig+0xdc>)
 80057e4:	4293      	cmp	r3, r2
 80057e6:	d10c      	bne.n	8005802 <TIM_OC1_SetConfig+0x7e>
  {
    /* Check parameters */
    assert_param(IS_TIM_OCN_POLARITY(OC_Config->OCNPolarity));

    /* Reset the Output N Polarity level */
    tmpccer &= ~TIM_CCER_CC1NP;
 80057e8:	697b      	ldr	r3, [r7, #20]
 80057ea:	f023 0308 	bic.w	r3, r3, #8
 80057ee:	617b      	str	r3, [r7, #20]
    /* Set the Output N Polarity */
    tmpccer |= OC_Config->OCNPolarity;
 80057f0:	683b      	ldr	r3, [r7, #0]
 80057f2:	68db      	ldr	r3, [r3, #12]
 80057f4:	697a      	ldr	r2, [r7, #20]
 80057f6:	4313      	orrs	r3, r2
 80057f8:	617b      	str	r3, [r7, #20]
    /* Reset the Output N State */
    tmpccer &= ~TIM_CCER_CC1NE;
 80057fa:	697b      	ldr	r3, [r7, #20]
 80057fc:	f023 0304 	bic.w	r3, r3, #4
 8005800:	617b      	str	r3, [r7, #20]
  }

  if (IS_TIM_BREAK_INSTANCE(TIMx))
 8005802:	687b      	ldr	r3, [r7, #4]
 8005804:	4a15      	ldr	r2, [pc, #84]	; (800585c <TIM_OC1_SetConfig+0xd8>)
 8005806:	4293      	cmp	r3, r2
 8005808:	d003      	beq.n	8005812 <TIM_OC1_SetConfig+0x8e>
 800580a:	687b      	ldr	r3, [r7, #4]
 800580c:	4a14      	ldr	r2, [pc, #80]	; (8005860 <TIM_OC1_SetConfig+0xdc>)
 800580e:	4293      	cmp	r3, r2
 8005810:	d111      	bne.n	8005836 <TIM_OC1_SetConfig+0xb2>
    /* Check parameters */
    assert_param(IS_TIM_OCNIDLE_STATE(OC_Config->OCNIdleState));
    assert_param(IS_TIM_OCIDLE_STATE(OC_Config->OCIdleState));

    /* Reset the Output Compare and Output Compare N IDLE State */
    tmpcr2 &= ~TIM_CR2_OIS1;
 8005812:	693b      	ldr	r3, [r7, #16]
 8005814:	f423 7380 	bic.w	r3, r3, #256	; 0x100
 8005818:	613b      	str	r3, [r7, #16]
    tmpcr2 &= ~TIM_CR2_OIS1N;
 800581a:	693b      	ldr	r3, [r7, #16]
 800581c:	f423 7300 	bic.w	r3, r3, #512	; 0x200
 8005820:	613b      	str	r3, [r7, #16]
    /* Set the Output Idle state */
    tmpcr2 |= OC_Config->OCIdleState;
 8005822:	683b      	ldr	r3, [r7, #0]
 8005824:	695b      	ldr	r3, [r3, #20]
 8005826:	693a      	ldr	r2, [r7, #16]
 8005828:	4313      	orrs	r3, r2
 800582a:	613b      	str	r3, [r7, #16]
    /* Set the Output N Idle state */
    tmpcr2 |= OC_Config->OCNIdleState;
 800582c:	683b      	ldr	r3, [r7, #0]
 800582e:	699b      	ldr	r3, [r3, #24]
 8005830:	693a      	ldr	r2, [r7, #16]
 8005832:	4313      	orrs	r3, r2
 8005834:	613b      	str	r3, [r7, #16]
  }

  /* Write to TIMx CR2 */
  TIMx->CR2 = tmpcr2;
 8005836:	687b      	ldr	r3, [r7, #4]
 8005838:	693a      	ldr	r2, [r7, #16]
 800583a:	605a      	str	r2, [r3, #4]

  /* Write to TIMx CCMR1 */
  TIMx->CCMR1 = tmpccmrx;
 800583c:	687b      	ldr	r3, [r7, #4]
 800583e:	68fa      	ldr	r2, [r7, #12]
 8005840:	619a      	str	r2, [r3, #24]

  /* Set the Capture Compare Register value */
  TIMx->CCR1 = OC_Config->Pulse;
 8005842:	683b      	ldr	r3, [r7, #0]
 8005844:	685a      	ldr	r2, [r3, #4]
 8005846:	687b      	ldr	r3, [r7, #4]
 8005848:	635a      	str	r2, [r3, #52]	; 0x34

  /* Write to TIMx CCER */
  TIMx->CCER = tmpccer;
 800584a:	687b      	ldr	r3, [r7, #4]
 800584c:	697a      	ldr	r2, [r7, #20]
 800584e:	621a      	str	r2, [r3, #32]
}
 8005850:	bf00      	nop
 8005852:	371c      	adds	r7, #28
 8005854:	46bd      	mov	sp, r7
 8005856:	f85d 7b04 	ldr.w	r7, [sp], #4
 800585a:	4770      	bx	lr
 800585c:	40010000 	.word	0x40010000
 8005860:	40010400 	.word	0x40010400

08005864 <TIM_OC2_SetConfig>:
  * @param  TIMx to select the TIM peripheral
  * @param  OC_Config The ouput configuration structure
  * @retval None
  */
void TIM_OC2_SetConfig(TIM_TypeDef *TIMx, TIM_OC_InitTypeDef *OC_Config)
{
 8005864:	b480      	push	{r7}
 8005866:	b087      	sub	sp, #28
 8005868:	af00      	add	r7, sp, #0
 800586a:	6078      	str	r0, [r7, #4]
 800586c:	6039      	str	r1, [r7, #0]
  uint32_t tmpccmrx;
  uint32_t tmpccer;
  uint32_t tmpcr2;

  /* Disable the Channel 2: Reset the CC2E Bit */
  TIMx->CCER &= ~TIM_CCER_CC2E;
 800586e:	687b      	ldr	r3, [r7, #4]
 8005870:	6a1b      	ldr	r3, [r3, #32]
 8005872:	f023 0210 	bic.w	r2, r3, #16
 8005876:	687b      	ldr	r3, [r7, #4]
 8005878:	621a      	str	r2, [r3, #32]

  /* Get the TIMx CCER register value */
  tmpccer = TIMx->CCER;
 800587a:	687b      	ldr	r3, [r7, #4]
 800587c:	6a1b      	ldr	r3, [r3, #32]
 800587e:	617b      	str	r3, [r7, #20]
  /* Get the TIMx CR2 register value */
  tmpcr2 =  TIMx->CR2;
 8005880:	687b      	ldr	r3, [r7, #4]
 8005882:	685b      	ldr	r3, [r3, #4]
 8005884:	613b      	str	r3, [r7, #16]

  /* Get the TIMx CCMR1 register value */
  tmpccmrx = TIMx->CCMR1;
 8005886:	687b      	ldr	r3, [r7, #4]
 8005888:	699b      	ldr	r3, [r3, #24]
 800588a:	60fb      	str	r3, [r7, #12]

  /* Reset the Output Compare mode and Capture/Compare selection Bits */
  tmpccmrx &= ~TIM_CCMR1_OC2M;
 800588c:	68fb      	ldr	r3, [r7, #12]
 800588e:	f423 43e0 	bic.w	r3, r3, #28672	; 0x7000
 8005892:	60fb      	str	r3, [r7, #12]
  tmpccmrx &= ~TIM_CCMR1_CC2S;
 8005894:	68fb      	ldr	r3, [r7, #12]
 8005896:	f423 7340 	bic.w	r3, r3, #768	; 0x300
 800589a:	60fb      	str	r3, [r7, #12]

  /* Select the Output Compare Mode */
  tmpccmrx |= (OC_Config->OCMode << 8U);
 800589c:	683b      	ldr	r3, [r7, #0]
 800589e:	681b      	ldr	r3, [r3, #0]
 80058a0:	021b      	lsls	r3, r3, #8
 80058a2:	68fa      	ldr	r2, [r7, #12]
 80058a4:	4313      	orrs	r3, r2
 80058a6:	60fb      	str	r3, [r7, #12]

  /* Reset the Output Polarity level */
  tmpccer &= ~TIM_CCER_CC2P;
 80058a8:	697b      	ldr	r3, [r7, #20]
 80058aa:	f023 0320 	bic.w	r3, r3, #32
 80058ae:	617b      	str	r3, [r7, #20]
  /* Set the Output Compare Polarity */
  tmpccer |= (OC_Config->OCPolarity << 4U);
 80058b0:	683b      	ldr	r3, [r7, #0]
 80058b2:	689b      	ldr	r3, [r3, #8]
 80058b4:	011b      	lsls	r3, r3, #4
 80058b6:	697a      	ldr	r2, [r7, #20]
 80058b8:	4313      	orrs	r3, r2
 80058ba:	617b      	str	r3, [r7, #20]

  if (IS_TIM_CCXN_INSTANCE(TIMx, TIM_CHANNEL_2))
 80058bc:	687b      	ldr	r3, [r7, #4]
 80058be:	4a22      	ldr	r2, [pc, #136]	; (8005948 <TIM_OC2_SetConfig+0xe4>)
 80058c0:	4293      	cmp	r3, r2
 80058c2:	d003      	beq.n	80058cc <TIM_OC2_SetConfig+0x68>
 80058c4:	687b      	ldr	r3, [r7, #4]
 80058c6:	4a21      	ldr	r2, [pc, #132]	; (800594c <TIM_OC2_SetConfig+0xe8>)
 80058c8:	4293      	cmp	r3, r2
 80058ca:	d10d      	bne.n	80058e8 <TIM_OC2_SetConfig+0x84>
  {
    assert_param(IS_TIM_OCN_POLARITY(OC_Config->OCNPolarity));

    /* Reset the Output N Polarity level */
    tmpccer &= ~TIM_CCER_CC2NP;
 80058cc:	697b      	ldr	r3, [r7, #20]
 80058ce:	f023 0380 	bic.w	r3, r3, #128	; 0x80
 80058d2:	617b      	str	r3, [r7, #20]
    /* Set the Output N Polarity */
    tmpccer |= (OC_Config->OCNPolarity << 4U);
 80058d4:	683b      	ldr	r3, [r7, #0]
 80058d6:	68db      	ldr	r3, [r3, #12]
 80058d8:	011b      	lsls	r3, r3, #4
 80058da:	697a      	ldr	r2, [r7, #20]
 80058dc:	4313      	orrs	r3, r2
 80058de:	617b      	str	r3, [r7, #20]
    /* Reset the Output N State */
    tmpccer &= ~TIM_CCER_CC2NE;
 80058e0:	697b      	ldr	r3, [r7, #20]
 80058e2:	f023 0340 	bic.w	r3, r3, #64	; 0x40
 80058e6:	617b      	str	r3, [r7, #20]

  }

  if (IS_TIM_BREAK_INSTANCE(TIMx))
 80058e8:	687b      	ldr	r3, [r7, #4]
 80058ea:	4a17      	ldr	r2, [pc, #92]	; (8005948 <TIM_OC2_SetConfig+0xe4>)
 80058ec:	4293      	cmp	r3, r2
 80058ee:	d003      	beq.n	80058f8 <TIM_OC2_SetConfig+0x94>
 80058f0:	687b      	ldr	r3, [r7, #4]
 80058f2:	4a16      	ldr	r2, [pc, #88]	; (800594c <TIM_OC2_SetConfig+0xe8>)
 80058f4:	4293      	cmp	r3, r2
 80058f6:	d113      	bne.n	8005920 <TIM_OC2_SetConfig+0xbc>
    /* Check parameters */
    assert_param(IS_TIM_OCNIDLE_STATE(OC_Config->OCNIdleState));
    assert_param(IS_TIM_OCIDLE_STATE(OC_Config->OCIdleState));

    /* Reset the Output Compare and Output Compare N IDLE State */
    tmpcr2 &= ~TIM_CR2_OIS2;
 80058f8:	693b      	ldr	r3, [r7, #16]
 80058fa:	f423 6380 	bic.w	r3, r3, #1024	; 0x400
 80058fe:	613b      	str	r3, [r7, #16]
    tmpcr2 &= ~TIM_CR2_OIS2N;
 8005900:	693b      	ldr	r3, [r7, #16]
 8005902:	f423 6300 	bic.w	r3, r3, #2048	; 0x800
 8005906:	613b      	str	r3, [r7, #16]
    /* Set the Output Idle state */
    tmpcr2 |= (OC_Config->OCIdleState << 2U);
 8005908:	683b      	ldr	r3, [r7, #0]
 800590a:	695b      	ldr	r3, [r3, #20]
 800590c:	009b      	lsls	r3, r3, #2
 800590e:	693a      	ldr	r2, [r7, #16]
 8005910:	4313      	orrs	r3, r2
 8005912:	613b      	str	r3, [r7, #16]
    /* Set the Output N Idle state */
    tmpcr2 |= (OC_Config->OCNIdleState << 2U);
 8005914:	683b      	ldr	r3, [r7, #0]
 8005916:	699b      	ldr	r3, [r3, #24]
 8005918:	009b      	lsls	r3, r3, #2
 800591a:	693a      	ldr	r2, [r7, #16]
 800591c:	4313      	orrs	r3, r2
 800591e:	613b      	str	r3, [r7, #16]
  }

  /* Write to TIMx CR2 */
  TIMx->CR2 = tmpcr2;
 8005920:	687b      	ldr	r3, [r7, #4]
 8005922:	693a      	ldr	r2, [r7, #16]
 8005924:	605a      	str	r2, [r3, #4]

  /* Write to TIMx CCMR1 */
  TIMx->CCMR1 = tmpccmrx;
 8005926:	687b      	ldr	r3, [r7, #4]
 8005928:	68fa      	ldr	r2, [r7, #12]
 800592a:	619a      	str	r2, [r3, #24]

  /* Set the Capture Compare Register value */
  TIMx->CCR2 = OC_Config->Pulse;
 800592c:	683b      	ldr	r3, [r7, #0]
 800592e:	685a      	ldr	r2, [r3, #4]
 8005930:	687b      	ldr	r3, [r7, #4]
 8005932:	639a      	str	r2, [r3, #56]	; 0x38

  /* Write to TIMx CCER */
  TIMx->CCER = tmpccer;
 8005934:	687b      	ldr	r3, [r7, #4]
 8005936:	697a      	ldr	r2, [r7, #20]
 8005938:	621a      	str	r2, [r3, #32]
}
 800593a:	bf00      	nop
 800593c:	371c      	adds	r7, #28
 800593e:	46bd      	mov	sp, r7
 8005940:	f85d 7b04 	ldr.w	r7, [sp], #4
 8005944:	4770      	bx	lr
 8005946:	bf00      	nop
 8005948:	40010000 	.word	0x40010000
 800594c:	40010400 	.word	0x40010400

08005950 <TIM_OC3_SetConfig>:
  * @param  TIMx to select the TIM peripheral
  * @param  OC_Config The ouput configuration structure
  * @retval None
  */
static void TIM_OC3_SetConfig(TIM_TypeDef *TIMx, TIM_OC_InitTypeDef *OC_Config)
{
 8005950:	b480      	push	{r7}
 8005952:	b087      	sub	sp, #28
 8005954:	af00      	add	r7, sp, #0
 8005956:	6078      	str	r0, [r7, #4]
 8005958:	6039      	str	r1, [r7, #0]
  uint32_t tmpccmrx;
  uint32_t tmpccer;
  uint32_t tmpcr2;

  /* Disable the Channel 3: Reset the CC2E Bit */
  TIMx->CCER &= ~TIM_CCER_CC3E;
 800595a:	687b      	ldr	r3, [r7, #4]
 800595c:	6a1b      	ldr	r3, [r3, #32]
 800595e:	f423 7280 	bic.w	r2, r3, #256	; 0x100
 8005962:	687b      	ldr	r3, [r7, #4]
 8005964:	621a      	str	r2, [r3, #32]

  /* Get the TIMx CCER register value */
  tmpccer = TIMx->CCER;
 8005966:	687b      	ldr	r3, [r7, #4]
 8005968:	6a1b      	ldr	r3, [r3, #32]
 800596a:	617b      	str	r3, [r7, #20]
  /* Get the TIMx CR2 register value */
  tmpcr2 =  TIMx->CR2;
 800596c:	687b      	ldr	r3, [r7, #4]
 800596e:	685b      	ldr	r3, [r3, #4]
 8005970:	613b      	str	r3, [r7, #16]

  /* Get the TIMx CCMR2 register value */
  tmpccmrx = TIMx->CCMR2;
 8005972:	687b      	ldr	r3, [r7, #4]
 8005974:	69db      	ldr	r3, [r3, #28]
 8005976:	60fb      	str	r3, [r7, #12]

  /* Reset the Output Compare mode and Capture/Compare selection Bits */
  tmpccmrx &= ~TIM_CCMR2_OC3M;
 8005978:	68fb      	ldr	r3, [r7, #12]
 800597a:	f023 0370 	bic.w	r3, r3, #112	; 0x70
 800597e:	60fb      	str	r3, [r7, #12]
  tmpccmrx &= ~TIM_CCMR2_CC3S;
 8005980:	68fb      	ldr	r3, [r7, #12]
 8005982:	f023 0303 	bic.w	r3, r3, #3
 8005986:	60fb      	str	r3, [r7, #12]
  /* Select the Output Compare Mode */
  tmpccmrx |= OC_Config->OCMode;
 8005988:	683b      	ldr	r3, [r7, #0]
 800598a:	681b      	ldr	r3, [r3, #0]
 800598c:	68fa      	ldr	r2, [r7, #12]
 800598e:	4313      	orrs	r3, r2
 8005990:	60fb      	str	r3, [r7, #12]

  /* Reset the Output Polarity level */
  tmpccer &= ~TIM_CCER_CC3P;
 8005992:	697b      	ldr	r3, [r7, #20]
 8005994:	f423 7300 	bic.w	r3, r3, #512	; 0x200
 8005998:	617b      	str	r3, [r7, #20]
  /* Set the Output Compare Polarity */
  tmpccer |= (OC_Config->OCPolarity << 8U);
 800599a:	683b      	ldr	r3, [r7, #0]
 800599c:	689b      	ldr	r3, [r3, #8]
 800599e:	021b      	lsls	r3, r3, #8
 80059a0:	697a      	ldr	r2, [r7, #20]
 80059a2:	4313      	orrs	r3, r2
 80059a4:	617b      	str	r3, [r7, #20]

  if (IS_TIM_CCXN_INSTANCE(TIMx, TIM_CHANNEL_3))
 80059a6:	687b      	ldr	r3, [r7, #4]
 80059a8:	4a21      	ldr	r2, [pc, #132]	; (8005a30 <TIM_OC3_SetConfig+0xe0>)
 80059aa:	4293      	cmp	r3, r2
 80059ac:	d003      	beq.n	80059b6 <TIM_OC3_SetConfig+0x66>
 80059ae:	687b      	ldr	r3, [r7, #4]
 80059b0:	4a20      	ldr	r2, [pc, #128]	; (8005a34 <TIM_OC3_SetConfig+0xe4>)
 80059b2:	4293      	cmp	r3, r2
 80059b4:	d10d      	bne.n	80059d2 <TIM_OC3_SetConfig+0x82>
  {
    assert_param(IS_TIM_OCN_POLARITY(OC_Config->OCNPolarity));

    /* Reset the Output N Polarity level */
    tmpccer &= ~TIM_CCER_CC3NP;
 80059b6:	697b      	ldr	r3, [r7, #20]
 80059b8:	f423 6300 	bic.w	r3, r3, #2048	; 0x800
 80059bc:	617b      	str	r3, [r7, #20]
    /* Set the Output N Polarity */
    tmpccer |= (OC_Config->OCNPolarity << 8U);
 80059be:	683b      	ldr	r3, [r7, #0]
 80059c0:	68db      	ldr	r3, [r3, #12]
 80059c2:	021b      	lsls	r3, r3, #8
 80059c4:	697a      	ldr	r2, [r7, #20]
 80059c6:	4313      	orrs	r3, r2
 80059c8:	617b      	str	r3, [r7, #20]
    /* Reset the Output N State */
    tmpccer &= ~TIM_CCER_CC3NE;
 80059ca:	697b      	ldr	r3, [r7, #20]
 80059cc:	f423 6380 	bic.w	r3, r3, #1024	; 0x400
 80059d0:	617b      	str	r3, [r7, #20]
  }

  if (IS_TIM_BREAK_INSTANCE(TIMx))
 80059d2:	687b      	ldr	r3, [r7, #4]
 80059d4:	4a16      	ldr	r2, [pc, #88]	; (8005a30 <TIM_OC3_SetConfig+0xe0>)
 80059d6:	4293      	cmp	r3, r2
 80059d8:	d003      	beq.n	80059e2 <TIM_OC3_SetConfig+0x92>
 80059da:	687b      	ldr	r3, [r7, #4]
 80059dc:	4a15      	ldr	r2, [pc, #84]	; (8005a34 <TIM_OC3_SetConfig+0xe4>)
 80059de:	4293      	cmp	r3, r2
 80059e0:	d113      	bne.n	8005a0a <TIM_OC3_SetConfig+0xba>
    /* Check parameters */
    assert_param(IS_TIM_OCNIDLE_STATE(OC_Config->OCNIdleState));
    assert_param(IS_TIM_OCIDLE_STATE(OC_Config->OCIdleState));

    /* Reset the Output Compare and Output Compare N IDLE State */
    tmpcr2 &= ~TIM_CR2_OIS3;
 80059e2:	693b      	ldr	r3, [r7, #16]
 80059e4:	f423 5380 	bic.w	r3, r3, #4096	; 0x1000
 80059e8:	613b      	str	r3, [r7, #16]
    tmpcr2 &= ~TIM_CR2_OIS3N;
 80059ea:	693b      	ldr	r3, [r7, #16]
 80059ec:	f423 5300 	bic.w	r3, r3, #8192	; 0x2000
 80059f0:	613b      	str	r3, [r7, #16]
    /* Set the Output Idle state */
    tmpcr2 |= (OC_Config->OCIdleState << 4U);
 80059f2:	683b      	ldr	r3, [r7, #0]
 80059f4:	695b      	ldr	r3, [r3, #20]
 80059f6:	011b      	lsls	r3, r3, #4
 80059f8:	693a      	ldr	r2, [r7, #16]
 80059fa:	4313      	orrs	r3, r2
 80059fc:	613b      	str	r3, [r7, #16]
    /* Set the Output N Idle state */
    tmpcr2 |= (OC_Config->OCNIdleState << 4U);
 80059fe:	683b      	ldr	r3, [r7, #0]
 8005a00:	699b      	ldr	r3, [r3, #24]
 8005a02:	011b      	lsls	r3, r3, #4
 8005a04:	693a      	ldr	r2, [r7, #16]
 8005a06:	4313      	orrs	r3, r2
 8005a08:	613b      	str	r3, [r7, #16]
  }

  /* Write to TIMx CR2 */
  TIMx->CR2 = tmpcr2;
 8005a0a:	687b      	ldr	r3, [r7, #4]
 8005a0c:	693a      	ldr	r2, [r7, #16]
 8005a0e:	605a      	str	r2, [r3, #4]

  /* Write to TIMx CCMR2 */
  TIMx->CCMR2 = tmpccmrx;
 8005a10:	687b      	ldr	r3, [r7, #4]
 8005a12:	68fa      	ldr	r2, [r7, #12]
 8005a14:	61da      	str	r2, [r3, #28]

  /* Set the Capture Compare Register value */
  TIMx->CCR3 = OC_Config->Pulse;
 8005a16:	683b      	ldr	r3, [r7, #0]
 8005a18:	685a      	ldr	r2, [r3, #4]
 8005a1a:	687b      	ldr	r3, [r7, #4]
 8005a1c:	63da      	str	r2, [r3, #60]	; 0x3c

  /* Write to TIMx CCER */
  TIMx->CCER = tmpccer;
 8005a1e:	687b      	ldr	r3, [r7, #4]
 8005a20:	697a      	ldr	r2, [r7, #20]
 8005a22:	621a      	str	r2, [r3, #32]
}
 8005a24:	bf00      	nop
 8005a26:	371c      	adds	r7, #28
 8005a28:	46bd      	mov	sp, r7
 8005a2a:	f85d 7b04 	ldr.w	r7, [sp], #4
 8005a2e:	4770      	bx	lr
 8005a30:	40010000 	.word	0x40010000
 8005a34:	40010400 	.word	0x40010400

08005a38 <TIM_OC4_SetConfig>:
  * @param  TIMx to select the TIM peripheral
  * @param  OC_Config The ouput configuration structure
  * @retval None
  */
static void TIM_OC4_SetConfig(TIM_TypeDef *TIMx, TIM_OC_InitTypeDef *OC_Config)
{
 8005a38:	b480      	push	{r7}
 8005a3a:	b087      	sub	sp, #28
 8005a3c:	af00      	add	r7, sp, #0
 8005a3e:	6078      	str	r0, [r7, #4]
 8005a40:	6039      	str	r1, [r7, #0]
  uint32_t tmpccmrx;
  uint32_t tmpccer;
  uint32_t tmpcr2;

  /* Disable the Channel 4: Reset the CC4E Bit */
  TIMx->CCER &= ~TIM_CCER_CC4E;
 8005a42:	687b      	ldr	r3, [r7, #4]
 8005a44:	6a1b      	ldr	r3, [r3, #32]
 8005a46:	f423 5280 	bic.w	r2, r3, #4096	; 0x1000
 8005a4a:	687b      	ldr	r3, [r7, #4]
 8005a4c:	621a      	str	r2, [r3, #32]

  /* Get the TIMx CCER register value */
  tmpccer = TIMx->CCER;
 8005a4e:	687b      	ldr	r3, [r7, #4]
 8005a50:	6a1b      	ldr	r3, [r3, #32]
 8005a52:	613b      	str	r3, [r7, #16]
  /* Get the TIMx CR2 register value */
  tmpcr2 =  TIMx->CR2;
 8005a54:	687b      	ldr	r3, [r7, #4]
 8005a56:	685b      	ldr	r3, [r3, #4]
 8005a58:	617b      	str	r3, [r7, #20]

  /* Get the TIMx CCMR2 register value */
  tmpccmrx = TIMx->CCMR2;
 8005a5a:	687b      	ldr	r3, [r7, #4]
 8005a5c:	69db      	ldr	r3, [r3, #28]
 8005a5e:	60fb      	str	r3, [r7, #12]

  /* Reset the Output Compare mode and Capture/Compare selection Bits */
  tmpccmrx &= ~TIM_CCMR2_OC4M;
 8005a60:	68fb      	ldr	r3, [r7, #12]
 8005a62:	f423 43e0 	bic.w	r3, r3, #28672	; 0x7000
 8005a66:	60fb      	str	r3, [r7, #12]
  tmpccmrx &= ~TIM_CCMR2_CC4S;
 8005a68:	68fb      	ldr	r3, [r7, #12]
 8005a6a:	f423 7340 	bic.w	r3, r3, #768	; 0x300
 8005a6e:	60fb      	str	r3, [r7, #12]

  /* Select the Output Compare Mode */
  tmpccmrx |= (OC_Config->OCMode << 8U);
 8005a70:	683b      	ldr	r3, [r7, #0]
 8005a72:	681b      	ldr	r3, [r3, #0]
 8005a74:	021b      	lsls	r3, r3, #8
 8005a76:	68fa      	ldr	r2, [r7, #12]
 8005a78:	4313      	orrs	r3, r2
 8005a7a:	60fb      	str	r3, [r7, #12]

  /* Reset the Output Polarity level */
  tmpccer &= ~TIM_CCER_CC4P;
 8005a7c:	693b      	ldr	r3, [r7, #16]
 8005a7e:	f423 5300 	bic.w	r3, r3, #8192	; 0x2000
 8005a82:	613b      	str	r3, [r7, #16]
  /* Set the Output Compare Polarity */
  tmpccer |= (OC_Config->OCPolarity << 12U);
 8005a84:	683b      	ldr	r3, [r7, #0]
 8005a86:	689b      	ldr	r3, [r3, #8]
 8005a88:	031b      	lsls	r3, r3, #12
 8005a8a:	693a      	ldr	r2, [r7, #16]
 8005a8c:	4313      	orrs	r3, r2
 8005a8e:	613b      	str	r3, [r7, #16]

  if (IS_TIM_BREAK_INSTANCE(TIMx))
 8005a90:	687b      	ldr	r3, [r7, #4]
 8005a92:	4a12      	ldr	r2, [pc, #72]	; (8005adc <TIM_OC4_SetConfig+0xa4>)
 8005a94:	4293      	cmp	r3, r2
 8005a96:	d003      	beq.n	8005aa0 <TIM_OC4_SetConfig+0x68>
 8005a98:	687b      	ldr	r3, [r7, #4]
 8005a9a:	4a11      	ldr	r2, [pc, #68]	; (8005ae0 <TIM_OC4_SetConfig+0xa8>)
 8005a9c:	4293      	cmp	r3, r2
 8005a9e:	d109      	bne.n	8005ab4 <TIM_OC4_SetConfig+0x7c>
  {
    /* Check parameters */
    assert_param(IS_TIM_OCIDLE_STATE(OC_Config->OCIdleState));

    /* Reset the Output Compare IDLE State */
    tmpcr2 &= ~TIM_CR2_OIS4;
 8005aa0:	697b      	ldr	r3, [r7, #20]
 8005aa2:	f423 4380 	bic.w	r3, r3, #16384	; 0x4000
 8005aa6:	617b      	str	r3, [r7, #20]

    /* Set the Output Idle state */
    tmpcr2 |= (OC_Config->OCIdleState << 6U);
 8005aa8:	683b      	ldr	r3, [r7, #0]
 8005aaa:	695b      	ldr	r3, [r3, #20]
 8005aac:	019b      	lsls	r3, r3, #6
 8005aae:	697a      	ldr	r2, [r7, #20]
 8005ab0:	4313      	orrs	r3, r2
 8005ab2:	617b      	str	r3, [r7, #20]
  }

  /* Write to TIMx CR2 */
  TIMx->CR2 = tmpcr2;
 8005ab4:	687b      	ldr	r3, [r7, #4]
 8005ab6:	697a      	ldr	r2, [r7, #20]
 8005ab8:	605a      	str	r2, [r3, #4]

  /* Write to TIMx CCMR2 */
  TIMx->CCMR2 = tmpccmrx;
 8005aba:	687b      	ldr	r3, [r7, #4]
 8005abc:	68fa      	ldr	r2, [r7, #12]
 8005abe:	61da      	str	r2, [r3, #28]

  /* Set the Capture Compare Register value */
  TIMx->CCR4 = OC_Config->Pulse;
 8005ac0:	683b      	ldr	r3, [r7, #0]
 8005ac2:	685a      	ldr	r2, [r3, #4]
 8005ac4:	687b      	ldr	r3, [r7, #4]
 8005ac6:	641a      	str	r2, [r3, #64]	; 0x40

  /* Write to TIMx CCER */
  TIMx->CCER = tmpccer;
 8005ac8:	687b      	ldr	r3, [r7, #4]
 8005aca:	693a      	ldr	r2, [r7, #16]
 8005acc:	621a      	str	r2, [r3, #32]
}
 8005ace:	bf00      	nop
 8005ad0:	371c      	adds	r7, #28
 8005ad2:	46bd      	mov	sp, r7
 8005ad4:	f85d 7b04 	ldr.w	r7, [sp], #4
 8005ad8:	4770      	bx	lr
 8005ada:	bf00      	nop
 8005adc:	40010000 	.word	0x40010000
 8005ae0:	40010400 	.word	0x40010400

08005ae4 <TIM_CCxChannelCmd>:
  * @param  ChannelState specifies the TIM Channel CCxE bit new state.
  *          This parameter can be: TIM_CCx_ENABLE or TIM_CCx_DISABLE.
  * @retval None
  */
void TIM_CCxChannelCmd(TIM_TypeDef *TIMx, uint32_t Channel, uint32_t ChannelState)
{
 8005ae4:	b480      	push	{r7}
 8005ae6:	b087      	sub	sp, #28
 8005ae8:	af00      	add	r7, sp, #0
 8005aea:	60f8      	str	r0, [r7, #12]
 8005aec:	60b9      	str	r1, [r7, #8]
 8005aee:	607a      	str	r2, [r7, #4]

  /* Check the parameters */
  assert_param(IS_TIM_CC1_INSTANCE(TIMx));
  assert_param(IS_TIM_CHANNELS(Channel));

  tmp = TIM_CCER_CC1E << (Channel & 0x1FU); /* 0x1FU = 31 bits max shift */
 8005af0:	68bb      	ldr	r3, [r7, #8]
 8005af2:	f003 031f 	and.w	r3, r3, #31
 8005af6:	2201      	movs	r2, #1
 8005af8:	fa02 f303 	lsl.w	r3, r2, r3
 8005afc:	617b      	str	r3, [r7, #20]

  /* Reset the CCxE Bit */
  TIMx->CCER &= ~tmp;
 8005afe:	68fb      	ldr	r3, [r7, #12]
 8005b00:	6a1a      	ldr	r2, [r3, #32]
 8005b02:	697b      	ldr	r3, [r7, #20]
 8005b04:	43db      	mvns	r3, r3
 8005b06:	401a      	ands	r2, r3
 8005b08:	68fb      	ldr	r3, [r7, #12]
 8005b0a:	621a      	str	r2, [r3, #32]

  /* Set or reset the CCxE Bit */
  TIMx->CCER |= (uint32_t)(ChannelState << (Channel & 0x1FU)); /* 0x1FU = 31 bits max shift */
 8005b0c:	68fb      	ldr	r3, [r7, #12]
 8005b0e:	6a1a      	ldr	r2, [r3, #32]
 8005b10:	68bb      	ldr	r3, [r7, #8]
 8005b12:	f003 031f 	and.w	r3, r3, #31
 8005b16:	6879      	ldr	r1, [r7, #4]
 8005b18:	fa01 f303 	lsl.w	r3, r1, r3
 8005b1c:	431a      	orrs	r2, r3
 8005b1e:	68fb      	ldr	r3, [r7, #12]
 8005b20:	621a      	str	r2, [r3, #32]
}
 8005b22:	bf00      	nop
 8005b24:	371c      	adds	r7, #28
 8005b26:	46bd      	mov	sp, r7
 8005b28:	f85d 7b04 	ldr.w	r7, [sp], #4
 8005b2c:	4770      	bx	lr
	...

08005b30 <HAL_TIMEx_MasterConfigSynchronization>:
  *         mode.
  * @retval HAL status
  */
HAL_StatusTypeDef HAL_TIMEx_MasterConfigSynchronization(TIM_HandleTypeDef *htim,
                                                        TIM_MasterConfigTypeDef *sMasterConfig)
{
 8005b30:	b480      	push	{r7}
 8005b32:	b085      	sub	sp, #20
 8005b34:	af00      	add	r7, sp, #0
 8005b36:	6078      	str	r0, [r7, #4]
 8005b38:	6039      	str	r1, [r7, #0]
  assert_param(IS_TIM_MASTER_INSTANCE(htim->Instance));
  assert_param(IS_TIM_TRGO_SOURCE(sMasterConfig->MasterOutputTrigger));
  assert_param(IS_TIM_MSM_STATE(sMasterConfig->MasterSlaveMode));

  /* Check input state */
  __HAL_LOCK(htim);
 8005b3a:	687b      	ldr	r3, [r7, #4]
 8005b3c:	f893 303c 	ldrb.w	r3, [r3, #60]	; 0x3c
 8005b40:	2b01      	cmp	r3, #1
 8005b42:	d101      	bne.n	8005b48 <HAL_TIMEx_MasterConfigSynchronization+0x18>
 8005b44:	2302      	movs	r3, #2
 8005b46:	e05a      	b.n	8005bfe <HAL_TIMEx_MasterConfigSynchronization+0xce>
 8005b48:	687b      	ldr	r3, [r7, #4]
 8005b4a:	2201      	movs	r2, #1
 8005b4c:	f883 203c 	strb.w	r2, [r3, #60]	; 0x3c

  /* Change the handler state */
  htim->State = HAL_TIM_STATE_BUSY;
 8005b50:	687b      	ldr	r3, [r7, #4]
 8005b52:	2202      	movs	r2, #2
 8005b54:	f883 203d 	strb.w	r2, [r3, #61]	; 0x3d

  /* Get the TIMx CR2 register value */
  tmpcr2 = htim->Instance->CR2;
 8005b58:	687b      	ldr	r3, [r7, #4]
 8005b5a:	681b      	ldr	r3, [r3, #0]
 8005b5c:	685b      	ldr	r3, [r3, #4]
 8005b5e:	60fb      	str	r3, [r7, #12]

  /* Get the TIMx SMCR register value */
  tmpsmcr = htim->Instance->SMCR;
 8005b60:	687b      	ldr	r3, [r7, #4]
 8005b62:	681b      	ldr	r3, [r3, #0]
 8005b64:	689b      	ldr	r3, [r3, #8]
 8005b66:	60bb      	str	r3, [r7, #8]

  /* Reset the MMS Bits */
  tmpcr2 &= ~TIM_CR2_MMS;
 8005b68:	68fb      	ldr	r3, [r7, #12]
 8005b6a:	f023 0370 	bic.w	r3, r3, #112	; 0x70
 8005b6e:	60fb      	str	r3, [r7, #12]
  /* Select the TRGO source */
  tmpcr2 |=  sMasterConfig->MasterOutputTrigger;
 8005b70:	683b      	ldr	r3, [r7, #0]
 8005b72:	681b      	ldr	r3, [r3, #0]
 8005b74:	68fa      	ldr	r2, [r7, #12]
 8005b76:	4313      	orrs	r3, r2
 8005b78:	60fb      	str	r3, [r7, #12]

  /* Update TIMx CR2 */
  htim->Instance->CR2 = tmpcr2;
 8005b7a:	687b      	ldr	r3, [r7, #4]
 8005b7c:	681b      	ldr	r3, [r3, #0]
 8005b7e:	68fa      	ldr	r2, [r7, #12]
 8005b80:	605a      	str	r2, [r3, #4]

  if (IS_TIM_SLAVE_INSTANCE(htim->Instance))
 8005b82:	687b      	ldr	r3, [r7, #4]
 8005b84:	681b      	ldr	r3, [r3, #0]
 8005b86:	4a21      	ldr	r2, [pc, #132]	; (8005c0c <HAL_TIMEx_MasterConfigSynchronization+0xdc>)
 8005b88:	4293      	cmp	r3, r2
 8005b8a:	d022      	beq.n	8005bd2 <HAL_TIMEx_MasterConfigSynchronization+0xa2>
 8005b8c:	687b      	ldr	r3, [r7, #4]
 8005b8e:	681b      	ldr	r3, [r3, #0]
 8005b90:	f1b3 4f80 	cmp.w	r3, #1073741824	; 0x40000000
 8005b94:	d01d      	beq.n	8005bd2 <HAL_TIMEx_MasterConfigSynchronization+0xa2>
 8005b96:	687b      	ldr	r3, [r7, #4]
 8005b98:	681b      	ldr	r3, [r3, #0]
 8005b9a:	4a1d      	ldr	r2, [pc, #116]	; (8005c10 <HAL_TIMEx_MasterConfigSynchronization+0xe0>)
 8005b9c:	4293      	cmp	r3, r2
 8005b9e:	d018      	beq.n	8005bd2 <HAL_TIMEx_MasterConfigSynchronization+0xa2>
 8005ba0:	687b      	ldr	r3, [r7, #4]
 8005ba2:	681b      	ldr	r3, [r3, #0]
 8005ba4:	4a1b      	ldr	r2, [pc, #108]	; (8005c14 <HAL_TIMEx_MasterConfigSynchronization+0xe4>)
 8005ba6:	4293      	cmp	r3, r2
 8005ba8:	d013      	beq.n	8005bd2 <HAL_TIMEx_MasterConfigSynchronization+0xa2>
 8005baa:	687b      	ldr	r3, [r7, #4]
 8005bac:	681b      	ldr	r3, [r3, #0]
 8005bae:	4a1a      	ldr	r2, [pc, #104]	; (8005c18 <HAL_TIMEx_MasterConfigSynchronization+0xe8>)
 8005bb0:	4293      	cmp	r3, r2
 8005bb2:	d00e      	beq.n	8005bd2 <HAL_TIMEx_MasterConfigSynchronization+0xa2>
 8005bb4:	687b      	ldr	r3, [r7, #4]
 8005bb6:	681b      	ldr	r3, [r3, #0]
 8005bb8:	4a18      	ldr	r2, [pc, #96]	; (8005c1c <HAL_TIMEx_MasterConfigSynchronization+0xec>)
 8005bba:	4293      	cmp	r3, r2
 8005bbc:	d009      	beq.n	8005bd2 <HAL_TIMEx_MasterConfigSynchronization+0xa2>
 8005bbe:	687b      	ldr	r3, [r7, #4]
 8005bc0:	681b      	ldr	r3, [r3, #0]
 8005bc2:	4a17      	ldr	r2, [pc, #92]	; (8005c20 <HAL_TIMEx_MasterConfigSynchronization+0xf0>)
 8005bc4:	4293      	cmp	r3, r2
 8005bc6:	d004      	beq.n	8005bd2 <HAL_TIMEx_MasterConfigSynchronization+0xa2>
 8005bc8:	687b      	ldr	r3, [r7, #4]
 8005bca:	681b      	ldr	r3, [r3, #0]
 8005bcc:	4a15      	ldr	r2, [pc, #84]	; (8005c24 <HAL_TIMEx_MasterConfigSynchronization+0xf4>)
 8005bce:	4293      	cmp	r3, r2
 8005bd0:	d10c      	bne.n	8005bec <HAL_TIMEx_MasterConfigSynchronization+0xbc>
  {
    /* Reset the MSM Bit */
    tmpsmcr &= ~TIM_SMCR_MSM;
 8005bd2:	68bb      	ldr	r3, [r7, #8]
 8005bd4:	f023 0380 	bic.w	r3, r3, #128	; 0x80
 8005bd8:	60bb      	str	r3, [r7, #8]
    /* Set master mode */
    tmpsmcr |= sMasterConfig->MasterSlaveMode;
 8005bda:	683b      	ldr	r3, [r7, #0]
 8005bdc:	685b      	ldr	r3, [r3, #4]
 8005bde:	68ba      	ldr	r2, [r7, #8]
 8005be0:	4313      	orrs	r3, r2
 8005be2:	60bb      	str	r3, [r7, #8]

    /* Update TIMx SMCR */
    htim->Instance->SMCR = tmpsmcr;
 8005be4:	687b      	ldr	r3, [r7, #4]
 8005be6:	681b      	ldr	r3, [r3, #0]
 8005be8:	68ba      	ldr	r2, [r7, #8]
 8005bea:	609a      	str	r2, [r3, #8]
  }

  /* Change the htim state */
  htim->State = HAL_TIM_STATE_READY;
 8005bec:	687b      	ldr	r3, [r7, #4]
 8005bee:	2201      	movs	r2, #1
 8005bf0:	f883 203d 	strb.w	r2, [r3, #61]	; 0x3d

  __HAL_UNLOCK(htim);
 8005bf4:	687b      	ldr	r3, [r7, #4]
 8005bf6:	2200      	movs	r2, #0
 8005bf8:	f883 203c 	strb.w	r2, [r3, #60]	; 0x3c

  return HAL_OK;
 8005bfc:	2300      	movs	r3, #0
}
 8005bfe:	4618      	mov	r0, r3
 8005c00:	3714      	adds	r7, #20
 8005c02:	46bd      	mov	sp, r7
 8005c04:	f85d 7b04 	ldr.w	r7, [sp], #4
 8005c08:	4770      	bx	lr
 8005c0a:	bf00      	nop
 8005c0c:	40010000 	.word	0x40010000
 8005c10:	40000400 	.word	0x40000400
 8005c14:	40000800 	.word	0x40000800
 8005c18:	40000c00 	.word	0x40000c00
 8005c1c:	40010400 	.word	0x40010400
 8005c20:	40014000 	.word	0x40014000
 8005c24:	40001800 	.word	0x40001800

08005c28 <HAL_TIMEx_CommutCallback>:
  * @brief  Hall commutation changed callback in non-blocking mode
  * @param  htim TIM handle
  * @retval None
  */
__weak void HAL_TIMEx_CommutCallback(TIM_HandleTypeDef *htim)
{
 8005c28:	b480      	push	{r7}
 8005c2a:	b083      	sub	sp, #12
 8005c2c:	af00      	add	r7, sp, #0
 8005c2e:	6078      	str	r0, [r7, #4]
  UNUSED(htim);

  /* NOTE : This function should not be modified, when the callback is needed,
            the HAL_TIMEx_CommutCallback could be implemented in the user file
   */
}
 8005c30:	bf00      	nop
 8005c32:	370c      	adds	r7, #12
 8005c34:	46bd      	mov	sp, r7
 8005c36:	f85d 7b04 	ldr.w	r7, [sp], #4
 8005c3a:	4770      	bx	lr

08005c3c <HAL_TIMEx_BreakCallback>:
  * @brief  Hall Break detection callback in non-blocking mode
  * @param  htim TIM handle
  * @retval None
  */
__weak void HAL_TIMEx_BreakCallback(TIM_HandleTypeDef *htim)
{
 8005c3c:	b480      	push	{r7}
 8005c3e:	b083      	sub	sp, #12
 8005c40:	af00      	add	r7, sp, #0
 8005c42:	6078      	str	r0, [r7, #4]
  UNUSED(htim);

  /* NOTE : This function should not be modified, when the callback is needed,
            the HAL_TIMEx_BreakCallback could be implemented in the user file
   */
}
 8005c44:	bf00      	nop
 8005c46:	370c      	adds	r7, #12
 8005c48:	46bd      	mov	sp, r7
 8005c4a:	f85d 7b04 	ldr.w	r7, [sp], #4
 8005c4e:	4770      	bx	lr

08005c50 <HAL_UART_Init>:
  * @param  huart  Pointer to a UART_HandleTypeDef structure that contains
  *                the configuration information for the specified UART module.
  * @retval HAL status
  */
HAL_StatusTypeDef HAL_UART_Init(UART_HandleTypeDef *huart)
{
 8005c50:	b580      	push	{r7, lr}
 8005c52:	b082      	sub	sp, #8
 8005c54:	af00      	add	r7, sp, #0
 8005c56:	6078      	str	r0, [r7, #4]
  /* Check the UART handle allocation */
  if (huart == NULL)
 8005c58:	687b      	ldr	r3, [r7, #4]
 8005c5a:	2b00      	cmp	r3, #0
 8005c5c:	d101      	bne.n	8005c62 <HAL_UART_Init+0x12>
  {
    return HAL_ERROR;
 8005c5e:	2301      	movs	r3, #1
 8005c60:	e03f      	b.n	8005ce2 <HAL_UART_Init+0x92>
    assert_param(IS_UART_INSTANCE(huart->Instance));
  }
  assert_param(IS_UART_WORD_LENGTH(huart->Init.WordLength));
  assert_param(IS_UART_OVERSAMPLING(huart->Init.OverSampling));

  if (huart->gState == HAL_UART_STATE_RESET)
 8005c62:	687b      	ldr	r3, [r7, #4]
 8005c64:	f893 3039 	ldrb.w	r3, [r3, #57]	; 0x39
 8005c68:	b2db      	uxtb	r3, r3
 8005c6a:	2b00      	cmp	r3, #0
 8005c6c:	d106      	bne.n	8005c7c <HAL_UART_Init+0x2c>
  {
    /* Allocate lock resource and initialize it */
    huart->Lock = HAL_UNLOCKED;
 8005c6e:	687b      	ldr	r3, [r7, #4]
 8005c70:	2200      	movs	r2, #0
 8005c72:	f883 2038 	strb.w	r2, [r3, #56]	; 0x38

    /* Init the low level hardware */
    huart->MspInitCallback(huart);
#else
    /* Init the low level hardware : GPIO, CLOCK */
    HAL_UART_MspInit(huart);
 8005c76:	6878      	ldr	r0, [r7, #4]
 8005c78:	f7fd fb7a 	bl	8003370 <HAL_UART_MspInit>
#endif /* (USE_HAL_UART_REGISTER_CALLBACKS) */
  }

  huart->gState = HAL_UART_STATE_BUSY;
 8005c7c:	687b      	ldr	r3, [r7, #4]
 8005c7e:	2224      	movs	r2, #36	; 0x24
 8005c80:	f883 2039 	strb.w	r2, [r3, #57]	; 0x39

  /* Disable the peripheral */
  __HAL_UART_DISABLE(huart);
 8005c84:	687b      	ldr	r3, [r7, #4]
 8005c86:	681b      	ldr	r3, [r3, #0]
 8005c88:	68da      	ldr	r2, [r3, #12]
 8005c8a:	687b      	ldr	r3, [r7, #4]
 8005c8c:	681b      	ldr	r3, [r3, #0]
 8005c8e:	f422 5200 	bic.w	r2, r2, #8192	; 0x2000
 8005c92:	60da      	str	r2, [r3, #12]

  /* Set the UART Communication parameters */
  UART_SetConfig(huart);
 8005c94:	6878      	ldr	r0, [r7, #4]
 8005c96:	f000 fb97 	bl	80063c8 <UART_SetConfig>

  /* In asynchronous mode, the following bits must be kept cleared:
     - LINEN and CLKEN bits in the USART_CR2 register,
     - SCEN, HDSEL and IREN  bits in the USART_CR3 register.*/
  CLEAR_BIT(huart->Instance->CR2, (USART_CR2_LINEN | USART_CR2_CLKEN));
 8005c9a:	687b      	ldr	r3, [r7, #4]
 8005c9c:	681b      	ldr	r3, [r3, #0]
 8005c9e:	691a      	ldr	r2, [r3, #16]
 8005ca0:	687b      	ldr	r3, [r7, #4]
 8005ca2:	681b      	ldr	r3, [r3, #0]
 8005ca4:	f422 4290 	bic.w	r2, r2, #18432	; 0x4800
 8005ca8:	611a      	str	r2, [r3, #16]
  CLEAR_BIT(huart->Instance->CR3, (USART_CR3_SCEN | USART_CR3_HDSEL | USART_CR3_IREN));
 8005caa:	687b      	ldr	r3, [r7, #4]
 8005cac:	681b      	ldr	r3, [r3, #0]
 8005cae:	695a      	ldr	r2, [r3, #20]
 8005cb0:	687b      	ldr	r3, [r7, #4]
 8005cb2:	681b      	ldr	r3, [r3, #0]
 8005cb4:	f022 022a 	bic.w	r2, r2, #42	; 0x2a
 8005cb8:	615a      	str	r2, [r3, #20]

  /* Enable the peripheral */
  __HAL_UART_ENABLE(huart);
 8005cba:	687b      	ldr	r3, [r7, #4]
 8005cbc:	681b      	ldr	r3, [r3, #0]
 8005cbe:	68da      	ldr	r2, [r3, #12]
 8005cc0:	687b      	ldr	r3, [r7, #4]
 8005cc2:	681b      	ldr	r3, [r3, #0]
 8005cc4:	f442 5200 	orr.w	r2, r2, #8192	; 0x2000
 8005cc8:	60da      	str	r2, [r3, #12]

  /* Initialize the UART state */
  huart->ErrorCode = HAL_UART_ERROR_NONE;
 8005cca:	687b      	ldr	r3, [r7, #4]
 8005ccc:	2200      	movs	r2, #0
 8005cce:	63da      	str	r2, [r3, #60]	; 0x3c
  huart->gState = HAL_UART_STATE_READY;
 8005cd0:	687b      	ldr	r3, [r7, #4]
 8005cd2:	2220      	movs	r2, #32
 8005cd4:	f883 2039 	strb.w	r2, [r3, #57]	; 0x39
  huart->RxState = HAL_UART_STATE_READY;
 8005cd8:	687b      	ldr	r3, [r7, #4]
 8005cda:	2220      	movs	r2, #32
 8005cdc:	f883 203a 	strb.w	r2, [r3, #58]	; 0x3a

  return HAL_OK;
 8005ce0:	2300      	movs	r3, #0
}
 8005ce2:	4618      	mov	r0, r3
 8005ce4:	3708      	adds	r7, #8
 8005ce6:	46bd      	mov	sp, r7
 8005ce8:	bd80      	pop	{r7, pc}

08005cea <HAL_UART_Transmit>:
  * @param  Size  Amount of data elements (u8 or u16) to be sent
  * @param  Timeout Timeout duration
  * @retval HAL status
  */
HAL_StatusTypeDef HAL_UART_Transmit(UART_HandleTypeDef *huart, uint8_t *pData, uint16_t Size, uint32_t Timeout)
{
 8005cea:	b580      	push	{r7, lr}
 8005cec:	b088      	sub	sp, #32
 8005cee:	af02      	add	r7, sp, #8
 8005cf0:	60f8      	str	r0, [r7, #12]
 8005cf2:	60b9      	str	r1, [r7, #8]
 8005cf4:	603b      	str	r3, [r7, #0]
 8005cf6:	4613      	mov	r3, r2
 8005cf8:	80fb      	strh	r3, [r7, #6]
  uint16_t *tmp;
  uint32_t tickstart = 0U;
 8005cfa:	2300      	movs	r3, #0
 8005cfc:	617b      	str	r3, [r7, #20]

  /* Check that a Tx process is not already ongoing */
  if (huart->gState == HAL_UART_STATE_READY)
 8005cfe:	68fb      	ldr	r3, [r7, #12]
 8005d00:	f893 3039 	ldrb.w	r3, [r3, #57]	; 0x39
 8005d04:	b2db      	uxtb	r3, r3
 8005d06:	2b20      	cmp	r3, #32
 8005d08:	f040 8083 	bne.w	8005e12 <HAL_UART_Transmit+0x128>
  {
    if ((pData == NULL) || (Size == 0U))
 8005d0c:	68bb      	ldr	r3, [r7, #8]
 8005d0e:	2b00      	cmp	r3, #0
 8005d10:	d002      	beq.n	8005d18 <HAL_UART_Transmit+0x2e>
 8005d12:	88fb      	ldrh	r3, [r7, #6]
 8005d14:	2b00      	cmp	r3, #0
 8005d16:	d101      	bne.n	8005d1c <HAL_UART_Transmit+0x32>
    {
      return  HAL_ERROR;
 8005d18:	2301      	movs	r3, #1
 8005d1a:	e07b      	b.n	8005e14 <HAL_UART_Transmit+0x12a>
    }

    /* Process Locked */
    __HAL_LOCK(huart);
 8005d1c:	68fb      	ldr	r3, [r7, #12]
 8005d1e:	f893 3038 	ldrb.w	r3, [r3, #56]	; 0x38
 8005d22:	2b01      	cmp	r3, #1
 8005d24:	d101      	bne.n	8005d2a <HAL_UART_Transmit+0x40>
 8005d26:	2302      	movs	r3, #2
 8005d28:	e074      	b.n	8005e14 <HAL_UART_Transmit+0x12a>
 8005d2a:	68fb      	ldr	r3, [r7, #12]
 8005d2c:	2201      	movs	r2, #1
 8005d2e:	f883 2038 	strb.w	r2, [r3, #56]	; 0x38

    huart->ErrorCode = HAL_UART_ERROR_NONE;
 8005d32:	68fb      	ldr	r3, [r7, #12]
 8005d34:	2200      	movs	r2, #0
 8005d36:	63da      	str	r2, [r3, #60]	; 0x3c
    huart->gState = HAL_UART_STATE_BUSY_TX;
 8005d38:	68fb      	ldr	r3, [r7, #12]
 8005d3a:	2221      	movs	r2, #33	; 0x21
 8005d3c:	f883 2039 	strb.w	r2, [r3, #57]	; 0x39

    /* Init tickstart for timeout managment */
    tickstart = HAL_GetTick();
 8005d40:	f7fd fc02 	bl	8003548 <HAL_GetTick>
 8005d44:	6178      	str	r0, [r7, #20]

    huart->TxXferSize = Size;
 8005d46:	68fb      	ldr	r3, [r7, #12]
 8005d48:	88fa      	ldrh	r2, [r7, #6]
 8005d4a:	849a      	strh	r2, [r3, #36]	; 0x24
    huart->TxXferCount = Size;
 8005d4c:	68fb      	ldr	r3, [r7, #12]
 8005d4e:	88fa      	ldrh	r2, [r7, #6]
 8005d50:	84da      	strh	r2, [r3, #38]	; 0x26

    /* Process Unlocked */
    __HAL_UNLOCK(huart);
 8005d52:	68fb      	ldr	r3, [r7, #12]
 8005d54:	2200      	movs	r2, #0
 8005d56:	f883 2038 	strb.w	r2, [r3, #56]	; 0x38

    while (huart->TxXferCount > 0U)
 8005d5a:	e042      	b.n	8005de2 <HAL_UART_Transmit+0xf8>
    {
      huart->TxXferCount--;
 8005d5c:	68fb      	ldr	r3, [r7, #12]
 8005d5e:	8cdb      	ldrh	r3, [r3, #38]	; 0x26
 8005d60:	b29b      	uxth	r3, r3
 8005d62:	3b01      	subs	r3, #1
 8005d64:	b29a      	uxth	r2, r3
 8005d66:	68fb      	ldr	r3, [r7, #12]
 8005d68:	84da      	strh	r2, [r3, #38]	; 0x26
      if (huart->Init.WordLength == UART_WORDLENGTH_9B)
 8005d6a:	68fb      	ldr	r3, [r7, #12]
 8005d6c:	689b      	ldr	r3, [r3, #8]
 8005d6e:	f5b3 5f80 	cmp.w	r3, #4096	; 0x1000
 8005d72:	d122      	bne.n	8005dba <HAL_UART_Transmit+0xd0>
      {
        if (UART_WaitOnFlagUntilTimeout(huart, UART_FLAG_TXE, RESET, tickstart, Timeout) != HAL_OK)
 8005d74:	683b      	ldr	r3, [r7, #0]
 8005d76:	9300      	str	r3, [sp, #0]
 8005d78:	697b      	ldr	r3, [r7, #20]
 8005d7a:	2200      	movs	r2, #0
 8005d7c:	2180      	movs	r1, #128	; 0x80
 8005d7e:	68f8      	ldr	r0, [r7, #12]
 8005d80:	f000 f9b6 	bl	80060f0 <UART_WaitOnFlagUntilTimeout>
 8005d84:	4603      	mov	r3, r0
 8005d86:	2b00      	cmp	r3, #0
 8005d88:	d001      	beq.n	8005d8e <HAL_UART_Transmit+0xa4>
        {
          return HAL_TIMEOUT;
 8005d8a:	2303      	movs	r3, #3
 8005d8c:	e042      	b.n	8005e14 <HAL_UART_Transmit+0x12a>
        }
        tmp = (uint16_t *) pData;
 8005d8e:	68bb      	ldr	r3, [r7, #8]
 8005d90:	613b      	str	r3, [r7, #16]
        huart->Instance->DR = (*tmp & (uint16_t)0x01FF);
 8005d92:	693b      	ldr	r3, [r7, #16]
 8005d94:	881b      	ldrh	r3, [r3, #0]
 8005d96:	461a      	mov	r2, r3
 8005d98:	68fb      	ldr	r3, [r7, #12]
 8005d9a:	681b      	ldr	r3, [r3, #0]
 8005d9c:	f3c2 0208 	ubfx	r2, r2, #0, #9
 8005da0:	605a      	str	r2, [r3, #4]
        if (huart->Init.Parity == UART_PARITY_NONE)
 8005da2:	68fb      	ldr	r3, [r7, #12]
 8005da4:	691b      	ldr	r3, [r3, #16]
 8005da6:	2b00      	cmp	r3, #0
 8005da8:	d103      	bne.n	8005db2 <HAL_UART_Transmit+0xc8>
        {
          pData += 2U;
 8005daa:	68bb      	ldr	r3, [r7, #8]
 8005dac:	3302      	adds	r3, #2
 8005dae:	60bb      	str	r3, [r7, #8]
 8005db0:	e017      	b.n	8005de2 <HAL_UART_Transmit+0xf8>
        }
        else
        {
          pData += 1U;
 8005db2:	68bb      	ldr	r3, [r7, #8]
 8005db4:	3301      	adds	r3, #1
 8005db6:	60bb      	str	r3, [r7, #8]
 8005db8:	e013      	b.n	8005de2 <HAL_UART_Transmit+0xf8>
        }
      }
      else
      {
        if (UART_WaitOnFlagUntilTimeout(huart, UART_FLAG_TXE, RESET, tickstart, Timeout) != HAL_OK)
 8005dba:	683b      	ldr	r3, [r7, #0]
 8005dbc:	9300      	str	r3, [sp, #0]
 8005dbe:	697b      	ldr	r3, [r7, #20]
 8005dc0:	2200      	movs	r2, #0
 8005dc2:	2180      	movs	r1, #128	; 0x80
 8005dc4:	68f8      	ldr	r0, [r7, #12]
 8005dc6:	f000 f993 	bl	80060f0 <UART_WaitOnFlagUntilTimeout>
 8005dca:	4603      	mov	r3, r0
 8005dcc:	2b00      	cmp	r3, #0
 8005dce:	d001      	beq.n	8005dd4 <HAL_UART_Transmit+0xea>
        {
          return HAL_TIMEOUT;
 8005dd0:	2303      	movs	r3, #3
 8005dd2:	e01f      	b.n	8005e14 <HAL_UART_Transmit+0x12a>
        }
        huart->Instance->DR = (*pData++ & (uint8_t)0xFF);
 8005dd4:	68bb      	ldr	r3, [r7, #8]
 8005dd6:	1c5a      	adds	r2, r3, #1
 8005dd8:	60ba      	str	r2, [r7, #8]
 8005dda:	781a      	ldrb	r2, [r3, #0]
 8005ddc:	68fb      	ldr	r3, [r7, #12]
 8005dde:	681b      	ldr	r3, [r3, #0]
 8005de0:	605a      	str	r2, [r3, #4]
    while (huart->TxXferCount > 0U)
 8005de2:	68fb      	ldr	r3, [r7, #12]
 8005de4:	8cdb      	ldrh	r3, [r3, #38]	; 0x26
 8005de6:	b29b      	uxth	r3, r3
 8005de8:	2b00      	cmp	r3, #0
 8005dea:	d1b7      	bne.n	8005d5c <HAL_UART_Transmit+0x72>
      }
    }

    if (UART_WaitOnFlagUntilTimeout(huart, UART_FLAG_TC, RESET, tickstart, Timeout) != HAL_OK)
 8005dec:	683b      	ldr	r3, [r7, #0]
 8005dee:	9300      	str	r3, [sp, #0]
 8005df0:	697b      	ldr	r3, [r7, #20]
 8005df2:	2200      	movs	r2, #0
 8005df4:	2140      	movs	r1, #64	; 0x40
 8005df6:	68f8      	ldr	r0, [r7, #12]
 8005df8:	f000 f97a 	bl	80060f0 <UART_WaitOnFlagUntilTimeout>
 8005dfc:	4603      	mov	r3, r0
 8005dfe:	2b00      	cmp	r3, #0
 8005e00:	d001      	beq.n	8005e06 <HAL_UART_Transmit+0x11c>
    {
      return HAL_TIMEOUT;
 8005e02:	2303      	movs	r3, #3
 8005e04:	e006      	b.n	8005e14 <HAL_UART_Transmit+0x12a>
    }

    /* At end of Tx process, restore huart->gState to Ready */
    huart->gState = HAL_UART_STATE_READY;
 8005e06:	68fb      	ldr	r3, [r7, #12]
 8005e08:	2220      	movs	r2, #32
 8005e0a:	f883 2039 	strb.w	r2, [r3, #57]	; 0x39

    return HAL_OK;
 8005e0e:	2300      	movs	r3, #0
 8005e10:	e000      	b.n	8005e14 <HAL_UART_Transmit+0x12a>
  }
  else
  {
    return HAL_BUSY;
 8005e12:	2302      	movs	r3, #2
  }
}
 8005e14:	4618      	mov	r0, r3
 8005e16:	3718      	adds	r7, #24
 8005e18:	46bd      	mov	sp, r7
 8005e1a:	bd80      	pop	{r7, pc}

08005e1c <HAL_UART_Receive_IT>:
  * @param  pData Pointer to data buffer (u8 or u16 data elements).
  * @param  Size  Amount of data elements (u8 or u16) to be received.
  * @retval HAL status
  */
HAL_StatusTypeDef HAL_UART_Receive_IT(UART_HandleTypeDef *huart, uint8_t *pData, uint16_t Size)
{
 8005e1c:	b480      	push	{r7}
 8005e1e:	b085      	sub	sp, #20
 8005e20:	af00      	add	r7, sp, #0
 8005e22:	60f8      	str	r0, [r7, #12]
 8005e24:	60b9      	str	r1, [r7, #8]
 8005e26:	4613      	mov	r3, r2
 8005e28:	80fb      	strh	r3, [r7, #6]
  /* Check that a Rx process is not already ongoing */
  if (huart->RxState == HAL_UART_STATE_READY)
 8005e2a:	68fb      	ldr	r3, [r7, #12]
 8005e2c:	f893 303a 	ldrb.w	r3, [r3, #58]	; 0x3a
 8005e30:	b2db      	uxtb	r3, r3
 8005e32:	2b20      	cmp	r3, #32
 8005e34:	d140      	bne.n	8005eb8 <HAL_UART_Receive_IT+0x9c>
  {
    if ((pData == NULL) || (Size == 0U))
 8005e36:	68bb      	ldr	r3, [r7, #8]
 8005e38:	2b00      	cmp	r3, #0
 8005e3a:	d002      	beq.n	8005e42 <HAL_UART_Receive_IT+0x26>
 8005e3c:	88fb      	ldrh	r3, [r7, #6]
 8005e3e:	2b00      	cmp	r3, #0
 8005e40:	d101      	bne.n	8005e46 <HAL_UART_Receive_IT+0x2a>
    {
      return HAL_ERROR;
 8005e42:	2301      	movs	r3, #1
 8005e44:	e039      	b.n	8005eba <HAL_UART_Receive_IT+0x9e>
    }

    /* Process Locked */
    __HAL_LOCK(huart);
 8005e46:	68fb      	ldr	r3, [r7, #12]
 8005e48:	f893 3038 	ldrb.w	r3, [r3, #56]	; 0x38
 8005e4c:	2b01      	cmp	r3, #1
 8005e4e:	d101      	bne.n	8005e54 <HAL_UART_Receive_IT+0x38>
 8005e50:	2302      	movs	r3, #2
 8005e52:	e032      	b.n	8005eba <HAL_UART_Receive_IT+0x9e>
 8005e54:	68fb      	ldr	r3, [r7, #12]
 8005e56:	2201      	movs	r2, #1
 8005e58:	f883 2038 	strb.w	r2, [r3, #56]	; 0x38

    huart->pRxBuffPtr = pData;
 8005e5c:	68fb      	ldr	r3, [r7, #12]
 8005e5e:	68ba      	ldr	r2, [r7, #8]
 8005e60:	629a      	str	r2, [r3, #40]	; 0x28
    huart->RxXferSize = Size;
 8005e62:	68fb      	ldr	r3, [r7, #12]
 8005e64:	88fa      	ldrh	r2, [r7, #6]
 8005e66:	859a      	strh	r2, [r3, #44]	; 0x2c
    huart->RxXferCount = Size;
 8005e68:	68fb      	ldr	r3, [r7, #12]
 8005e6a:	88fa      	ldrh	r2, [r7, #6]
 8005e6c:	85da      	strh	r2, [r3, #46]	; 0x2e

    huart->ErrorCode = HAL_UART_ERROR_NONE;
 8005e6e:	68fb      	ldr	r3, [r7, #12]
 8005e70:	2200      	movs	r2, #0
 8005e72:	63da      	str	r2, [r3, #60]	; 0x3c
    huart->RxState = HAL_UART_STATE_BUSY_RX;
 8005e74:	68fb      	ldr	r3, [r7, #12]
 8005e76:	2222      	movs	r2, #34	; 0x22
 8005e78:	f883 203a 	strb.w	r2, [r3, #58]	; 0x3a

    /* Process Unlocked */
    __HAL_UNLOCK(huart);
 8005e7c:	68fb      	ldr	r3, [r7, #12]
 8005e7e:	2200      	movs	r2, #0
 8005e80:	f883 2038 	strb.w	r2, [r3, #56]	; 0x38

    /* Enable the UART Parity Error Interrupt */
    __HAL_UART_ENABLE_IT(huart, UART_IT_PE);
 8005e84:	68fb      	ldr	r3, [r7, #12]
 8005e86:	681b      	ldr	r3, [r3, #0]
 8005e88:	68da      	ldr	r2, [r3, #12]
 8005e8a:	68fb      	ldr	r3, [r7, #12]
 8005e8c:	681b      	ldr	r3, [r3, #0]
 8005e8e:	f442 7280 	orr.w	r2, r2, #256	; 0x100
 8005e92:	60da      	str	r2, [r3, #12]

    /* Enable the UART Error Interrupt: (Frame error, noise error, overrun error) */
    __HAL_UART_ENABLE_IT(huart, UART_IT_ERR);
 8005e94:	68fb      	ldr	r3, [r7, #12]
 8005e96:	681b      	ldr	r3, [r3, #0]
 8005e98:	695a      	ldr	r2, [r3, #20]
 8005e9a:	68fb      	ldr	r3, [r7, #12]
 8005e9c:	681b      	ldr	r3, [r3, #0]
 8005e9e:	f042 0201 	orr.w	r2, r2, #1
 8005ea2:	615a      	str	r2, [r3, #20]

    /* Enable the UART Data Register not empty Interrupt */
    __HAL_UART_ENABLE_IT(huart, UART_IT_RXNE);
 8005ea4:	68fb      	ldr	r3, [r7, #12]
 8005ea6:	681b      	ldr	r3, [r3, #0]
 8005ea8:	68da      	ldr	r2, [r3, #12]
 8005eaa:	68fb      	ldr	r3, [r7, #12]
 8005eac:	681b      	ldr	r3, [r3, #0]
 8005eae:	f042 0220 	orr.w	r2, r2, #32
 8005eb2:	60da      	str	r2, [r3, #12]

    return HAL_OK;
 8005eb4:	2300      	movs	r3, #0
 8005eb6:	e000      	b.n	8005eba <HAL_UART_Receive_IT+0x9e>
  }
  else
  {
    return HAL_BUSY;
 8005eb8:	2302      	movs	r3, #2
  }
}
 8005eba:	4618      	mov	r0, r3
 8005ebc:	3714      	adds	r7, #20
 8005ebe:	46bd      	mov	sp, r7
 8005ec0:	f85d 7b04 	ldr.w	r7, [sp], #4
 8005ec4:	4770      	bx	lr
	...

08005ec8 <HAL_UART_IRQHandler>:
  * @param  huart  Pointer to a UART_HandleTypeDef structure that contains
  *                the configuration information for the specified UART module.
  * @retval None
  */
void HAL_UART_IRQHandler(UART_HandleTypeDef *huart)
{
 8005ec8:	b580      	push	{r7, lr}
 8005eca:	b088      	sub	sp, #32
 8005ecc:	af00      	add	r7, sp, #0
 8005ece:	6078      	str	r0, [r7, #4]
  uint32_t isrflags   = READ_REG(huart->Instance->SR);
 8005ed0:	687b      	ldr	r3, [r7, #4]
 8005ed2:	681b      	ldr	r3, [r3, #0]
 8005ed4:	681b      	ldr	r3, [r3, #0]
 8005ed6:	61fb      	str	r3, [r7, #28]
  uint32_t cr1its     = READ_REG(huart->Instance->CR1);
 8005ed8:	687b      	ldr	r3, [r7, #4]
 8005eda:	681b      	ldr	r3, [r3, #0]
 8005edc:	68db      	ldr	r3, [r3, #12]
 8005ede:	61bb      	str	r3, [r7, #24]
  uint32_t cr3its     = READ_REG(huart->Instance->CR3);
 8005ee0:	687b      	ldr	r3, [r7, #4]
 8005ee2:	681b      	ldr	r3, [r3, #0]
 8005ee4:	695b      	ldr	r3, [r3, #20]
 8005ee6:	617b      	str	r3, [r7, #20]
  uint32_t errorflags = 0x00U;
 8005ee8:	2300      	movs	r3, #0
 8005eea:	613b      	str	r3, [r7, #16]
  uint32_t dmarequest = 0x00U;
 8005eec:	2300      	movs	r3, #0
 8005eee:	60fb      	str	r3, [r7, #12]

  /* If no error occurs */
  errorflags = (isrflags & (uint32_t)(USART_SR_PE | USART_SR_FE | USART_SR_ORE | USART_SR_NE));
 8005ef0:	69fb      	ldr	r3, [r7, #28]
 8005ef2:	f003 030f 	and.w	r3, r3, #15
 8005ef6:	613b      	str	r3, [r7, #16]
  if (errorflags == RESET)
 8005ef8:	693b      	ldr	r3, [r7, #16]
 8005efa:	2b00      	cmp	r3, #0
 8005efc:	d10d      	bne.n	8005f1a <HAL_UART_IRQHandler+0x52>
  {
    /* UART in mode Receiver -------------------------------------------------*/
    if (((isrflags & USART_SR_RXNE) != RESET) && ((cr1its & USART_CR1_RXNEIE) != RESET))
 8005efe:	69fb      	ldr	r3, [r7, #28]
 8005f00:	f003 0320 	and.w	r3, r3, #32
 8005f04:	2b00      	cmp	r3, #0
 8005f06:	d008      	beq.n	8005f1a <HAL_UART_IRQHandler+0x52>
 8005f08:	69bb      	ldr	r3, [r7, #24]
 8005f0a:	f003 0320 	and.w	r3, r3, #32
 8005f0e:	2b00      	cmp	r3, #0
 8005f10:	d003      	beq.n	8005f1a <HAL_UART_IRQHandler+0x52>
    {
      UART_Receive_IT(huart);
 8005f12:	6878      	ldr	r0, [r7, #4]
 8005f14:	f000 f9d6 	bl	80062c4 <UART_Receive_IT>
      return;
 8005f18:	e0d1      	b.n	80060be <HAL_UART_IRQHandler+0x1f6>
    }
  }

  /* If some errors occur */
  if ((errorflags != RESET) && (((cr3its & USART_CR3_EIE) != RESET) || ((cr1its & (USART_CR1_RXNEIE | USART_CR1_PEIE)) != RESET)))
 8005f1a:	693b      	ldr	r3, [r7, #16]
 8005f1c:	2b00      	cmp	r3, #0
 8005f1e:	f000 80b0 	beq.w	8006082 <HAL_UART_IRQHandler+0x1ba>
 8005f22:	697b      	ldr	r3, [r7, #20]
 8005f24:	f003 0301 	and.w	r3, r3, #1
 8005f28:	2b00      	cmp	r3, #0
 8005f2a:	d105      	bne.n	8005f38 <HAL_UART_IRQHandler+0x70>
 8005f2c:	69bb      	ldr	r3, [r7, #24]
 8005f2e:	f403 7390 	and.w	r3, r3, #288	; 0x120
 8005f32:	2b00      	cmp	r3, #0
 8005f34:	f000 80a5 	beq.w	8006082 <HAL_UART_IRQHandler+0x1ba>
  {
    /* UART parity error interrupt occurred ----------------------------------*/
    if (((isrflags & USART_SR_PE) != RESET) && ((cr1its & USART_CR1_PEIE) != RESET))
 8005f38:	69fb      	ldr	r3, [r7, #28]
 8005f3a:	f003 0301 	and.w	r3, r3, #1
 8005f3e:	2b00      	cmp	r3, #0
 8005f40:	d00a      	beq.n	8005f58 <HAL_UART_IRQHandler+0x90>
 8005f42:	69bb      	ldr	r3, [r7, #24]
 8005f44:	f403 7380 	and.w	r3, r3, #256	; 0x100
 8005f48:	2b00      	cmp	r3, #0
 8005f4a:	d005      	beq.n	8005f58 <HAL_UART_IRQHandler+0x90>
    {
      huart->ErrorCode |= HAL_UART_ERROR_PE;
 8005f4c:	687b      	ldr	r3, [r7, #4]
 8005f4e:	6bdb      	ldr	r3, [r3, #60]	; 0x3c
 8005f50:	f043 0201 	orr.w	r2, r3, #1
 8005f54:	687b      	ldr	r3, [r7, #4]
 8005f56:	63da      	str	r2, [r3, #60]	; 0x3c
    }

    /* UART noise error interrupt occurred -----------------------------------*/
    if (((isrflags & USART_SR_NE) != RESET) && ((cr3its & USART_CR3_EIE) != RESET))
 8005f58:	69fb      	ldr	r3, [r7, #28]
 8005f5a:	f003 0304 	and.w	r3, r3, #4
 8005f5e:	2b00      	cmp	r3, #0
 8005f60:	d00a      	beq.n	8005f78 <HAL_UART_IRQHandler+0xb0>
 8005f62:	697b      	ldr	r3, [r7, #20]
 8005f64:	f003 0301 	and.w	r3, r3, #1
 8005f68:	2b00      	cmp	r3, #0
 8005f6a:	d005      	beq.n	8005f78 <HAL_UART_IRQHandler+0xb0>
    {
      huart->ErrorCode |= HAL_UART_ERROR_NE;
 8005f6c:	687b      	ldr	r3, [r7, #4]
 8005f6e:	6bdb      	ldr	r3, [r3, #60]	; 0x3c
 8005f70:	f043 0202 	orr.w	r2, r3, #2
 8005f74:	687b      	ldr	r3, [r7, #4]
 8005f76:	63da      	str	r2, [r3, #60]	; 0x3c
    }

    /* UART frame error interrupt occurred -----------------------------------*/
    if (((isrflags & USART_SR_FE) != RESET) && ((cr3its & USART_CR3_EIE) != RESET))
 8005f78:	69fb      	ldr	r3, [r7, #28]
 8005f7a:	f003 0302 	and.w	r3, r3, #2
 8005f7e:	2b00      	cmp	r3, #0
 8005f80:	d00a      	beq.n	8005f98 <HAL_UART_IRQHandler+0xd0>
 8005f82:	697b      	ldr	r3, [r7, #20]
 8005f84:	f003 0301 	and.w	r3, r3, #1
 8005f88:	2b00      	cmp	r3, #0
 8005f8a:	d005      	beq.n	8005f98 <HAL_UART_IRQHandler+0xd0>
    {
      huart->ErrorCode |= HAL_UART_ERROR_FE;
 8005f8c:	687b      	ldr	r3, [r7, #4]
 8005f8e:	6bdb      	ldr	r3, [r3, #60]	; 0x3c
 8005f90:	f043 0204 	orr.w	r2, r3, #4
 8005f94:	687b      	ldr	r3, [r7, #4]
 8005f96:	63da      	str	r2, [r3, #60]	; 0x3c
    }

    /* UART Over-Run interrupt occurred --------------------------------------*/
    if (((isrflags & USART_SR_ORE) != RESET) && (((cr1its & USART_CR1_RXNEIE) != RESET) || ((cr3its & USART_CR3_EIE) != RESET)))
 8005f98:	69fb      	ldr	r3, [r7, #28]
 8005f9a:	f003 0308 	and.w	r3, r3, #8
 8005f9e:	2b00      	cmp	r3, #0
 8005fa0:	d00f      	beq.n	8005fc2 <HAL_UART_IRQHandler+0xfa>
 8005fa2:	69bb      	ldr	r3, [r7, #24]
 8005fa4:	f003 0320 	and.w	r3, r3, #32
 8005fa8:	2b00      	cmp	r3, #0
 8005faa:	d104      	bne.n	8005fb6 <HAL_UART_IRQHandler+0xee>
 8005fac:	697b      	ldr	r3, [r7, #20]
 8005fae:	f003 0301 	and.w	r3, r3, #1
 8005fb2:	2b00      	cmp	r3, #0
 8005fb4:	d005      	beq.n	8005fc2 <HAL_UART_IRQHandler+0xfa>
    {
      huart->ErrorCode |= HAL_UART_ERROR_ORE;
 8005fb6:	687b      	ldr	r3, [r7, #4]
 8005fb8:	6bdb      	ldr	r3, [r3, #60]	; 0x3c
 8005fba:	f043 0208 	orr.w	r2, r3, #8
 8005fbe:	687b      	ldr	r3, [r7, #4]
 8005fc0:	63da      	str	r2, [r3, #60]	; 0x3c
    }

    /* Call UART Error Call back function if need be --------------------------*/
    if (huart->ErrorCode != HAL_UART_ERROR_NONE)
 8005fc2:	687b      	ldr	r3, [r7, #4]
 8005fc4:	6bdb      	ldr	r3, [r3, #60]	; 0x3c
 8005fc6:	2b00      	cmp	r3, #0
 8005fc8:	d078      	beq.n	80060bc <HAL_UART_IRQHandler+0x1f4>
    {
      /* UART in mode Receiver -----------------------------------------------*/
      if (((isrflags & USART_SR_RXNE) != RESET) && ((cr1its & USART_CR1_RXNEIE) != RESET))
 8005fca:	69fb      	ldr	r3, [r7, #28]
 8005fcc:	f003 0320 	and.w	r3, r3, #32
 8005fd0:	2b00      	cmp	r3, #0
 8005fd2:	d007      	beq.n	8005fe4 <HAL_UART_IRQHandler+0x11c>
 8005fd4:	69bb      	ldr	r3, [r7, #24]
 8005fd6:	f003 0320 	and.w	r3, r3, #32
 8005fda:	2b00      	cmp	r3, #0
 8005fdc:	d002      	beq.n	8005fe4 <HAL_UART_IRQHandler+0x11c>
      {
        UART_Receive_IT(huart);
 8005fde:	6878      	ldr	r0, [r7, #4]
 8005fe0:	f000 f970 	bl	80062c4 <UART_Receive_IT>
      }

      /* If Overrun error occurs, or if any error occurs in DMA mode reception,
         consider error as blocking */
      dmarequest = HAL_IS_BIT_SET(huart->Instance->CR3, USART_CR3_DMAR);
 8005fe4:	687b      	ldr	r3, [r7, #4]
 8005fe6:	681b      	ldr	r3, [r3, #0]
 8005fe8:	695b      	ldr	r3, [r3, #20]
 8005fea:	f003 0340 	and.w	r3, r3, #64	; 0x40
 8005fee:	2b40      	cmp	r3, #64	; 0x40
 8005ff0:	bf0c      	ite	eq
 8005ff2:	2301      	moveq	r3, #1
 8005ff4:	2300      	movne	r3, #0
 8005ff6:	b2db      	uxtb	r3, r3
 8005ff8:	60fb      	str	r3, [r7, #12]
      if (((huart->ErrorCode & HAL_UART_ERROR_ORE) != RESET) || dmarequest)
 8005ffa:	687b      	ldr	r3, [r7, #4]
 8005ffc:	6bdb      	ldr	r3, [r3, #60]	; 0x3c
 8005ffe:	f003 0308 	and.w	r3, r3, #8
 8006002:	2b00      	cmp	r3, #0
 8006004:	d102      	bne.n	800600c <HAL_UART_IRQHandler+0x144>
 8006006:	68fb      	ldr	r3, [r7, #12]
 8006008:	2b00      	cmp	r3, #0
 800600a:	d031      	beq.n	8006070 <HAL_UART_IRQHandler+0x1a8>
      {
        /* Blocking error : transfer is aborted
           Set the UART state ready to be able to start again the process,
           Disable Rx Interrupts, and disable Rx DMA request, if ongoing */
        UART_EndRxTransfer(huart);
 800600c:	6878      	ldr	r0, [r7, #4]
 800600e:	f000 f8b9 	bl	8006184 <UART_EndRxTransfer>

        /* Disable the UART DMA Rx request if enabled */
        if (HAL_IS_BIT_SET(huart->Instance->CR3, USART_CR3_DMAR))
 8006012:	687b      	ldr	r3, [r7, #4]
 8006014:	681b      	ldr	r3, [r3, #0]
 8006016:	695b      	ldr	r3, [r3, #20]
 8006018:	f003 0340 	and.w	r3, r3, #64	; 0x40
 800601c:	2b40      	cmp	r3, #64	; 0x40
 800601e:	d123      	bne.n	8006068 <HAL_UART_IRQHandler+0x1a0>
        {
          CLEAR_BIT(huart->Instance->CR3, USART_CR3_DMAR);
 8006020:	687b      	ldr	r3, [r7, #4]
 8006022:	681b      	ldr	r3, [r3, #0]
 8006024:	695a      	ldr	r2, [r3, #20]
 8006026:	687b      	ldr	r3, [r7, #4]
 8006028:	681b      	ldr	r3, [r3, #0]
 800602a:	f022 0240 	bic.w	r2, r2, #64	; 0x40
 800602e:	615a      	str	r2, [r3, #20]

          /* Abort the UART DMA Rx stream */
          if (huart->hdmarx != NULL)
 8006030:	687b      	ldr	r3, [r7, #4]
 8006032:	6b5b      	ldr	r3, [r3, #52]	; 0x34
 8006034:	2b00      	cmp	r3, #0
 8006036:	d013      	beq.n	8006060 <HAL_UART_IRQHandler+0x198>
          {
            /* Set the UART DMA Abort callback :
               will lead to call HAL_UART_ErrorCallback() at end of DMA abort procedure */
            huart->hdmarx->XferAbortCallback = UART_DMAAbortOnError;
 8006038:	687b      	ldr	r3, [r7, #4]
 800603a:	6b5b      	ldr	r3, [r3, #52]	; 0x34
 800603c:	4a21      	ldr	r2, [pc, #132]	; (80060c4 <HAL_UART_IRQHandler+0x1fc>)
 800603e:	651a      	str	r2, [r3, #80]	; 0x50
            if (HAL_DMA_Abort_IT(huart->hdmarx) != HAL_OK)
 8006040:	687b      	ldr	r3, [r7, #4]
 8006042:	6b5b      	ldr	r3, [r3, #52]	; 0x34
 8006044:	4618      	mov	r0, r3
 8006046:	f7fe f9c9 	bl	80043dc <HAL_DMA_Abort_IT>
 800604a:	4603      	mov	r3, r0
 800604c:	2b00      	cmp	r3, #0
 800604e:	d016      	beq.n	800607e <HAL_UART_IRQHandler+0x1b6>
            {
              /* Call Directly XferAbortCallback function in case of error */
              huart->hdmarx->XferAbortCallback(huart->hdmarx);
 8006050:	687b      	ldr	r3, [r7, #4]
 8006052:	6b5b      	ldr	r3, [r3, #52]	; 0x34
 8006054:	6d1b      	ldr	r3, [r3, #80]	; 0x50
 8006056:	687a      	ldr	r2, [r7, #4]
 8006058:	6b52      	ldr	r2, [r2, #52]	; 0x34
 800605a:	4610      	mov	r0, r2
 800605c:	4798      	blx	r3
        if (HAL_IS_BIT_SET(huart->Instance->CR3, USART_CR3_DMAR))
 800605e:	e00e      	b.n	800607e <HAL_UART_IRQHandler+0x1b6>
#if (USE_HAL_UART_REGISTER_CALLBACKS == 1)
            /*Call registered error callback*/
            huart->ErrorCallback(huart);
#else
            /*Call legacy weak error callback*/
            HAL_UART_ErrorCallback(huart);
 8006060:	6878      	ldr	r0, [r7, #4]
 8006062:	f000 f83b 	bl	80060dc <HAL_UART_ErrorCallback>
        if (HAL_IS_BIT_SET(huart->Instance->CR3, USART_CR3_DMAR))
 8006066:	e00a      	b.n	800607e <HAL_UART_IRQHandler+0x1b6>
#if (USE_HAL_UART_REGISTER_CALLBACKS == 1)
          /*Call registered error callback*/
          huart->ErrorCallback(huart);
#else
          /*Call legacy weak error callback*/
          HAL_UART_ErrorCallback(huart);
 8006068:	6878      	ldr	r0, [r7, #4]
 800606a:	f000 f837 	bl	80060dc <HAL_UART_ErrorCallback>
        if (HAL_IS_BIT_SET(huart->Instance->CR3, USART_CR3_DMAR))
 800606e:	e006      	b.n	800607e <HAL_UART_IRQHandler+0x1b6>
#if (USE_HAL_UART_REGISTER_CALLBACKS == 1)
        /*Call registered error callback*/
        huart->ErrorCallback(huart);
#else
        /*Call legacy weak error callback*/
        HAL_UART_ErrorCallback(huart);
 8006070:	6878      	ldr	r0, [r7, #4]
 8006072:	f000 f833 	bl	80060dc <HAL_UART_ErrorCallback>
#endif /* USE_HAL_UART_REGISTER_CALLBACKS */

        huart->ErrorCode = HAL_UART_ERROR_NONE;
 8006076:	687b      	ldr	r3, [r7, #4]
 8006078:	2200      	movs	r2, #0
 800607a:	63da      	str	r2, [r3, #60]	; 0x3c
      }
    }
    return;
 800607c:	e01e      	b.n	80060bc <HAL_UART_IRQHandler+0x1f4>
        if (HAL_IS_BIT_SET(huart->Instance->CR3, USART_CR3_DMAR))
 800607e:	bf00      	nop
    return;
 8006080:	e01c      	b.n	80060bc <HAL_UART_IRQHandler+0x1f4>
  } /* End if some error occurs */

  /* UART in mode Transmitter ------------------------------------------------*/
  if (((isrflags & USART_SR_TXE) != RESET) && ((cr1its & USART_CR1_TXEIE) != RESET))
 8006082:	69fb      	ldr	r3, [r7, #28]
 8006084:	f003 0380 	and.w	r3, r3, #128	; 0x80
 8006088:	2b00      	cmp	r3, #0
 800608a:	d008      	beq.n	800609e <HAL_UART_IRQHandler+0x1d6>
 800608c:	69bb      	ldr	r3, [r7, #24]
 800608e:	f003 0380 	and.w	r3, r3, #128	; 0x80
 8006092:	2b00      	cmp	r3, #0
 8006094:	d003      	beq.n	800609e <HAL_UART_IRQHandler+0x1d6>
  {
    UART_Transmit_IT(huart);
 8006096:	6878      	ldr	r0, [r7, #4]
 8006098:	f000 f8a6 	bl	80061e8 <UART_Transmit_IT>
    return;
 800609c:	e00f      	b.n	80060be <HAL_UART_IRQHandler+0x1f6>
  }

  /* UART in mode Transmitter end --------------------------------------------*/
  if (((isrflags & USART_SR_TC) != RESET) && ((cr1its & USART_CR1_TCIE) != RESET))
 800609e:	69fb      	ldr	r3, [r7, #28]
 80060a0:	f003 0340 	and.w	r3, r3, #64	; 0x40
 80060a4:	2b00      	cmp	r3, #0
 80060a6:	d00a      	beq.n	80060be <HAL_UART_IRQHandler+0x1f6>
 80060a8:	69bb      	ldr	r3, [r7, #24]
 80060aa:	f003 0340 	and.w	r3, r3, #64	; 0x40
 80060ae:	2b00      	cmp	r3, #0
 80060b0:	d005      	beq.n	80060be <HAL_UART_IRQHandler+0x1f6>
  {
    UART_EndTransmit_IT(huart);
 80060b2:	6878      	ldr	r0, [r7, #4]
 80060b4:	f000 f8ee 	bl	8006294 <UART_EndTransmit_IT>
    return;
 80060b8:	bf00      	nop
 80060ba:	e000      	b.n	80060be <HAL_UART_IRQHandler+0x1f6>
    return;
 80060bc:	bf00      	nop
  }
}
 80060be:	3720      	adds	r7, #32
 80060c0:	46bd      	mov	sp, r7
 80060c2:	bd80      	pop	{r7, pc}
 80060c4:	080061c1 	.word	0x080061c1

080060c8 <HAL_UART_TxCpltCallback>:
  * @param  huart  Pointer to a UART_HandleTypeDef structure that contains
  *                the configuration information for the specified UART module.
  * @retval None
  */
__weak void HAL_UART_TxCpltCallback(UART_HandleTypeDef *huart)
{
 80060c8:	b480      	push	{r7}
 80060ca:	b083      	sub	sp, #12
 80060cc:	af00      	add	r7, sp, #0
 80060ce:	6078      	str	r0, [r7, #4]
  /* Prevent unused argument(s) compilation warning */
  UNUSED(huart);
  /* NOTE: This function should not be modified, when the callback is needed,
           the HAL_UART_TxCpltCallback could be implemented in the user file
   */
}
 80060d0:	bf00      	nop
 80060d2:	370c      	adds	r7, #12
 80060d4:	46bd      	mov	sp, r7
 80060d6:	f85d 7b04 	ldr.w	r7, [sp], #4
 80060da:	4770      	bx	lr

080060dc <HAL_UART_ErrorCallback>:
  * @param  huart  Pointer to a UART_HandleTypeDef structure that contains
  *                the configuration information for the specified UART module.
  * @retval None
  */
__weak void HAL_UART_ErrorCallback(UART_HandleTypeDef *huart)
{
 80060dc:	b480      	push	{r7}
 80060de:	b083      	sub	sp, #12
 80060e0:	af00      	add	r7, sp, #0
 80060e2:	6078      	str	r0, [r7, #4]
  /* Prevent unused argument(s) compilation warning */
  UNUSED(huart);
  /* NOTE: This function should not be modified, when the callback is needed,
           the HAL_UART_ErrorCallback could be implemented in the user file
   */
}
 80060e4:	bf00      	nop
 80060e6:	370c      	adds	r7, #12
 80060e8:	46bd      	mov	sp, r7
 80060ea:	f85d 7b04 	ldr.w	r7, [sp], #4
 80060ee:	4770      	bx	lr

080060f0 <UART_WaitOnFlagUntilTimeout>:
  * @param  Tickstart Tick start value
  * @param  Timeout Timeout duration
  * @retval HAL status
  */
static HAL_StatusTypeDef UART_WaitOnFlagUntilTimeout(UART_HandleTypeDef *huart, uint32_t Flag, FlagStatus Status, uint32_t Tickstart, uint32_t Timeout)
{
 80060f0:	b580      	push	{r7, lr}
 80060f2:	b084      	sub	sp, #16
 80060f4:	af00      	add	r7, sp, #0
 80060f6:	60f8      	str	r0, [r7, #12]
 80060f8:	60b9      	str	r1, [r7, #8]
 80060fa:	603b      	str	r3, [r7, #0]
 80060fc:	4613      	mov	r3, r2
 80060fe:	71fb      	strb	r3, [r7, #7]
  /* Wait until flag is set */
  while ((__HAL_UART_GET_FLAG(huart, Flag) ? SET : RESET) == Status)
 8006100:	e02c      	b.n	800615c <UART_WaitOnFlagUntilTimeout+0x6c>
  {
    /* Check for the Timeout */
    if (Timeout != HAL_MAX_DELAY)
 8006102:	69bb      	ldr	r3, [r7, #24]
 8006104:	f1b3 3fff 	cmp.w	r3, #4294967295
 8006108:	d028      	beq.n	800615c <UART_WaitOnFlagUntilTimeout+0x6c>
    {
      if ((Timeout == 0U) || ((HAL_GetTick() - Tickstart) > Timeout))
 800610a:	69bb      	ldr	r3, [r7, #24]
 800610c:	2b00      	cmp	r3, #0
 800610e:	d007      	beq.n	8006120 <UART_WaitOnFlagUntilTimeout+0x30>
 8006110:	f7fd fa1a 	bl	8003548 <HAL_GetTick>
 8006114:	4602      	mov	r2, r0
 8006116:	683b      	ldr	r3, [r7, #0]
 8006118:	1ad3      	subs	r3, r2, r3
 800611a:	69ba      	ldr	r2, [r7, #24]
 800611c:	429a      	cmp	r2, r3
 800611e:	d21d      	bcs.n	800615c <UART_WaitOnFlagUntilTimeout+0x6c>
      {
        /* Disable TXE, RXNE, PE and ERR (Frame error, noise error, overrun error) interrupts for the interrupt process */
        CLEAR_BIT(huart->Instance->CR1, (USART_CR1_RXNEIE | USART_CR1_PEIE | USART_CR1_TXEIE));
 8006120:	68fb      	ldr	r3, [r7, #12]
 8006122:	681b      	ldr	r3, [r3, #0]
 8006124:	68da      	ldr	r2, [r3, #12]
 8006126:	68fb      	ldr	r3, [r7, #12]
 8006128:	681b      	ldr	r3, [r3, #0]
 800612a:	f422 72d0 	bic.w	r2, r2, #416	; 0x1a0
 800612e:	60da      	str	r2, [r3, #12]
        CLEAR_BIT(huart->Instance->CR3, USART_CR3_EIE);
 8006130:	68fb      	ldr	r3, [r7, #12]
 8006132:	681b      	ldr	r3, [r3, #0]
 8006134:	695a      	ldr	r2, [r3, #20]
 8006136:	68fb      	ldr	r3, [r7, #12]
 8006138:	681b      	ldr	r3, [r3, #0]
 800613a:	f022 0201 	bic.w	r2, r2, #1
 800613e:	615a      	str	r2, [r3, #20]

        huart->gState  = HAL_UART_STATE_READY;
 8006140:	68fb      	ldr	r3, [r7, #12]
 8006142:	2220      	movs	r2, #32
 8006144:	f883 2039 	strb.w	r2, [r3, #57]	; 0x39
        huart->RxState = HAL_UART_STATE_READY;
 8006148:	68fb      	ldr	r3, [r7, #12]
 800614a:	2220      	movs	r2, #32
 800614c:	f883 203a 	strb.w	r2, [r3, #58]	; 0x3a

        /* Process Unlocked */
        __HAL_UNLOCK(huart);
 8006150:	68fb      	ldr	r3, [r7, #12]
 8006152:	2200      	movs	r2, #0
 8006154:	f883 2038 	strb.w	r2, [r3, #56]	; 0x38

        return HAL_TIMEOUT;
 8006158:	2303      	movs	r3, #3
 800615a:	e00f      	b.n	800617c <UART_WaitOnFlagUntilTimeout+0x8c>
  while ((__HAL_UART_GET_FLAG(huart, Flag) ? SET : RESET) == Status)
 800615c:	68fb      	ldr	r3, [r7, #12]
 800615e:	681b      	ldr	r3, [r3, #0]
 8006160:	681a      	ldr	r2, [r3, #0]
 8006162:	68bb      	ldr	r3, [r7, #8]
 8006164:	4013      	ands	r3, r2
 8006166:	68ba      	ldr	r2, [r7, #8]
 8006168:	429a      	cmp	r2, r3
 800616a:	bf0c      	ite	eq
 800616c:	2301      	moveq	r3, #1
 800616e:	2300      	movne	r3, #0
 8006170:	b2db      	uxtb	r3, r3
 8006172:	461a      	mov	r2, r3
 8006174:	79fb      	ldrb	r3, [r7, #7]
 8006176:	429a      	cmp	r2, r3
 8006178:	d0c3      	beq.n	8006102 <UART_WaitOnFlagUntilTimeout+0x12>
      }
    }
  }
  return HAL_OK;
 800617a:	2300      	movs	r3, #0
}
 800617c:	4618      	mov	r0, r3
 800617e:	3710      	adds	r7, #16
 8006180:	46bd      	mov	sp, r7
 8006182:	bd80      	pop	{r7, pc}

08006184 <UART_EndRxTransfer>:
  * @brief  End ongoing Rx transfer on UART peripheral (following error detection or Reception completion).
  * @param  huart UART handle.
  * @retval None
  */
static void UART_EndRxTransfer(UART_HandleTypeDef *huart)
{
 8006184:	b480      	push	{r7}
 8006186:	b083      	sub	sp, #12
 8006188:	af00      	add	r7, sp, #0
 800618a:	6078      	str	r0, [r7, #4]
  /* Disable RXNE, PE and ERR (Frame error, noise error, overrun error) interrupts */
  CLEAR_BIT(huart->Instance->CR1, (USART_CR1_RXNEIE | USART_CR1_PEIE));
 800618c:	687b      	ldr	r3, [r7, #4]
 800618e:	681b      	ldr	r3, [r3, #0]
 8006190:	68da      	ldr	r2, [r3, #12]
 8006192:	687b      	ldr	r3, [r7, #4]
 8006194:	681b      	ldr	r3, [r3, #0]
 8006196:	f422 7290 	bic.w	r2, r2, #288	; 0x120
 800619a:	60da      	str	r2, [r3, #12]
  CLEAR_BIT(huart->Instance->CR3, USART_CR3_EIE);
 800619c:	687b      	ldr	r3, [r7, #4]
 800619e:	681b      	ldr	r3, [r3, #0]
 80061a0:	695a      	ldr	r2, [r3, #20]
 80061a2:	687b      	ldr	r3, [r7, #4]
 80061a4:	681b      	ldr	r3, [r3, #0]
 80061a6:	f022 0201 	bic.w	r2, r2, #1
 80061aa:	615a      	str	r2, [r3, #20]

  /* At end of Rx process, restore huart->RxState to Ready */
  huart->RxState = HAL_UART_STATE_READY;
 80061ac:	687b      	ldr	r3, [r7, #4]
 80061ae:	2220      	movs	r2, #32
 80061b0:	f883 203a 	strb.w	r2, [r3, #58]	; 0x3a
}
 80061b4:	bf00      	nop
 80061b6:	370c      	adds	r7, #12
 80061b8:	46bd      	mov	sp, r7
 80061ba:	f85d 7b04 	ldr.w	r7, [sp], #4
 80061be:	4770      	bx	lr

080061c0 <UART_DMAAbortOnError>:
  * @param  hdma  Pointer to a DMA_HandleTypeDef structure that contains
  *               the configuration information for the specified DMA module.
  * @retval None
  */
static void UART_DMAAbortOnError(DMA_HandleTypeDef *hdma)
{
 80061c0:	b580      	push	{r7, lr}
 80061c2:	b084      	sub	sp, #16
 80061c4:	af00      	add	r7, sp, #0
 80061c6:	6078      	str	r0, [r7, #4]
  UART_HandleTypeDef *huart = (UART_HandleTypeDef *)((DMA_HandleTypeDef *)hdma)->Parent;
 80061c8:	687b      	ldr	r3, [r7, #4]
 80061ca:	6b9b      	ldr	r3, [r3, #56]	; 0x38
 80061cc:	60fb      	str	r3, [r7, #12]
  huart->RxXferCount = 0x00U;
 80061ce:	68fb      	ldr	r3, [r7, #12]
 80061d0:	2200      	movs	r2, #0
 80061d2:	85da      	strh	r2, [r3, #46]	; 0x2e
  huart->TxXferCount = 0x00U;
 80061d4:	68fb      	ldr	r3, [r7, #12]
 80061d6:	2200      	movs	r2, #0
 80061d8:	84da      	strh	r2, [r3, #38]	; 0x26
#if (USE_HAL_UART_REGISTER_CALLBACKS == 1)
  /*Call registered error callback*/
  huart->ErrorCallback(huart);
#else
  /*Call legacy weak error callback*/
  HAL_UART_ErrorCallback(huart);
 80061da:	68f8      	ldr	r0, [r7, #12]
 80061dc:	f7ff ff7e 	bl	80060dc <HAL_UART_ErrorCallback>
#endif /* USE_HAL_UART_REGISTER_CALLBACKS */
}
 80061e0:	bf00      	nop
 80061e2:	3710      	adds	r7, #16
 80061e4:	46bd      	mov	sp, r7
 80061e6:	bd80      	pop	{r7, pc}

080061e8 <UART_Transmit_IT>:
  * @param  huart  Pointer to a UART_HandleTypeDef structure that contains
  *                the configuration information for the specified UART module.
  * @retval HAL status
  */
static HAL_StatusTypeDef UART_Transmit_IT(UART_HandleTypeDef *huart)
{
 80061e8:	b480      	push	{r7}
 80061ea:	b085      	sub	sp, #20
 80061ec:	af00      	add	r7, sp, #0
 80061ee:	6078      	str	r0, [r7, #4]
  uint16_t *tmp;

  /* Check that a Tx process is ongoing */
  if (huart->gState == HAL_UART_STATE_BUSY_TX)
 80061f0:	687b      	ldr	r3, [r7, #4]
 80061f2:	f893 3039 	ldrb.w	r3, [r3, #57]	; 0x39
 80061f6:	b2db      	uxtb	r3, r3
 80061f8:	2b21      	cmp	r3, #33	; 0x21
 80061fa:	d144      	bne.n	8006286 <UART_Transmit_IT+0x9e>
  {
    if (huart->Init.WordLength == UART_WORDLENGTH_9B)
 80061fc:	687b      	ldr	r3, [r7, #4]
 80061fe:	689b      	ldr	r3, [r3, #8]
 8006200:	f5b3 5f80 	cmp.w	r3, #4096	; 0x1000
 8006204:	d11a      	bne.n	800623c <UART_Transmit_IT+0x54>
    {
      tmp = (uint16_t *) huart->pTxBuffPtr;
 8006206:	687b      	ldr	r3, [r7, #4]
 8006208:	6a1b      	ldr	r3, [r3, #32]
 800620a:	60fb      	str	r3, [r7, #12]
      huart->Instance->DR = (uint16_t)(*tmp & (uint16_t)0x01FF);
 800620c:	68fb      	ldr	r3, [r7, #12]
 800620e:	881b      	ldrh	r3, [r3, #0]
 8006210:	461a      	mov	r2, r3
 8006212:	687b      	ldr	r3, [r7, #4]
 8006214:	681b      	ldr	r3, [r3, #0]
 8006216:	f3c2 0208 	ubfx	r2, r2, #0, #9
 800621a:	605a      	str	r2, [r3, #4]
      if (huart->Init.Parity == UART_PARITY_NONE)
 800621c:	687b      	ldr	r3, [r7, #4]
 800621e:	691b      	ldr	r3, [r3, #16]
 8006220:	2b00      	cmp	r3, #0
 8006222:	d105      	bne.n	8006230 <UART_Transmit_IT+0x48>
      {
        huart->pTxBuffPtr += 2U;
 8006224:	687b      	ldr	r3, [r7, #4]
 8006226:	6a1b      	ldr	r3, [r3, #32]
 8006228:	1c9a      	adds	r2, r3, #2
 800622a:	687b      	ldr	r3, [r7, #4]
 800622c:	621a      	str	r2, [r3, #32]
 800622e:	e00e      	b.n	800624e <UART_Transmit_IT+0x66>
      }
      else
      {
        huart->pTxBuffPtr += 1U;
 8006230:	687b      	ldr	r3, [r7, #4]
 8006232:	6a1b      	ldr	r3, [r3, #32]
 8006234:	1c5a      	adds	r2, r3, #1
 8006236:	687b      	ldr	r3, [r7, #4]
 8006238:	621a      	str	r2, [r3, #32]
 800623a:	e008      	b.n	800624e <UART_Transmit_IT+0x66>
      }
    }
    else
    {
      huart->Instance->DR = (uint8_t)(*huart->pTxBuffPtr++ & (uint8_t)0x00FF);
 800623c:	687b      	ldr	r3, [r7, #4]
 800623e:	6a1b      	ldr	r3, [r3, #32]
 8006240:	1c59      	adds	r1, r3, #1
 8006242:	687a      	ldr	r2, [r7, #4]
 8006244:	6211      	str	r1, [r2, #32]
 8006246:	781a      	ldrb	r2, [r3, #0]
 8006248:	687b      	ldr	r3, [r7, #4]
 800624a:	681b      	ldr	r3, [r3, #0]
 800624c:	605a      	str	r2, [r3, #4]
    }

    if (--huart->TxXferCount == 0U)
 800624e:	687b      	ldr	r3, [r7, #4]
 8006250:	8cdb      	ldrh	r3, [r3, #38]	; 0x26
 8006252:	b29b      	uxth	r3, r3
 8006254:	3b01      	subs	r3, #1
 8006256:	b29b      	uxth	r3, r3
 8006258:	687a      	ldr	r2, [r7, #4]
 800625a:	4619      	mov	r1, r3
 800625c:	84d1      	strh	r1, [r2, #38]	; 0x26
 800625e:	2b00      	cmp	r3, #0
 8006260:	d10f      	bne.n	8006282 <UART_Transmit_IT+0x9a>
    {
      /* Disable the UART Transmit Complete Interrupt */
      __HAL_UART_DISABLE_IT(huart, UART_IT_TXE);
 8006262:	687b      	ldr	r3, [r7, #4]
 8006264:	681b      	ldr	r3, [r3, #0]
 8006266:	68da      	ldr	r2, [r3, #12]
 8006268:	687b      	ldr	r3, [r7, #4]
 800626a:	681b      	ldr	r3, [r3, #0]
 800626c:	f022 0280 	bic.w	r2, r2, #128	; 0x80
 8006270:	60da      	str	r2, [r3, #12]

      /* Enable the UART Transmit Complete Interrupt */
      __HAL_UART_ENABLE_IT(huart, UART_IT_TC);
 8006272:	687b      	ldr	r3, [r7, #4]
 8006274:	681b      	ldr	r3, [r3, #0]
 8006276:	68da      	ldr	r2, [r3, #12]
 8006278:	687b      	ldr	r3, [r7, #4]
 800627a:	681b      	ldr	r3, [r3, #0]
 800627c:	f042 0240 	orr.w	r2, r2, #64	; 0x40
 8006280:	60da      	str	r2, [r3, #12]
    }
    return HAL_OK;
 8006282:	2300      	movs	r3, #0
 8006284:	e000      	b.n	8006288 <UART_Transmit_IT+0xa0>
  }
  else
  {
    return HAL_BUSY;
 8006286:	2302      	movs	r3, #2
  }
}
 8006288:	4618      	mov	r0, r3
 800628a:	3714      	adds	r7, #20
 800628c:	46bd      	mov	sp, r7
 800628e:	f85d 7b04 	ldr.w	r7, [sp], #4
 8006292:	4770      	bx	lr

08006294 <UART_EndTransmit_IT>:
  * @param  huart  Pointer to a UART_HandleTypeDef structure that contains
  *                the configuration information for the specified UART module.
  * @retval HAL status
  */
static HAL_StatusTypeDef UART_EndTransmit_IT(UART_HandleTypeDef *huart)
{
 8006294:	b580      	push	{r7, lr}
 8006296:	b082      	sub	sp, #8
 8006298:	af00      	add	r7, sp, #0
 800629a:	6078      	str	r0, [r7, #4]
  /* Disable the UART Transmit Complete Interrupt */
  __HAL_UART_DISABLE_IT(huart, UART_IT_TC);
 800629c:	687b      	ldr	r3, [r7, #4]
 800629e:	681b      	ldr	r3, [r3, #0]
 80062a0:	68da      	ldr	r2, [r3, #12]
 80062a2:	687b      	ldr	r3, [r7, #4]
 80062a4:	681b      	ldr	r3, [r3, #0]
 80062a6:	f022 0240 	bic.w	r2, r2, #64	; 0x40
 80062aa:	60da      	str	r2, [r3, #12]

  /* Tx process is ended, restore huart->gState to Ready */
  huart->gState = HAL_UART_STATE_READY;
 80062ac:	687b      	ldr	r3, [r7, #4]
 80062ae:	2220      	movs	r2, #32
 80062b0:	f883 2039 	strb.w	r2, [r3, #57]	; 0x39
#if (USE_HAL_UART_REGISTER_CALLBACKS == 1)
  /*Call registered Tx complete callback*/
  huart->TxCpltCallback(huart);
#else
  /*Call legacy weak Tx complete callback*/
  HAL_UART_TxCpltCallback(huart);
 80062b4:	6878      	ldr	r0, [r7, #4]
 80062b6:	f7ff ff07 	bl	80060c8 <HAL_UART_TxCpltCallback>
#endif /* USE_HAL_UART_REGISTER_CALLBACKS */

  return HAL_OK;
 80062ba:	2300      	movs	r3, #0
}
 80062bc:	4618      	mov	r0, r3
 80062be:	3708      	adds	r7, #8
 80062c0:	46bd      	mov	sp, r7
 80062c2:	bd80      	pop	{r7, pc}

080062c4 <UART_Receive_IT>:
  * @param  huart  Pointer to a UART_HandleTypeDef structure that contains
  *                the configuration information for the specified UART module.
  * @retval HAL status
  */
static HAL_StatusTypeDef UART_Receive_IT(UART_HandleTypeDef *huart)
{
 80062c4:	b580      	push	{r7, lr}
 80062c6:	b084      	sub	sp, #16
 80062c8:	af00      	add	r7, sp, #0
 80062ca:	6078      	str	r0, [r7, #4]
  uint16_t *tmp;

  /* Check that a Rx process is ongoing */
  if (huart->RxState == HAL_UART_STATE_BUSY_RX)
 80062cc:	687b      	ldr	r3, [r7, #4]
 80062ce:	f893 303a 	ldrb.w	r3, [r3, #58]	; 0x3a
 80062d2:	b2db      	uxtb	r3, r3
 80062d4:	2b22      	cmp	r3, #34	; 0x22
 80062d6:	d171      	bne.n	80063bc <UART_Receive_IT+0xf8>
  {
    if (huart->Init.WordLength == UART_WORDLENGTH_9B)
 80062d8:	687b      	ldr	r3, [r7, #4]
 80062da:	689b      	ldr	r3, [r3, #8]
 80062dc:	f5b3 5f80 	cmp.w	r3, #4096	; 0x1000
 80062e0:	d123      	bne.n	800632a <UART_Receive_IT+0x66>
    {
      tmp = (uint16_t *) huart->pRxBuffPtr;
 80062e2:	687b      	ldr	r3, [r7, #4]
 80062e4:	6a9b      	ldr	r3, [r3, #40]	; 0x28
 80062e6:	60fb      	str	r3, [r7, #12]
      if (huart->Init.Parity == UART_PARITY_NONE)
 80062e8:	687b      	ldr	r3, [r7, #4]
 80062ea:	691b      	ldr	r3, [r3, #16]
 80062ec:	2b00      	cmp	r3, #0
 80062ee:	d10e      	bne.n	800630e <UART_Receive_IT+0x4a>
      {
        *tmp = (uint16_t)(huart->Instance->DR & (uint16_t)0x01FF);
 80062f0:	687b      	ldr	r3, [r7, #4]
 80062f2:	681b      	ldr	r3, [r3, #0]
 80062f4:	685b      	ldr	r3, [r3, #4]
 80062f6:	b29b      	uxth	r3, r3
 80062f8:	f3c3 0308 	ubfx	r3, r3, #0, #9
 80062fc:	b29a      	uxth	r2, r3
 80062fe:	68fb      	ldr	r3, [r7, #12]
 8006300:	801a      	strh	r2, [r3, #0]
        huart->pRxBuffPtr += 2U;
 8006302:	687b      	ldr	r3, [r7, #4]
 8006304:	6a9b      	ldr	r3, [r3, #40]	; 0x28
 8006306:	1c9a      	adds	r2, r3, #2
 8006308:	687b      	ldr	r3, [r7, #4]
 800630a:	629a      	str	r2, [r3, #40]	; 0x28
 800630c:	e029      	b.n	8006362 <UART_Receive_IT+0x9e>
      }
      else
      {
        *tmp = (uint16_t)(huart->Instance->DR & (uint16_t)0x00FF);
 800630e:	687b      	ldr	r3, [r7, #4]
 8006310:	681b      	ldr	r3, [r3, #0]
 8006312:	685b      	ldr	r3, [r3, #4]
 8006314:	b29b      	uxth	r3, r3
 8006316:	b2db      	uxtb	r3, r3
 8006318:	b29a      	uxth	r2, r3
 800631a:	68fb      	ldr	r3, [r7, #12]
 800631c:	801a      	strh	r2, [r3, #0]
        huart->pRxBuffPtr += 1U;
 800631e:	687b      	ldr	r3, [r7, #4]
 8006320:	6a9b      	ldr	r3, [r3, #40]	; 0x28
 8006322:	1c5a      	adds	r2, r3, #1
 8006324:	687b      	ldr	r3, [r7, #4]
 8006326:	629a      	str	r2, [r3, #40]	; 0x28
 8006328:	e01b      	b.n	8006362 <UART_Receive_IT+0x9e>
      }
    }
    else
    {
      if (huart->Init.Parity == UART_PARITY_NONE)
 800632a:	687b      	ldr	r3, [r7, #4]
 800632c:	691b      	ldr	r3, [r3, #16]
 800632e:	2b00      	cmp	r3, #0
 8006330:	d10a      	bne.n	8006348 <UART_Receive_IT+0x84>
      {
        *huart->pRxBuffPtr++ = (uint8_t)(huart->Instance->DR & (uint8_t)0x00FF);
 8006332:	687b      	ldr	r3, [r7, #4]
 8006334:	681b      	ldr	r3, [r3, #0]
 8006336:	6858      	ldr	r0, [r3, #4]
 8006338:	687b      	ldr	r3, [r7, #4]
 800633a:	6a9b      	ldr	r3, [r3, #40]	; 0x28
 800633c:	1c59      	adds	r1, r3, #1
 800633e:	687a      	ldr	r2, [r7, #4]
 8006340:	6291      	str	r1, [r2, #40]	; 0x28
 8006342:	b2c2      	uxtb	r2, r0
 8006344:	701a      	strb	r2, [r3, #0]
 8006346:	e00c      	b.n	8006362 <UART_Receive_IT+0x9e>
      }
      else
      {
        *huart->pRxBuffPtr++ = (uint8_t)(huart->Instance->DR & (uint8_t)0x007F);
 8006348:	687b      	ldr	r3, [r7, #4]
 800634a:	681b      	ldr	r3, [r3, #0]
 800634c:	685b      	ldr	r3, [r3, #4]
 800634e:	b2da      	uxtb	r2, r3
 8006350:	687b      	ldr	r3, [r7, #4]
 8006352:	6a9b      	ldr	r3, [r3, #40]	; 0x28
 8006354:	1c58      	adds	r0, r3, #1
 8006356:	6879      	ldr	r1, [r7, #4]
 8006358:	6288      	str	r0, [r1, #40]	; 0x28
 800635a:	f002 027f 	and.w	r2, r2, #127	; 0x7f
 800635e:	b2d2      	uxtb	r2, r2
 8006360:	701a      	strb	r2, [r3, #0]
      }
    }

    if (--huart->RxXferCount == 0U)
 8006362:	687b      	ldr	r3, [r7, #4]
 8006364:	8ddb      	ldrh	r3, [r3, #46]	; 0x2e
 8006366:	b29b      	uxth	r3, r3
 8006368:	3b01      	subs	r3, #1
 800636a:	b29b      	uxth	r3, r3
 800636c:	687a      	ldr	r2, [r7, #4]
 800636e:	4619      	mov	r1, r3
 8006370:	85d1      	strh	r1, [r2, #46]	; 0x2e
 8006372:	2b00      	cmp	r3, #0
 8006374:	d120      	bne.n	80063b8 <UART_Receive_IT+0xf4>
    {
      /* Disable the UART Data Register not empty Interrupt */
      __HAL_UART_DISABLE_IT(huart, UART_IT_RXNE);
 8006376:	687b      	ldr	r3, [r7, #4]
 8006378:	681b      	ldr	r3, [r3, #0]
 800637a:	68da      	ldr	r2, [r3, #12]
 800637c:	687b      	ldr	r3, [r7, #4]
 800637e:	681b      	ldr	r3, [r3, #0]
 8006380:	f022 0220 	bic.w	r2, r2, #32
 8006384:	60da      	str	r2, [r3, #12]

      /* Disable the UART Parity Error Interrupt */
      __HAL_UART_DISABLE_IT(huart, UART_IT_PE);
 8006386:	687b      	ldr	r3, [r7, #4]
 8006388:	681b      	ldr	r3, [r3, #0]
 800638a:	68da      	ldr	r2, [r3, #12]
 800638c:	687b      	ldr	r3, [r7, #4]
 800638e:	681b      	ldr	r3, [r3, #0]
 8006390:	f422 7280 	bic.w	r2, r2, #256	; 0x100
 8006394:	60da      	str	r2, [r3, #12]

      /* Disable the UART Error Interrupt: (Frame error, noise error, overrun error) */
      __HAL_UART_DISABLE_IT(huart, UART_IT_ERR);
 8006396:	687b      	ldr	r3, [r7, #4]
 8006398:	681b      	ldr	r3, [r3, #0]
 800639a:	695a      	ldr	r2, [r3, #20]
 800639c:	687b      	ldr	r3, [r7, #4]
 800639e:	681b      	ldr	r3, [r3, #0]
 80063a0:	f022 0201 	bic.w	r2, r2, #1
 80063a4:	615a      	str	r2, [r3, #20]

      /* Rx process is completed, restore huart->RxState to Ready */
      huart->RxState = HAL_UART_STATE_READY;
 80063a6:	687b      	ldr	r3, [r7, #4]
 80063a8:	2220      	movs	r2, #32
 80063aa:	f883 203a 	strb.w	r2, [r3, #58]	; 0x3a
#if (USE_HAL_UART_REGISTER_CALLBACKS == 1)
      /*Call registered Rx complete callback*/
      huart->RxCpltCallback(huart);
#else
      /*Call legacy weak Rx complete callback*/
      HAL_UART_RxCpltCallback(huart);
 80063ae:	6878      	ldr	r0, [r7, #4]
 80063b0:	f7fb f8c2 	bl	8001538 <HAL_UART_RxCpltCallback>
#endif /* USE_HAL_UART_REGISTER_CALLBACKS */

      return HAL_OK;
 80063b4:	2300      	movs	r3, #0
 80063b6:	e002      	b.n	80063be <UART_Receive_IT+0xfa>
    }
    return HAL_OK;
 80063b8:	2300      	movs	r3, #0
 80063ba:	e000      	b.n	80063be <UART_Receive_IT+0xfa>
  }
  else
  {
    return HAL_BUSY;
 80063bc:	2302      	movs	r3, #2
  }
}
 80063be:	4618      	mov	r0, r3
 80063c0:	3710      	adds	r7, #16
 80063c2:	46bd      	mov	sp, r7
 80063c4:	bd80      	pop	{r7, pc}
	...

080063c8 <UART_SetConfig>:
  * @param  huart  Pointer to a UART_HandleTypeDef structure that contains
  *                the configuration information for the specified UART module.
  * @retval None
  */
static void UART_SetConfig(UART_HandleTypeDef *huart)
{
 80063c8:	e92d 4ff0 	stmdb	sp!, {r4, r5, r6, r7, r8, r9, sl, fp, lr}
 80063cc:	b085      	sub	sp, #20
 80063ce:	af00      	add	r7, sp, #0
 80063d0:	6078      	str	r0, [r7, #4]
  assert_param(IS_UART_MODE(huart->Init.Mode));

  /*-------------------------- USART CR2 Configuration -----------------------*/
  /* Configure the UART Stop Bits: Set STOP[13:12] bits
     according to huart->Init.StopBits value */
  MODIFY_REG(huart->Instance->CR2, USART_CR2_STOP, huart->Init.StopBits);
 80063d2:	687b      	ldr	r3, [r7, #4]
 80063d4:	681b      	ldr	r3, [r3, #0]
 80063d6:	691b      	ldr	r3, [r3, #16]
 80063d8:	f423 5140 	bic.w	r1, r3, #12288	; 0x3000
 80063dc:	687b      	ldr	r3, [r7, #4]
 80063de:	68da      	ldr	r2, [r3, #12]
 80063e0:	687b      	ldr	r3, [r7, #4]
 80063e2:	681b      	ldr	r3, [r3, #0]
 80063e4:	430a      	orrs	r2, r1
 80063e6:	611a      	str	r2, [r3, #16]
     Set the M bits according to huart->Init.WordLength value
     Set PCE and PS bits according to huart->Init.Parity value
     Set TE and RE bits according to huart->Init.Mode value
     Set OVER8 bit according to huart->Init.OverSampling value */

  tmpreg = (uint32_t)huart->Init.WordLength | huart->Init.Parity | huart->Init.Mode | huart->Init.OverSampling;
 80063e8:	687b      	ldr	r3, [r7, #4]
 80063ea:	689a      	ldr	r2, [r3, #8]
 80063ec:	687b      	ldr	r3, [r7, #4]
 80063ee:	691b      	ldr	r3, [r3, #16]
 80063f0:	431a      	orrs	r2, r3
 80063f2:	687b      	ldr	r3, [r7, #4]
 80063f4:	695b      	ldr	r3, [r3, #20]
 80063f6:	431a      	orrs	r2, r3
 80063f8:	687b      	ldr	r3, [r7, #4]
 80063fa:	69db      	ldr	r3, [r3, #28]
 80063fc:	4313      	orrs	r3, r2
 80063fe:	60fb      	str	r3, [r7, #12]
  MODIFY_REG(huart->Instance->CR1,
 8006400:	687b      	ldr	r3, [r7, #4]
 8006402:	681b      	ldr	r3, [r3, #0]
 8006404:	68db      	ldr	r3, [r3, #12]
 8006406:	f423 4316 	bic.w	r3, r3, #38400	; 0x9600
 800640a:	f023 030c 	bic.w	r3, r3, #12
 800640e:	687a      	ldr	r2, [r7, #4]
 8006410:	6812      	ldr	r2, [r2, #0]
 8006412:	68f9      	ldr	r1, [r7, #12]
 8006414:	430b      	orrs	r3, r1
 8006416:	60d3      	str	r3, [r2, #12]
             (uint32_t)(USART_CR1_M | USART_CR1_PCE | USART_CR1_PS | USART_CR1_TE | USART_CR1_RE | USART_CR1_OVER8),
             tmpreg);

  /*-------------------------- USART CR3 Configuration -----------------------*/
  /* Configure the UART HFC: Set CTSE and RTSE bits according to huart->Init.HwFlowCtl value */
  MODIFY_REG(huart->Instance->CR3, (USART_CR3_RTSE | USART_CR3_CTSE), huart->Init.HwFlowCtl);
 8006418:	687b      	ldr	r3, [r7, #4]
 800641a:	681b      	ldr	r3, [r3, #0]
 800641c:	695b      	ldr	r3, [r3, #20]
 800641e:	f423 7140 	bic.w	r1, r3, #768	; 0x300
 8006422:	687b      	ldr	r3, [r7, #4]
 8006424:	699a      	ldr	r2, [r3, #24]
 8006426:	687b      	ldr	r3, [r7, #4]
 8006428:	681b      	ldr	r3, [r3, #0]
 800642a:	430a      	orrs	r2, r1
 800642c:	615a      	str	r2, [r3, #20]

  /* Check the Over Sampling */
  if (huart->Init.OverSampling == UART_OVERSAMPLING_8)
 800642e:	687b      	ldr	r3, [r7, #4]
 8006430:	69db      	ldr	r3, [r3, #28]
 8006432:	f5b3 4f00 	cmp.w	r3, #32768	; 0x8000
 8006436:	f040 818b 	bne.w	8006750 <UART_SetConfig+0x388>
    {
      pclk = HAL_RCC_GetPCLK2Freq();
      huart->Instance->BRR = UART_BRR_SAMPLING8(pclk, huart->Init.BaudRate);
    }
#elif defined(USART6)
    if ((huart->Instance == USART1) || (huart->Instance == USART6))
 800643a:	687b      	ldr	r3, [r7, #4]
 800643c:	681b      	ldr	r3, [r3, #0]
 800643e:	4ac1      	ldr	r2, [pc, #772]	; (8006744 <UART_SetConfig+0x37c>)
 8006440:	4293      	cmp	r3, r2
 8006442:	d005      	beq.n	8006450 <UART_SetConfig+0x88>
 8006444:	687b      	ldr	r3, [r7, #4]
 8006446:	681b      	ldr	r3, [r3, #0]
 8006448:	4abf      	ldr	r2, [pc, #764]	; (8006748 <UART_SetConfig+0x380>)
 800644a:	4293      	cmp	r3, r2
 800644c:	f040 80bd 	bne.w	80065ca <UART_SetConfig+0x202>
    {
      pclk = HAL_RCC_GetPCLK2Freq();
 8006450:	f7fe fe04 	bl	800505c <HAL_RCC_GetPCLK2Freq>
 8006454:	60b8      	str	r0, [r7, #8]
      huart->Instance->BRR = UART_BRR_SAMPLING8(pclk, huart->Init.BaudRate);
 8006456:	68bb      	ldr	r3, [r7, #8]
 8006458:	461d      	mov	r5, r3
 800645a:	f04f 0600 	mov.w	r6, #0
 800645e:	46a8      	mov	r8, r5
 8006460:	46b1      	mov	r9, r6
 8006462:	eb18 0308 	adds.w	r3, r8, r8
 8006466:	eb49 0409 	adc.w	r4, r9, r9
 800646a:	4698      	mov	r8, r3
 800646c:	46a1      	mov	r9, r4
 800646e:	eb18 0805 	adds.w	r8, r8, r5
 8006472:	eb49 0906 	adc.w	r9, r9, r6
 8006476:	f04f 0100 	mov.w	r1, #0
 800647a:	f04f 0200 	mov.w	r2, #0
 800647e:	ea4f 02c9 	mov.w	r2, r9, lsl #3
 8006482:	ea42 7258 	orr.w	r2, r2, r8, lsr #29
 8006486:	ea4f 01c8 	mov.w	r1, r8, lsl #3
 800648a:	4688      	mov	r8, r1
 800648c:	4691      	mov	r9, r2
 800648e:	eb18 0005 	adds.w	r0, r8, r5
 8006492:	eb49 0106 	adc.w	r1, r9, r6
 8006496:	687b      	ldr	r3, [r7, #4]
 8006498:	685b      	ldr	r3, [r3, #4]
 800649a:	461d      	mov	r5, r3
 800649c:	f04f 0600 	mov.w	r6, #0
 80064a0:	196b      	adds	r3, r5, r5
 80064a2:	eb46 0406 	adc.w	r4, r6, r6
 80064a6:	461a      	mov	r2, r3
 80064a8:	4623      	mov	r3, r4
 80064aa:	f7fa fba5 	bl	8000bf8 <__aeabi_uldivmod>
 80064ae:	4603      	mov	r3, r0
 80064b0:	460c      	mov	r4, r1
 80064b2:	461a      	mov	r2, r3
 80064b4:	4ba5      	ldr	r3, [pc, #660]	; (800674c <UART_SetConfig+0x384>)
 80064b6:	fba3 2302 	umull	r2, r3, r3, r2
 80064ba:	095b      	lsrs	r3, r3, #5
 80064bc:	ea4f 1803 	mov.w	r8, r3, lsl #4
 80064c0:	68bb      	ldr	r3, [r7, #8]
 80064c2:	461d      	mov	r5, r3
 80064c4:	f04f 0600 	mov.w	r6, #0
 80064c8:	46a9      	mov	r9, r5
 80064ca:	46b2      	mov	sl, r6
 80064cc:	eb19 0309 	adds.w	r3, r9, r9
 80064d0:	eb4a 040a 	adc.w	r4, sl, sl
 80064d4:	4699      	mov	r9, r3
 80064d6:	46a2      	mov	sl, r4
 80064d8:	eb19 0905 	adds.w	r9, r9, r5
 80064dc:	eb4a 0a06 	adc.w	sl, sl, r6
 80064e0:	f04f 0100 	mov.w	r1, #0
 80064e4:	f04f 0200 	mov.w	r2, #0
 80064e8:	ea4f 02ca 	mov.w	r2, sl, lsl #3
 80064ec:	ea42 7259 	orr.w	r2, r2, r9, lsr #29
 80064f0:	ea4f 01c9 	mov.w	r1, r9, lsl #3
 80064f4:	4689      	mov	r9, r1
 80064f6:	4692      	mov	sl, r2
 80064f8:	eb19 0005 	adds.w	r0, r9, r5
 80064fc:	eb4a 0106 	adc.w	r1, sl, r6
 8006500:	687b      	ldr	r3, [r7, #4]
 8006502:	685b      	ldr	r3, [r3, #4]
 8006504:	461d      	mov	r5, r3
 8006506:	f04f 0600 	mov.w	r6, #0
 800650a:	196b      	adds	r3, r5, r5
 800650c:	eb46 0406 	adc.w	r4, r6, r6
 8006510:	461a      	mov	r2, r3
 8006512:	4623      	mov	r3, r4
 8006514:	f7fa fb70 	bl	8000bf8 <__aeabi_uldivmod>
 8006518:	4603      	mov	r3, r0
 800651a:	460c      	mov	r4, r1
 800651c:	461a      	mov	r2, r3
 800651e:	4b8b      	ldr	r3, [pc, #556]	; (800674c <UART_SetConfig+0x384>)
 8006520:	fba3 1302 	umull	r1, r3, r3, r2
 8006524:	095b      	lsrs	r3, r3, #5
 8006526:	2164      	movs	r1, #100	; 0x64
 8006528:	fb01 f303 	mul.w	r3, r1, r3
 800652c:	1ad3      	subs	r3, r2, r3
 800652e:	00db      	lsls	r3, r3, #3
 8006530:	3332      	adds	r3, #50	; 0x32
 8006532:	4a86      	ldr	r2, [pc, #536]	; (800674c <UART_SetConfig+0x384>)
 8006534:	fba2 2303 	umull	r2, r3, r2, r3
 8006538:	095b      	lsrs	r3, r3, #5
 800653a:	005b      	lsls	r3, r3, #1
 800653c:	f403 73f8 	and.w	r3, r3, #496	; 0x1f0
 8006540:	4498      	add	r8, r3
 8006542:	68bb      	ldr	r3, [r7, #8]
 8006544:	461d      	mov	r5, r3
 8006546:	f04f 0600 	mov.w	r6, #0
 800654a:	46a9      	mov	r9, r5
 800654c:	46b2      	mov	sl, r6
 800654e:	eb19 0309 	adds.w	r3, r9, r9
 8006552:	eb4a 040a 	adc.w	r4, sl, sl
 8006556:	4699      	mov	r9, r3
 8006558:	46a2      	mov	sl, r4
 800655a:	eb19 0905 	adds.w	r9, r9, r5
 800655e:	eb4a 0a06 	adc.w	sl, sl, r6
 8006562:	f04f 0100 	mov.w	r1, #0
 8006566:	f04f 0200 	mov.w	r2, #0
 800656a:	ea4f 02ca 	mov.w	r2, sl, lsl #3
 800656e:	ea42 7259 	orr.w	r2, r2, r9, lsr #29
 8006572:	ea4f 01c9 	mov.w	r1, r9, lsl #3
 8006576:	4689      	mov	r9, r1
 8006578:	4692      	mov	sl, r2
 800657a:	eb19 0005 	adds.w	r0, r9, r5
 800657e:	eb4a 0106 	adc.w	r1, sl, r6
 8006582:	687b      	ldr	r3, [r7, #4]
 8006584:	685b      	ldr	r3, [r3, #4]
 8006586:	461d      	mov	r5, r3
 8006588:	f04f 0600 	mov.w	r6, #0
 800658c:	196b      	adds	r3, r5, r5
 800658e:	eb46 0406 	adc.w	r4, r6, r6
 8006592:	461a      	mov	r2, r3
 8006594:	4623      	mov	r3, r4
 8006596:	f7fa fb2f 	bl	8000bf8 <__aeabi_uldivmod>
 800659a:	4603      	mov	r3, r0
 800659c:	460c      	mov	r4, r1
 800659e:	461a      	mov	r2, r3
 80065a0:	4b6a      	ldr	r3, [pc, #424]	; (800674c <UART_SetConfig+0x384>)
 80065a2:	fba3 1302 	umull	r1, r3, r3, r2
 80065a6:	095b      	lsrs	r3, r3, #5
 80065a8:	2164      	movs	r1, #100	; 0x64
 80065aa:	fb01 f303 	mul.w	r3, r1, r3
 80065ae:	1ad3      	subs	r3, r2, r3
 80065b0:	00db      	lsls	r3, r3, #3
 80065b2:	3332      	adds	r3, #50	; 0x32
 80065b4:	4a65      	ldr	r2, [pc, #404]	; (800674c <UART_SetConfig+0x384>)
 80065b6:	fba2 2303 	umull	r2, r3, r2, r3
 80065ba:	095b      	lsrs	r3, r3, #5
 80065bc:	f003 0207 	and.w	r2, r3, #7
 80065c0:	687b      	ldr	r3, [r7, #4]
 80065c2:	681b      	ldr	r3, [r3, #0]
 80065c4:	4442      	add	r2, r8
 80065c6:	609a      	str	r2, [r3, #8]
 80065c8:	e26f      	b.n	8006aaa <UART_SetConfig+0x6e2>
      huart->Instance->BRR = UART_BRR_SAMPLING8(pclk, huart->Init.BaudRate);
    }
#endif /* USART6 */
    else
    {
      pclk = HAL_RCC_GetPCLK1Freq();
 80065ca:	f7fe fd33 	bl	8005034 <HAL_RCC_GetPCLK1Freq>
 80065ce:	60b8      	str	r0, [r7, #8]
      huart->Instance->BRR = UART_BRR_SAMPLING8(pclk, huart->Init.BaudRate);
 80065d0:	68bb      	ldr	r3, [r7, #8]
 80065d2:	461d      	mov	r5, r3
 80065d4:	f04f 0600 	mov.w	r6, #0
 80065d8:	46a8      	mov	r8, r5
 80065da:	46b1      	mov	r9, r6
 80065dc:	eb18 0308 	adds.w	r3, r8, r8
 80065e0:	eb49 0409 	adc.w	r4, r9, r9
 80065e4:	4698      	mov	r8, r3
 80065e6:	46a1      	mov	r9, r4
 80065e8:	eb18 0805 	adds.w	r8, r8, r5
 80065ec:	eb49 0906 	adc.w	r9, r9, r6
 80065f0:	f04f 0100 	mov.w	r1, #0
 80065f4:	f04f 0200 	mov.w	r2, #0
 80065f8:	ea4f 02c9 	mov.w	r2, r9, lsl #3
 80065fc:	ea42 7258 	orr.w	r2, r2, r8, lsr #29
 8006600:	ea4f 01c8 	mov.w	r1, r8, lsl #3
 8006604:	4688      	mov	r8, r1
 8006606:	4691      	mov	r9, r2
 8006608:	eb18 0005 	adds.w	r0, r8, r5
 800660c:	eb49 0106 	adc.w	r1, r9, r6
 8006610:	687b      	ldr	r3, [r7, #4]
 8006612:	685b      	ldr	r3, [r3, #4]
 8006614:	461d      	mov	r5, r3
 8006616:	f04f 0600 	mov.w	r6, #0
 800661a:	196b      	adds	r3, r5, r5
 800661c:	eb46 0406 	adc.w	r4, r6, r6
 8006620:	461a      	mov	r2, r3
 8006622:	4623      	mov	r3, r4
 8006624:	f7fa fae8 	bl	8000bf8 <__aeabi_uldivmod>
 8006628:	4603      	mov	r3, r0
 800662a:	460c      	mov	r4, r1
 800662c:	461a      	mov	r2, r3
 800662e:	4b47      	ldr	r3, [pc, #284]	; (800674c <UART_SetConfig+0x384>)
 8006630:	fba3 2302 	umull	r2, r3, r3, r2
 8006634:	095b      	lsrs	r3, r3, #5
 8006636:	ea4f 1803 	mov.w	r8, r3, lsl #4
 800663a:	68bb      	ldr	r3, [r7, #8]
 800663c:	461d      	mov	r5, r3
 800663e:	f04f 0600 	mov.w	r6, #0
 8006642:	46a9      	mov	r9, r5
 8006644:	46b2      	mov	sl, r6
 8006646:	eb19 0309 	adds.w	r3, r9, r9
 800664a:	eb4a 040a 	adc.w	r4, sl, sl
 800664e:	4699      	mov	r9, r3
 8006650:	46a2      	mov	sl, r4
 8006652:	eb19 0905 	adds.w	r9, r9, r5
 8006656:	eb4a 0a06 	adc.w	sl, sl, r6
 800665a:	f04f 0100 	mov.w	r1, #0
 800665e:	f04f 0200 	mov.w	r2, #0
 8006662:	ea4f 02ca 	mov.w	r2, sl, lsl #3
 8006666:	ea42 7259 	orr.w	r2, r2, r9, lsr #29
 800666a:	ea4f 01c9 	mov.w	r1, r9, lsl #3
 800666e:	4689      	mov	r9, r1
 8006670:	4692      	mov	sl, r2
 8006672:	eb19 0005 	adds.w	r0, r9, r5
 8006676:	eb4a 0106 	adc.w	r1, sl, r6
 800667a:	687b      	ldr	r3, [r7, #4]
 800667c:	685b      	ldr	r3, [r3, #4]
 800667e:	461d      	mov	r5, r3
 8006680:	f04f 0600 	mov.w	r6, #0
 8006684:	196b      	adds	r3, r5, r5
 8006686:	eb46 0406 	adc.w	r4, r6, r6
 800668a:	461a      	mov	r2, r3
 800668c:	4623      	mov	r3, r4
 800668e:	f7fa fab3 	bl	8000bf8 <__aeabi_uldivmod>
 8006692:	4603      	mov	r3, r0
 8006694:	460c      	mov	r4, r1
 8006696:	461a      	mov	r2, r3
 8006698:	4b2c      	ldr	r3, [pc, #176]	; (800674c <UART_SetConfig+0x384>)
 800669a:	fba3 1302 	umull	r1, r3, r3, r2
 800669e:	095b      	lsrs	r3, r3, #5
 80066a0:	2164      	movs	r1, #100	; 0x64
 80066a2:	fb01 f303 	mul.w	r3, r1, r3
 80066a6:	1ad3      	subs	r3, r2, r3
 80066a8:	00db      	lsls	r3, r3, #3
 80066aa:	3332      	adds	r3, #50	; 0x32
 80066ac:	4a27      	ldr	r2, [pc, #156]	; (800674c <UART_SetConfig+0x384>)
 80066ae:	fba2 2303 	umull	r2, r3, r2, r3
 80066b2:	095b      	lsrs	r3, r3, #5
 80066b4:	005b      	lsls	r3, r3, #1
 80066b6:	f403 73f8 	and.w	r3, r3, #496	; 0x1f0
 80066ba:	4498      	add	r8, r3
 80066bc:	68bb      	ldr	r3, [r7, #8]
 80066be:	461d      	mov	r5, r3
 80066c0:	f04f 0600 	mov.w	r6, #0
 80066c4:	46a9      	mov	r9, r5
 80066c6:	46b2      	mov	sl, r6
 80066c8:	eb19 0309 	adds.w	r3, r9, r9
 80066cc:	eb4a 040a 	adc.w	r4, sl, sl
 80066d0:	4699      	mov	r9, r3
 80066d2:	46a2      	mov	sl, r4
 80066d4:	eb19 0905 	adds.w	r9, r9, r5
 80066d8:	eb4a 0a06 	adc.w	sl, sl, r6
 80066dc:	f04f 0100 	mov.w	r1, #0
 80066e0:	f04f 0200 	mov.w	r2, #0
 80066e4:	ea4f 02ca 	mov.w	r2, sl, lsl #3
 80066e8:	ea42 7259 	orr.w	r2, r2, r9, lsr #29
 80066ec:	ea4f 01c9 	mov.w	r1, r9, lsl #3
 80066f0:	4689      	mov	r9, r1
 80066f2:	4692      	mov	sl, r2
 80066f4:	eb19 0005 	adds.w	r0, r9, r5
 80066f8:	eb4a 0106 	adc.w	r1, sl, r6
 80066fc:	687b      	ldr	r3, [r7, #4]
 80066fe:	685b      	ldr	r3, [r3, #4]
 8006700:	461d      	mov	r5, r3
 8006702:	f04f 0600 	mov.w	r6, #0
 8006706:	196b      	adds	r3, r5, r5
 8006708:	eb46 0406 	adc.w	r4, r6, r6
 800670c:	461a      	mov	r2, r3
 800670e:	4623      	mov	r3, r4
 8006710:	f7fa fa72 	bl	8000bf8 <__aeabi_uldivmod>
 8006714:	4603      	mov	r3, r0
 8006716:	460c      	mov	r4, r1
 8006718:	461a      	mov	r2, r3
 800671a:	4b0c      	ldr	r3, [pc, #48]	; (800674c <UART_SetConfig+0x384>)
 800671c:	fba3 1302 	umull	r1, r3, r3, r2
 8006720:	095b      	lsrs	r3, r3, #5
 8006722:	2164      	movs	r1, #100	; 0x64
 8006724:	fb01 f303 	mul.w	r3, r1, r3
 8006728:	1ad3      	subs	r3, r2, r3
 800672a:	00db      	lsls	r3, r3, #3
 800672c:	3332      	adds	r3, #50	; 0x32
 800672e:	4a07      	ldr	r2, [pc, #28]	; (800674c <UART_SetConfig+0x384>)
 8006730:	fba2 2303 	umull	r2, r3, r2, r3
 8006734:	095b      	lsrs	r3, r3, #5
 8006736:	f003 0207 	and.w	r2, r3, #7
 800673a:	687b      	ldr	r3, [r7, #4]
 800673c:	681b      	ldr	r3, [r3, #0]
 800673e:	4442      	add	r2, r8
 8006740:	609a      	str	r2, [r3, #8]
    {
      pclk = HAL_RCC_GetPCLK1Freq();
      huart->Instance->BRR = UART_BRR_SAMPLING16(pclk, huart->Init.BaudRate);
    }
  }
}
 8006742:	e1b2      	b.n	8006aaa <UART_SetConfig+0x6e2>
 8006744:	40011000 	.word	0x40011000
 8006748:	40011400 	.word	0x40011400
 800674c:	51eb851f 	.word	0x51eb851f
    if ((huart->Instance == USART1) || (huart->Instance == USART6))
 8006750:	687b      	ldr	r3, [r7, #4]
 8006752:	681b      	ldr	r3, [r3, #0]
 8006754:	4ad7      	ldr	r2, [pc, #860]	; (8006ab4 <UART_SetConfig+0x6ec>)
 8006756:	4293      	cmp	r3, r2
 8006758:	d005      	beq.n	8006766 <UART_SetConfig+0x39e>
 800675a:	687b      	ldr	r3, [r7, #4]
 800675c:	681b      	ldr	r3, [r3, #0]
 800675e:	4ad6      	ldr	r2, [pc, #856]	; (8006ab8 <UART_SetConfig+0x6f0>)
 8006760:	4293      	cmp	r3, r2
 8006762:	f040 80d1 	bne.w	8006908 <UART_SetConfig+0x540>
      pclk = HAL_RCC_GetPCLK2Freq();
 8006766:	f7fe fc79 	bl	800505c <HAL_RCC_GetPCLK2Freq>
 800676a:	60b8      	str	r0, [r7, #8]
      huart->Instance->BRR = UART_BRR_SAMPLING16(pclk, huart->Init.BaudRate);
 800676c:	68bb      	ldr	r3, [r7, #8]
 800676e:	469a      	mov	sl, r3
 8006770:	f04f 0b00 	mov.w	fp, #0
 8006774:	46d0      	mov	r8, sl
 8006776:	46d9      	mov	r9, fp
 8006778:	eb18 0308 	adds.w	r3, r8, r8
 800677c:	eb49 0409 	adc.w	r4, r9, r9
 8006780:	4698      	mov	r8, r3
 8006782:	46a1      	mov	r9, r4
 8006784:	eb18 080a 	adds.w	r8, r8, sl
 8006788:	eb49 090b 	adc.w	r9, r9, fp
 800678c:	f04f 0100 	mov.w	r1, #0
 8006790:	f04f 0200 	mov.w	r2, #0
 8006794:	ea4f 02c9 	mov.w	r2, r9, lsl #3
 8006798:	ea42 7258 	orr.w	r2, r2, r8, lsr #29
 800679c:	ea4f 01c8 	mov.w	r1, r8, lsl #3
 80067a0:	4688      	mov	r8, r1
 80067a2:	4691      	mov	r9, r2
 80067a4:	eb1a 0508 	adds.w	r5, sl, r8
 80067a8:	eb4b 0609 	adc.w	r6, fp, r9
 80067ac:	687b      	ldr	r3, [r7, #4]
 80067ae:	685b      	ldr	r3, [r3, #4]
 80067b0:	4619      	mov	r1, r3
 80067b2:	f04f 0200 	mov.w	r2, #0
 80067b6:	f04f 0300 	mov.w	r3, #0
 80067ba:	f04f 0400 	mov.w	r4, #0
 80067be:	0094      	lsls	r4, r2, #2
 80067c0:	ea44 7491 	orr.w	r4, r4, r1, lsr #30
 80067c4:	008b      	lsls	r3, r1, #2
 80067c6:	461a      	mov	r2, r3
 80067c8:	4623      	mov	r3, r4
 80067ca:	4628      	mov	r0, r5
 80067cc:	4631      	mov	r1, r6
 80067ce:	f7fa fa13 	bl	8000bf8 <__aeabi_uldivmod>
 80067d2:	4603      	mov	r3, r0
 80067d4:	460c      	mov	r4, r1
 80067d6:	461a      	mov	r2, r3
 80067d8:	4bb8      	ldr	r3, [pc, #736]	; (8006abc <UART_SetConfig+0x6f4>)
 80067da:	fba3 2302 	umull	r2, r3, r3, r2
 80067de:	095b      	lsrs	r3, r3, #5
 80067e0:	ea4f 1803 	mov.w	r8, r3, lsl #4
 80067e4:	68bb      	ldr	r3, [r7, #8]
 80067e6:	469b      	mov	fp, r3
 80067e8:	f04f 0c00 	mov.w	ip, #0
 80067ec:	46d9      	mov	r9, fp
 80067ee:	46e2      	mov	sl, ip
 80067f0:	eb19 0309 	adds.w	r3, r9, r9
 80067f4:	eb4a 040a 	adc.w	r4, sl, sl
 80067f8:	4699      	mov	r9, r3
 80067fa:	46a2      	mov	sl, r4
 80067fc:	eb19 090b 	adds.w	r9, r9, fp
 8006800:	eb4a 0a0c 	adc.w	sl, sl, ip
 8006804:	f04f 0100 	mov.w	r1, #0
 8006808:	f04f 0200 	mov.w	r2, #0
 800680c:	ea4f 02ca 	mov.w	r2, sl, lsl #3
 8006810:	ea42 7259 	orr.w	r2, r2, r9, lsr #29
 8006814:	ea4f 01c9 	mov.w	r1, r9, lsl #3
 8006818:	4689      	mov	r9, r1
 800681a:	4692      	mov	sl, r2
 800681c:	eb1b 0509 	adds.w	r5, fp, r9
 8006820:	eb4c 060a 	adc.w	r6, ip, sl
 8006824:	687b      	ldr	r3, [r7, #4]
 8006826:	685b      	ldr	r3, [r3, #4]
 8006828:	4619      	mov	r1, r3
 800682a:	f04f 0200 	mov.w	r2, #0
 800682e:	f04f 0300 	mov.w	r3, #0
 8006832:	f04f 0400 	mov.w	r4, #0
 8006836:	0094      	lsls	r4, r2, #2
 8006838:	ea44 7491 	orr.w	r4, r4, r1, lsr #30
 800683c:	008b      	lsls	r3, r1, #2
 800683e:	461a      	mov	r2, r3
 8006840:	4623      	mov	r3, r4
 8006842:	4628      	mov	r0, r5
 8006844:	4631      	mov	r1, r6
 8006846:	f7fa f9d7 	bl	8000bf8 <__aeabi_uldivmod>
 800684a:	4603      	mov	r3, r0
 800684c:	460c      	mov	r4, r1
 800684e:	461a      	mov	r2, r3
 8006850:	4b9a      	ldr	r3, [pc, #616]	; (8006abc <UART_SetConfig+0x6f4>)
 8006852:	fba3 1302 	umull	r1, r3, r3, r2
 8006856:	095b      	lsrs	r3, r3, #5
 8006858:	2164      	movs	r1, #100	; 0x64
 800685a:	fb01 f303 	mul.w	r3, r1, r3
 800685e:	1ad3      	subs	r3, r2, r3
 8006860:	011b      	lsls	r3, r3, #4
 8006862:	3332      	adds	r3, #50	; 0x32
 8006864:	4a95      	ldr	r2, [pc, #596]	; (8006abc <UART_SetConfig+0x6f4>)
 8006866:	fba2 2303 	umull	r2, r3, r2, r3
 800686a:	095b      	lsrs	r3, r3, #5
 800686c:	f003 03f0 	and.w	r3, r3, #240	; 0xf0
 8006870:	4498      	add	r8, r3
 8006872:	68bb      	ldr	r3, [r7, #8]
 8006874:	469b      	mov	fp, r3
 8006876:	f04f 0c00 	mov.w	ip, #0
 800687a:	46d9      	mov	r9, fp
 800687c:	46e2      	mov	sl, ip
 800687e:	eb19 0309 	adds.w	r3, r9, r9
 8006882:	eb4a 040a 	adc.w	r4, sl, sl
 8006886:	4699      	mov	r9, r3
 8006888:	46a2      	mov	sl, r4
 800688a:	eb19 090b 	adds.w	r9, r9, fp
 800688e:	eb4a 0a0c 	adc.w	sl, sl, ip
 8006892:	f04f 0100 	mov.w	r1, #0
 8006896:	f04f 0200 	mov.w	r2, #0
 800689a:	ea4f 02ca 	mov.w	r2, sl, lsl #3
 800689e:	ea42 7259 	orr.w	r2, r2, r9, lsr #29
 80068a2:	ea4f 01c9 	mov.w	r1, r9, lsl #3
 80068a6:	4689      	mov	r9, r1
 80068a8:	4692      	mov	sl, r2
 80068aa:	eb1b 0509 	adds.w	r5, fp, r9
 80068ae:	eb4c 060a 	adc.w	r6, ip, sl
 80068b2:	687b      	ldr	r3, [r7, #4]
 80068b4:	685b      	ldr	r3, [r3, #4]
 80068b6:	4619      	mov	r1, r3
 80068b8:	f04f 0200 	mov.w	r2, #0
 80068bc:	f04f 0300 	mov.w	r3, #0
 80068c0:	f04f 0400 	mov.w	r4, #0
 80068c4:	0094      	lsls	r4, r2, #2
 80068c6:	ea44 7491 	orr.w	r4, r4, r1, lsr #30
 80068ca:	008b      	lsls	r3, r1, #2
 80068cc:	461a      	mov	r2, r3
 80068ce:	4623      	mov	r3, r4
 80068d0:	4628      	mov	r0, r5
 80068d2:	4631      	mov	r1, r6
 80068d4:	f7fa f990 	bl	8000bf8 <__aeabi_uldivmod>
 80068d8:	4603      	mov	r3, r0
 80068da:	460c      	mov	r4, r1
 80068dc:	461a      	mov	r2, r3
 80068de:	4b77      	ldr	r3, [pc, #476]	; (8006abc <UART_SetConfig+0x6f4>)
 80068e0:	fba3 1302 	umull	r1, r3, r3, r2
 80068e4:	095b      	lsrs	r3, r3, #5
 80068e6:	2164      	movs	r1, #100	; 0x64
 80068e8:	fb01 f303 	mul.w	r3, r1, r3
 80068ec:	1ad3      	subs	r3, r2, r3
 80068ee:	011b      	lsls	r3, r3, #4
 80068f0:	3332      	adds	r3, #50	; 0x32
 80068f2:	4a72      	ldr	r2, [pc, #456]	; (8006abc <UART_SetConfig+0x6f4>)
 80068f4:	fba2 2303 	umull	r2, r3, r2, r3
 80068f8:	095b      	lsrs	r3, r3, #5
 80068fa:	f003 020f 	and.w	r2, r3, #15
 80068fe:	687b      	ldr	r3, [r7, #4]
 8006900:	681b      	ldr	r3, [r3, #0]
 8006902:	4442      	add	r2, r8
 8006904:	609a      	str	r2, [r3, #8]
 8006906:	e0d0      	b.n	8006aaa <UART_SetConfig+0x6e2>
      pclk = HAL_RCC_GetPCLK1Freq();
 8006908:	f7fe fb94 	bl	8005034 <HAL_RCC_GetPCLK1Freq>
 800690c:	60b8      	str	r0, [r7, #8]
      huart->Instance->BRR = UART_BRR_SAMPLING16(pclk, huart->Init.BaudRate);
 800690e:	68bb      	ldr	r3, [r7, #8]
 8006910:	469a      	mov	sl, r3
 8006912:	f04f 0b00 	mov.w	fp, #0
 8006916:	46d0      	mov	r8, sl
 8006918:	46d9      	mov	r9, fp
 800691a:	eb18 0308 	adds.w	r3, r8, r8
 800691e:	eb49 0409 	adc.w	r4, r9, r9
 8006922:	4698      	mov	r8, r3
 8006924:	46a1      	mov	r9, r4
 8006926:	eb18 080a 	adds.w	r8, r8, sl
 800692a:	eb49 090b 	adc.w	r9, r9, fp
 800692e:	f04f 0100 	mov.w	r1, #0
 8006932:	f04f 0200 	mov.w	r2, #0
 8006936:	ea4f 02c9 	mov.w	r2, r9, lsl #3
 800693a:	ea42 7258 	orr.w	r2, r2, r8, lsr #29
 800693e:	ea4f 01c8 	mov.w	r1, r8, lsl #3
 8006942:	4688      	mov	r8, r1
 8006944:	4691      	mov	r9, r2
 8006946:	eb1a 0508 	adds.w	r5, sl, r8
 800694a:	eb4b 0609 	adc.w	r6, fp, r9
 800694e:	687b      	ldr	r3, [r7, #4]
 8006950:	685b      	ldr	r3, [r3, #4]
 8006952:	4619      	mov	r1, r3
 8006954:	f04f 0200 	mov.w	r2, #0
 8006958:	f04f 0300 	mov.w	r3, #0
 800695c:	f04f 0400 	mov.w	r4, #0
 8006960:	0094      	lsls	r4, r2, #2
 8006962:	ea44 7491 	orr.w	r4, r4, r1, lsr #30
 8006966:	008b      	lsls	r3, r1, #2
 8006968:	461a      	mov	r2, r3
 800696a:	4623      	mov	r3, r4
 800696c:	4628      	mov	r0, r5
 800696e:	4631      	mov	r1, r6
 8006970:	f7fa f942 	bl	8000bf8 <__aeabi_uldivmod>
 8006974:	4603      	mov	r3, r0
 8006976:	460c      	mov	r4, r1
 8006978:	461a      	mov	r2, r3
 800697a:	4b50      	ldr	r3, [pc, #320]	; (8006abc <UART_SetConfig+0x6f4>)
 800697c:	fba3 2302 	umull	r2, r3, r3, r2
 8006980:	095b      	lsrs	r3, r3, #5
 8006982:	ea4f 1803 	mov.w	r8, r3, lsl #4
 8006986:	68bb      	ldr	r3, [r7, #8]
 8006988:	469b      	mov	fp, r3
 800698a:	f04f 0c00 	mov.w	ip, #0
 800698e:	46d9      	mov	r9, fp
 8006990:	46e2      	mov	sl, ip
 8006992:	eb19 0309 	adds.w	r3, r9, r9
 8006996:	eb4a 040a 	adc.w	r4, sl, sl
 800699a:	4699      	mov	r9, r3
 800699c:	46a2      	mov	sl, r4
 800699e:	eb19 090b 	adds.w	r9, r9, fp
 80069a2:	eb4a 0a0c 	adc.w	sl, sl, ip
 80069a6:	f04f 0100 	mov.w	r1, #0
 80069aa:	f04f 0200 	mov.w	r2, #0
 80069ae:	ea4f 02ca 	mov.w	r2, sl, lsl #3
 80069b2:	ea42 7259 	orr.w	r2, r2, r9, lsr #29
 80069b6:	ea4f 01c9 	mov.w	r1, r9, lsl #3
 80069ba:	4689      	mov	r9, r1
 80069bc:	4692      	mov	sl, r2
 80069be:	eb1b 0509 	adds.w	r5, fp, r9
 80069c2:	eb4c 060a 	adc.w	r6, ip, sl
 80069c6:	687b      	ldr	r3, [r7, #4]
 80069c8:	685b      	ldr	r3, [r3, #4]
 80069ca:	4619      	mov	r1, r3
 80069cc:	f04f 0200 	mov.w	r2, #0
 80069d0:	f04f 0300 	mov.w	r3, #0
 80069d4:	f04f 0400 	mov.w	r4, #0
 80069d8:	0094      	lsls	r4, r2, #2
 80069da:	ea44 7491 	orr.w	r4, r4, r1, lsr #30
 80069de:	008b      	lsls	r3, r1, #2
 80069e0:	461a      	mov	r2, r3
 80069e2:	4623      	mov	r3, r4
 80069e4:	4628      	mov	r0, r5
 80069e6:	4631      	mov	r1, r6
 80069e8:	f7fa f906 	bl	8000bf8 <__aeabi_uldivmod>
 80069ec:	4603      	mov	r3, r0
 80069ee:	460c      	mov	r4, r1
 80069f0:	461a      	mov	r2, r3
 80069f2:	4b32      	ldr	r3, [pc, #200]	; (8006abc <UART_SetConfig+0x6f4>)
 80069f4:	fba3 1302 	umull	r1, r3, r3, r2
 80069f8:	095b      	lsrs	r3, r3, #5
 80069fa:	2164      	movs	r1, #100	; 0x64
 80069fc:	fb01 f303 	mul.w	r3, r1, r3
 8006a00:	1ad3      	subs	r3, r2, r3
 8006a02:	011b      	lsls	r3, r3, #4
 8006a04:	3332      	adds	r3, #50	; 0x32
 8006a06:	4a2d      	ldr	r2, [pc, #180]	; (8006abc <UART_SetConfig+0x6f4>)
 8006a08:	fba2 2303 	umull	r2, r3, r2, r3
 8006a0c:	095b      	lsrs	r3, r3, #5
 8006a0e:	f003 03f0 	and.w	r3, r3, #240	; 0xf0
 8006a12:	4498      	add	r8, r3
 8006a14:	68bb      	ldr	r3, [r7, #8]
 8006a16:	469b      	mov	fp, r3
 8006a18:	f04f 0c00 	mov.w	ip, #0
 8006a1c:	46d9      	mov	r9, fp
 8006a1e:	46e2      	mov	sl, ip
 8006a20:	eb19 0309 	adds.w	r3, r9, r9
 8006a24:	eb4a 040a 	adc.w	r4, sl, sl
 8006a28:	4699      	mov	r9, r3
 8006a2a:	46a2      	mov	sl, r4
 8006a2c:	eb19 090b 	adds.w	r9, r9, fp
 8006a30:	eb4a 0a0c 	adc.w	sl, sl, ip
 8006a34:	f04f 0100 	mov.w	r1, #0
 8006a38:	f04f 0200 	mov.w	r2, #0
 8006a3c:	ea4f 02ca 	mov.w	r2, sl, lsl #3
 8006a40:	ea42 7259 	orr.w	r2, r2, r9, lsr #29
 8006a44:	ea4f 01c9 	mov.w	r1, r9, lsl #3
 8006a48:	4689      	mov	r9, r1
 8006a4a:	4692      	mov	sl, r2
 8006a4c:	eb1b 0509 	adds.w	r5, fp, r9
 8006a50:	eb4c 060a 	adc.w	r6, ip, sl
 8006a54:	687b      	ldr	r3, [r7, #4]
 8006a56:	685b      	ldr	r3, [r3, #4]
 8006a58:	4619      	mov	r1, r3
 8006a5a:	f04f 0200 	mov.w	r2, #0
 8006a5e:	f04f 0300 	mov.w	r3, #0
 8006a62:	f04f 0400 	mov.w	r4, #0
 8006a66:	0094      	lsls	r4, r2, #2
 8006a68:	ea44 7491 	orr.w	r4, r4, r1, lsr #30
 8006a6c:	008b      	lsls	r3, r1, #2
 8006a6e:	461a      	mov	r2, r3
 8006a70:	4623      	mov	r3, r4
 8006a72:	4628      	mov	r0, r5
 8006a74:	4631      	mov	r1, r6
 8006a76:	f7fa f8bf 	bl	8000bf8 <__aeabi_uldivmod>
 8006a7a:	4603      	mov	r3, r0
 8006a7c:	460c      	mov	r4, r1
 8006a7e:	461a      	mov	r2, r3
 8006a80:	4b0e      	ldr	r3, [pc, #56]	; (8006abc <UART_SetConfig+0x6f4>)
 8006a82:	fba3 1302 	umull	r1, r3, r3, r2
 8006a86:	095b      	lsrs	r3, r3, #5
 8006a88:	2164      	movs	r1, #100	; 0x64
 8006a8a:	fb01 f303 	mul.w	r3, r1, r3
 8006a8e:	1ad3      	subs	r3, r2, r3
 8006a90:	011b      	lsls	r3, r3, #4
 8006a92:	3332      	adds	r3, #50	; 0x32
 8006a94:	4a09      	ldr	r2, [pc, #36]	; (8006abc <UART_SetConfig+0x6f4>)
 8006a96:	fba2 2303 	umull	r2, r3, r2, r3
 8006a9a:	095b      	lsrs	r3, r3, #5
 8006a9c:	f003 020f 	and.w	r2, r3, #15
 8006aa0:	687b      	ldr	r3, [r7, #4]
 8006aa2:	681b      	ldr	r3, [r3, #0]
 8006aa4:	4442      	add	r2, r8
 8006aa6:	609a      	str	r2, [r3, #8]
}
 8006aa8:	e7ff      	b.n	8006aaa <UART_SetConfig+0x6e2>
 8006aaa:	bf00      	nop
 8006aac:	3714      	adds	r7, #20
 8006aae:	46bd      	mov	sp, r7
 8006ab0:	e8bd 8ff0 	ldmia.w	sp!, {r4, r5, r6, r7, r8, r9, sl, fp, pc}
 8006ab4:	40011000 	.word	0x40011000
 8006ab8:	40011400 	.word	0x40011400
 8006abc:	51eb851f 	.word	0x51eb851f

08006ac0 <makeFreeRtosPriority>:

extern void xPortSysTickHandler(void);

/* Convert from CMSIS type osPriority to FreeRTOS priority number */
static unsigned portBASE_TYPE makeFreeRtosPriority (osPriority priority)
{
 8006ac0:	b480      	push	{r7}
 8006ac2:	b085      	sub	sp, #20
 8006ac4:	af00      	add	r7, sp, #0
 8006ac6:	4603      	mov	r3, r0
 8006ac8:	80fb      	strh	r3, [r7, #6]
  unsigned portBASE_TYPE fpriority = tskIDLE_PRIORITY;
 8006aca:	2300      	movs	r3, #0
 8006acc:	60fb      	str	r3, [r7, #12]
  
  if (priority != osPriorityError) {
 8006ace:	f9b7 3006 	ldrsh.w	r3, [r7, #6]
 8006ad2:	2b84      	cmp	r3, #132	; 0x84
 8006ad4:	d005      	beq.n	8006ae2 <makeFreeRtosPriority+0x22>
    fpriority += (priority - osPriorityIdle);
 8006ad6:	f9b7 2006 	ldrsh.w	r2, [r7, #6]
 8006ada:	68fb      	ldr	r3, [r7, #12]
 8006adc:	4413      	add	r3, r2
 8006ade:	3303      	adds	r3, #3
 8006ae0:	60fb      	str	r3, [r7, #12]
  }
  
  return fpriority;
 8006ae2:	68fb      	ldr	r3, [r7, #12]
}
 8006ae4:	4618      	mov	r0, r3
 8006ae6:	3714      	adds	r7, #20
 8006ae8:	46bd      	mov	sp, r7
 8006aea:	f85d 7b04 	ldr.w	r7, [sp], #4
 8006aee:	4770      	bx	lr

08006af0 <osKernelStart>:
* @param  argument      pointer that is passed to the thread function as start argument.
* @retval status code that indicates the execution status of the function
* @note   MUST REMAIN UNCHANGED: \b osKernelStart shall be consistent in every CMSIS-RTOS.
*/
osStatus osKernelStart (void)
{
 8006af0:	b580      	push	{r7, lr}
 8006af2:	af00      	add	r7, sp, #0
  vTaskStartScheduler();
 8006af4:	f000 fada 	bl	80070ac <vTaskStartScheduler>
  
  return osOK;
 8006af8:	2300      	movs	r3, #0
}
 8006afa:	4618      	mov	r0, r3
 8006afc:	bd80      	pop	{r7, pc}

08006afe <osThreadCreate>:
* @param  argument      pointer that is passed to the thread function as start argument.
* @retval thread ID for reference by other functions or NULL in case of error.
* @note   MUST REMAIN UNCHANGED: \b osThreadCreate shall be consistent in every CMSIS-RTOS.
*/
osThreadId osThreadCreate (const osThreadDef_t *thread_def, void *argument)
{
 8006afe:	b5f0      	push	{r4, r5, r6, r7, lr}
 8006b00:	b089      	sub	sp, #36	; 0x24
 8006b02:	af04      	add	r7, sp, #16
 8006b04:	6078      	str	r0, [r7, #4]
 8006b06:	6039      	str	r1, [r7, #0]
  TaskHandle_t handle;
  
#if( configSUPPORT_STATIC_ALLOCATION == 1 ) &&  ( configSUPPORT_DYNAMIC_ALLOCATION == 1 )
  if((thread_def->buffer != NULL) && (thread_def->controlblock != NULL)) {
 8006b08:	687b      	ldr	r3, [r7, #4]
 8006b0a:	695b      	ldr	r3, [r3, #20]
 8006b0c:	2b00      	cmp	r3, #0
 8006b0e:	d020      	beq.n	8006b52 <osThreadCreate+0x54>
 8006b10:	687b      	ldr	r3, [r7, #4]
 8006b12:	699b      	ldr	r3, [r3, #24]
 8006b14:	2b00      	cmp	r3, #0
 8006b16:	d01c      	beq.n	8006b52 <osThreadCreate+0x54>
    handle = xTaskCreateStatic((TaskFunction_t)thread_def->pthread,(const portCHAR *)thread_def->name,
 8006b18:	687b      	ldr	r3, [r7, #4]
 8006b1a:	685c      	ldr	r4, [r3, #4]
 8006b1c:	687b      	ldr	r3, [r7, #4]
 8006b1e:	681d      	ldr	r5, [r3, #0]
 8006b20:	687b      	ldr	r3, [r7, #4]
 8006b22:	691e      	ldr	r6, [r3, #16]
 8006b24:	687b      	ldr	r3, [r7, #4]
 8006b26:	f9b3 3008 	ldrsh.w	r3, [r3, #8]
 8006b2a:	4618      	mov	r0, r3
 8006b2c:	f7ff ffc8 	bl	8006ac0 <makeFreeRtosPriority>
 8006b30:	4601      	mov	r1, r0
              thread_def->stacksize, argument, makeFreeRtosPriority(thread_def->tpriority),
              thread_def->buffer, thread_def->controlblock);
 8006b32:	687b      	ldr	r3, [r7, #4]
 8006b34:	695b      	ldr	r3, [r3, #20]
 8006b36:	687a      	ldr	r2, [r7, #4]
 8006b38:	6992      	ldr	r2, [r2, #24]
    handle = xTaskCreateStatic((TaskFunction_t)thread_def->pthread,(const portCHAR *)thread_def->name,
 8006b3a:	9202      	str	r2, [sp, #8]
 8006b3c:	9301      	str	r3, [sp, #4]
 8006b3e:	9100      	str	r1, [sp, #0]
 8006b40:	683b      	ldr	r3, [r7, #0]
 8006b42:	4632      	mov	r2, r6
 8006b44:	4629      	mov	r1, r5
 8006b46:	4620      	mov	r0, r4
 8006b48:	f000 f8ed 	bl	8006d26 <xTaskCreateStatic>
 8006b4c:	4603      	mov	r3, r0
 8006b4e:	60fb      	str	r3, [r7, #12]
 8006b50:	e01c      	b.n	8006b8c <osThreadCreate+0x8e>
  }
  else {
    if (xTaskCreate((TaskFunction_t)thread_def->pthread,(const portCHAR *)thread_def->name,
 8006b52:	687b      	ldr	r3, [r7, #4]
 8006b54:	685c      	ldr	r4, [r3, #4]
 8006b56:	687b      	ldr	r3, [r7, #4]
 8006b58:	681d      	ldr	r5, [r3, #0]
              thread_def->stacksize, argument, makeFreeRtosPriority(thread_def->tpriority),
 8006b5a:	687b      	ldr	r3, [r7, #4]
 8006b5c:	691b      	ldr	r3, [r3, #16]
    if (xTaskCreate((TaskFunction_t)thread_def->pthread,(const portCHAR *)thread_def->name,
 8006b5e:	b29e      	uxth	r6, r3
 8006b60:	687b      	ldr	r3, [r7, #4]
 8006b62:	f9b3 3008 	ldrsh.w	r3, [r3, #8]
 8006b66:	4618      	mov	r0, r3
 8006b68:	f7ff ffaa 	bl	8006ac0 <makeFreeRtosPriority>
 8006b6c:	4602      	mov	r2, r0
 8006b6e:	f107 030c 	add.w	r3, r7, #12
 8006b72:	9301      	str	r3, [sp, #4]
 8006b74:	9200      	str	r2, [sp, #0]
 8006b76:	683b      	ldr	r3, [r7, #0]
 8006b78:	4632      	mov	r2, r6
 8006b7a:	4629      	mov	r1, r5
 8006b7c:	4620      	mov	r0, r4
 8006b7e:	f000 f92c 	bl	8006dda <xTaskCreate>
 8006b82:	4603      	mov	r3, r0
 8006b84:	2b01      	cmp	r3, #1
 8006b86:	d001      	beq.n	8006b8c <osThreadCreate+0x8e>
              &handle) != pdPASS)  {
      return NULL;
 8006b88:	2300      	movs	r3, #0
 8006b8a:	e000      	b.n	8006b8e <osThreadCreate+0x90>
                   &handle) != pdPASS)  {
    return NULL;
  }     
#endif
  
  return handle;
 8006b8c:	68fb      	ldr	r3, [r7, #12]
}
 8006b8e:	4618      	mov	r0, r3
 8006b90:	3714      	adds	r7, #20
 8006b92:	46bd      	mov	sp, r7
 8006b94:	bdf0      	pop	{r4, r5, r6, r7, pc}

08006b96 <osDelay>:
* @brief   Wait for Timeout (Time Delay)
* @param   millisec      time delay value
* @retval  status code that indicates the execution status of the function.
*/
osStatus osDelay (uint32_t millisec)
{
 8006b96:	b580      	push	{r7, lr}
 8006b98:	b084      	sub	sp, #16
 8006b9a:	af00      	add	r7, sp, #0
 8006b9c:	6078      	str	r0, [r7, #4]
#if INCLUDE_vTaskDelay
  TickType_t ticks = millisec / portTICK_PERIOD_MS;
 8006b9e:	687b      	ldr	r3, [r7, #4]
 8006ba0:	60fb      	str	r3, [r7, #12]
  
  vTaskDelay(ticks ? ticks : 1);          /* Minimum delay = 1 tick */
 8006ba2:	68fb      	ldr	r3, [r7, #12]
 8006ba4:	2b00      	cmp	r3, #0
 8006ba6:	d001      	beq.n	8006bac <osDelay+0x16>
 8006ba8:	68fb      	ldr	r3, [r7, #12]
 8006baa:	e000      	b.n	8006bae <osDelay+0x18>
 8006bac:	2301      	movs	r3, #1
 8006bae:	4618      	mov	r0, r3
 8006bb0:	f000 fa48 	bl	8007044 <vTaskDelay>
  
  return osOK;
 8006bb4:	2300      	movs	r3, #0
#else
  (void) millisec;
  
  return osErrorResource;
#endif
}
 8006bb6:	4618      	mov	r0, r3
 8006bb8:	3710      	adds	r7, #16
 8006bba:	46bd      	mov	sp, r7
 8006bbc:	bd80      	pop	{r7, pc}

08006bbe <vListInitialise>:
/*-----------------------------------------------------------
 * PUBLIC LIST API documented in list.h
 *----------------------------------------------------------*/

void vListInitialise( List_t * const pxList )
{
 8006bbe:	b480      	push	{r7}
 8006bc0:	b083      	sub	sp, #12
 8006bc2:	af00      	add	r7, sp, #0
 8006bc4:	6078      	str	r0, [r7, #4]
	/* The list structure contains a list item which is used to mark the
	end of the list.  To initialise the list the list end is inserted
	as the only list entry. */
	pxList->pxIndex = ( ListItem_t * ) &( pxList->xListEnd );			/*lint !e826 !e740 !e9087 The mini list structure is used as the list end to save RAM.  This is checked and valid. */
 8006bc6:	687b      	ldr	r3, [r7, #4]
 8006bc8:	f103 0208 	add.w	r2, r3, #8
 8006bcc:	687b      	ldr	r3, [r7, #4]
 8006bce:	605a      	str	r2, [r3, #4]

	/* The list end value is the highest possible value in the list to
	ensure it remains at the end of the list. */
	pxList->xListEnd.xItemValue = portMAX_DELAY;
 8006bd0:	687b      	ldr	r3, [r7, #4]
 8006bd2:	f04f 32ff 	mov.w	r2, #4294967295
 8006bd6:	609a      	str	r2, [r3, #8]

	/* The list end next and previous pointers point to itself so we know
	when the list is empty. */
	pxList->xListEnd.pxNext = ( ListItem_t * ) &( pxList->xListEnd );	/*lint !e826 !e740 !e9087 The mini list structure is used as the list end to save RAM.  This is checked and valid. */
 8006bd8:	687b      	ldr	r3, [r7, #4]
 8006bda:	f103 0208 	add.w	r2, r3, #8
 8006bde:	687b      	ldr	r3, [r7, #4]
 8006be0:	60da      	str	r2, [r3, #12]
	pxList->xListEnd.pxPrevious = ( ListItem_t * ) &( pxList->xListEnd );/*lint !e826 !e740 !e9087 The mini list structure is used as the list end to save RAM.  This is checked and valid. */
 8006be2:	687b      	ldr	r3, [r7, #4]
 8006be4:	f103 0208 	add.w	r2, r3, #8
 8006be8:	687b      	ldr	r3, [r7, #4]
 8006bea:	611a      	str	r2, [r3, #16]

	pxList->uxNumberOfItems = ( UBaseType_t ) 0U;
 8006bec:	687b      	ldr	r3, [r7, #4]
 8006bee:	2200      	movs	r2, #0
 8006bf0:	601a      	str	r2, [r3, #0]

	/* Write known values into the list if
	configUSE_LIST_DATA_INTEGRITY_CHECK_BYTES is set to 1. */
	listSET_LIST_INTEGRITY_CHECK_1_VALUE( pxList );
	listSET_LIST_INTEGRITY_CHECK_2_VALUE( pxList );
}
 8006bf2:	bf00      	nop
 8006bf4:	370c      	adds	r7, #12
 8006bf6:	46bd      	mov	sp, r7
 8006bf8:	f85d 7b04 	ldr.w	r7, [sp], #4
 8006bfc:	4770      	bx	lr

08006bfe <vListInitialiseItem>:
/*-----------------------------------------------------------*/

void vListInitialiseItem( ListItem_t * const pxItem )
{
 8006bfe:	b480      	push	{r7}
 8006c00:	b083      	sub	sp, #12
 8006c02:	af00      	add	r7, sp, #0
 8006c04:	6078      	str	r0, [r7, #4]
	/* Make sure the list item is not recorded as being on a list. */
	pxItem->pxContainer = NULL;
 8006c06:	687b      	ldr	r3, [r7, #4]
 8006c08:	2200      	movs	r2, #0
 8006c0a:	611a      	str	r2, [r3, #16]

	/* Write known values into the list item if
	configUSE_LIST_DATA_INTEGRITY_CHECK_BYTES is set to 1. */
	listSET_FIRST_LIST_ITEM_INTEGRITY_CHECK_VALUE( pxItem );
	listSET_SECOND_LIST_ITEM_INTEGRITY_CHECK_VALUE( pxItem );
}
 8006c0c:	bf00      	nop
 8006c0e:	370c      	adds	r7, #12
 8006c10:	46bd      	mov	sp, r7
 8006c12:	f85d 7b04 	ldr.w	r7, [sp], #4
 8006c16:	4770      	bx	lr

08006c18 <vListInsertEnd>:
/*-----------------------------------------------------------*/

void vListInsertEnd( List_t * const pxList, ListItem_t * const pxNewListItem )
{
 8006c18:	b480      	push	{r7}
 8006c1a:	b085      	sub	sp, #20
 8006c1c:	af00      	add	r7, sp, #0
 8006c1e:	6078      	str	r0, [r7, #4]
 8006c20:	6039      	str	r1, [r7, #0]
ListItem_t * const pxIndex = pxList->pxIndex;
 8006c22:	687b      	ldr	r3, [r7, #4]
 8006c24:	685b      	ldr	r3, [r3, #4]
 8006c26:	60fb      	str	r3, [r7, #12]
	listTEST_LIST_ITEM_INTEGRITY( pxNewListItem );

	/* Insert a new list item into pxList, but rather than sort the list,
	makes the new list item the last item to be removed by a call to
	listGET_OWNER_OF_NEXT_ENTRY(). */
	pxNewListItem->pxNext = pxIndex;
 8006c28:	683b      	ldr	r3, [r7, #0]
 8006c2a:	68fa      	ldr	r2, [r7, #12]
 8006c2c:	605a      	str	r2, [r3, #4]
	pxNewListItem->pxPrevious = pxIndex->pxPrevious;
 8006c2e:	68fb      	ldr	r3, [r7, #12]
 8006c30:	689a      	ldr	r2, [r3, #8]
 8006c32:	683b      	ldr	r3, [r7, #0]
 8006c34:	609a      	str	r2, [r3, #8]

	/* Only used during decision coverage testing. */
	mtCOVERAGE_TEST_DELAY();

	pxIndex->pxPrevious->pxNext = pxNewListItem;
 8006c36:	68fb      	ldr	r3, [r7, #12]
 8006c38:	689b      	ldr	r3, [r3, #8]
 8006c3a:	683a      	ldr	r2, [r7, #0]
 8006c3c:	605a      	str	r2, [r3, #4]
	pxIndex->pxPrevious = pxNewListItem;
 8006c3e:	68fb      	ldr	r3, [r7, #12]
 8006c40:	683a      	ldr	r2, [r7, #0]
 8006c42:	609a      	str	r2, [r3, #8]

	/* Remember which list the item is in. */
	pxNewListItem->pxContainer = pxList;
 8006c44:	683b      	ldr	r3, [r7, #0]
 8006c46:	687a      	ldr	r2, [r7, #4]
 8006c48:	611a      	str	r2, [r3, #16]

	( pxList->uxNumberOfItems )++;
 8006c4a:	687b      	ldr	r3, [r7, #4]
 8006c4c:	681b      	ldr	r3, [r3, #0]
 8006c4e:	1c5a      	adds	r2, r3, #1
 8006c50:	687b      	ldr	r3, [r7, #4]
 8006c52:	601a      	str	r2, [r3, #0]
}
 8006c54:	bf00      	nop
 8006c56:	3714      	adds	r7, #20
 8006c58:	46bd      	mov	sp, r7
 8006c5a:	f85d 7b04 	ldr.w	r7, [sp], #4
 8006c5e:	4770      	bx	lr

08006c60 <vListInsert>:
/*-----------------------------------------------------------*/

void vListInsert( List_t * const pxList, ListItem_t * const pxNewListItem )
{
 8006c60:	b480      	push	{r7}
 8006c62:	b085      	sub	sp, #20
 8006c64:	af00      	add	r7, sp, #0
 8006c66:	6078      	str	r0, [r7, #4]
 8006c68:	6039      	str	r1, [r7, #0]
ListItem_t *pxIterator;
const TickType_t xValueOfInsertion = pxNewListItem->xItemValue;
 8006c6a:	683b      	ldr	r3, [r7, #0]
 8006c6c:	681b      	ldr	r3, [r3, #0]
 8006c6e:	60bb      	str	r3, [r7, #8]
	new list item should be placed after it.  This ensures that TCBs which are
	stored in ready lists (all of which have the same xItemValue value) get a
	share of the CPU.  However, if the xItemValue is the same as the back marker
	the iteration loop below will not end.  Therefore the value is checked
	first, and the algorithm slightly modified if necessary. */
	if( xValueOfInsertion == portMAX_DELAY )
 8006c70:	68bb      	ldr	r3, [r7, #8]
 8006c72:	f1b3 3fff 	cmp.w	r3, #4294967295
 8006c76:	d103      	bne.n	8006c80 <vListInsert+0x20>
	{
		pxIterator = pxList->xListEnd.pxPrevious;
 8006c78:	687b      	ldr	r3, [r7, #4]
 8006c7a:	691b      	ldr	r3, [r3, #16]
 8006c7c:	60fb      	str	r3, [r7, #12]
 8006c7e:	e00c      	b.n	8006c9a <vListInsert+0x3a>
			4) Using a queue or semaphore before it has been initialised or
			   before the scheduler has been started (are interrupts firing
			   before vTaskStartScheduler() has been called?).
		**********************************************************************/

		for( pxIterator = ( ListItem_t * ) &( pxList->xListEnd ); pxIterator->pxNext->xItemValue <= xValueOfInsertion; pxIterator = pxIterator->pxNext ) /*lint !e826 !e740 !e9087 The mini list structure is used as the list end to save RAM.  This is checked and valid. *//*lint !e440 The iterator moves to a different value, not xValueOfInsertion. */
 8006c80:	687b      	ldr	r3, [r7, #4]
 8006c82:	3308      	adds	r3, #8
 8006c84:	60fb      	str	r3, [r7, #12]
 8006c86:	e002      	b.n	8006c8e <vListInsert+0x2e>
 8006c88:	68fb      	ldr	r3, [r7, #12]
 8006c8a:	685b      	ldr	r3, [r3, #4]
 8006c8c:	60fb      	str	r3, [r7, #12]
 8006c8e:	68fb      	ldr	r3, [r7, #12]
 8006c90:	685b      	ldr	r3, [r3, #4]
 8006c92:	681b      	ldr	r3, [r3, #0]
 8006c94:	68ba      	ldr	r2, [r7, #8]
 8006c96:	429a      	cmp	r2, r3
 8006c98:	d2f6      	bcs.n	8006c88 <vListInsert+0x28>
			/* There is nothing to do here, just iterating to the wanted
			insertion position. */
		}
	}

	pxNewListItem->pxNext = pxIterator->pxNext;
 8006c9a:	68fb      	ldr	r3, [r7, #12]
 8006c9c:	685a      	ldr	r2, [r3, #4]
 8006c9e:	683b      	ldr	r3, [r7, #0]
 8006ca0:	605a      	str	r2, [r3, #4]
	pxNewListItem->pxNext->pxPrevious = pxNewListItem;
 8006ca2:	683b      	ldr	r3, [r7, #0]
 8006ca4:	685b      	ldr	r3, [r3, #4]
 8006ca6:	683a      	ldr	r2, [r7, #0]
 8006ca8:	609a      	str	r2, [r3, #8]
	pxNewListItem->pxPrevious = pxIterator;
 8006caa:	683b      	ldr	r3, [r7, #0]
 8006cac:	68fa      	ldr	r2, [r7, #12]
 8006cae:	609a      	str	r2, [r3, #8]
	pxIterator->pxNext = pxNewListItem;
 8006cb0:	68fb      	ldr	r3, [r7, #12]
 8006cb2:	683a      	ldr	r2, [r7, #0]
 8006cb4:	605a      	str	r2, [r3, #4]

	/* Remember which list the item is in.  This allows fast removal of the
	item later. */
	pxNewListItem->pxContainer = pxList;
 8006cb6:	683b      	ldr	r3, [r7, #0]
 8006cb8:	687a      	ldr	r2, [r7, #4]
 8006cba:	611a      	str	r2, [r3, #16]

	( pxList->uxNumberOfItems )++;
 8006cbc:	687b      	ldr	r3, [r7, #4]
 8006cbe:	681b      	ldr	r3, [r3, #0]
 8006cc0:	1c5a      	adds	r2, r3, #1
 8006cc2:	687b      	ldr	r3, [r7, #4]
 8006cc4:	601a      	str	r2, [r3, #0]
}
 8006cc6:	bf00      	nop
 8006cc8:	3714      	adds	r7, #20
 8006cca:	46bd      	mov	sp, r7
 8006ccc:	f85d 7b04 	ldr.w	r7, [sp], #4
 8006cd0:	4770      	bx	lr

08006cd2 <uxListRemove>:
/*-----------------------------------------------------------*/

UBaseType_t uxListRemove( ListItem_t * const pxItemToRemove )
{
 8006cd2:	b480      	push	{r7}
 8006cd4:	b085      	sub	sp, #20
 8006cd6:	af00      	add	r7, sp, #0
 8006cd8:	6078      	str	r0, [r7, #4]
/* The list item knows which list it is in.  Obtain the list from the list
item. */
List_t * const pxList = pxItemToRemove->pxContainer;
 8006cda:	687b      	ldr	r3, [r7, #4]
 8006cdc:	691b      	ldr	r3, [r3, #16]
 8006cde:	60fb      	str	r3, [r7, #12]

	pxItemToRemove->pxNext->pxPrevious = pxItemToRemove->pxPrevious;
 8006ce0:	687b      	ldr	r3, [r7, #4]
 8006ce2:	685b      	ldr	r3, [r3, #4]
 8006ce4:	687a      	ldr	r2, [r7, #4]
 8006ce6:	6892      	ldr	r2, [r2, #8]
 8006ce8:	609a      	str	r2, [r3, #8]
	pxItemToRemove->pxPrevious->pxNext = pxItemToRemove->pxNext;
 8006cea:	687b      	ldr	r3, [r7, #4]
 8006cec:	689b      	ldr	r3, [r3, #8]
 8006cee:	687a      	ldr	r2, [r7, #4]
 8006cf0:	6852      	ldr	r2, [r2, #4]
 8006cf2:	605a      	str	r2, [r3, #4]

	/* Only used during decision coverage testing. */
	mtCOVERAGE_TEST_DELAY();

	/* Make sure the index is left pointing to a valid item. */
	if( pxList->pxIndex == pxItemToRemove )
 8006cf4:	68fb      	ldr	r3, [r7, #12]
 8006cf6:	685b      	ldr	r3, [r3, #4]
 8006cf8:	687a      	ldr	r2, [r7, #4]
 8006cfa:	429a      	cmp	r2, r3
 8006cfc:	d103      	bne.n	8006d06 <uxListRemove+0x34>
	{
		pxList->pxIndex = pxItemToRemove->pxPrevious;
 8006cfe:	687b      	ldr	r3, [r7, #4]
 8006d00:	689a      	ldr	r2, [r3, #8]
 8006d02:	68fb      	ldr	r3, [r7, #12]
 8006d04:	605a      	str	r2, [r3, #4]
	else
	{
		mtCOVERAGE_TEST_MARKER();
	}

	pxItemToRemove->pxContainer = NULL;
 8006d06:	687b      	ldr	r3, [r7, #4]
 8006d08:	2200      	movs	r2, #0
 8006d0a:	611a      	str	r2, [r3, #16]
	( pxList->uxNumberOfItems )--;
 8006d0c:	68fb      	ldr	r3, [r7, #12]
 8006d0e:	681b      	ldr	r3, [r3, #0]
 8006d10:	1e5a      	subs	r2, r3, #1
 8006d12:	68fb      	ldr	r3, [r7, #12]
 8006d14:	601a      	str	r2, [r3, #0]

	return pxList->uxNumberOfItems;
 8006d16:	68fb      	ldr	r3, [r7, #12]
 8006d18:	681b      	ldr	r3, [r3, #0]
}
 8006d1a:	4618      	mov	r0, r3
 8006d1c:	3714      	adds	r7, #20
 8006d1e:	46bd      	mov	sp, r7
 8006d20:	f85d 7b04 	ldr.w	r7, [sp], #4
 8006d24:	4770      	bx	lr

08006d26 <xTaskCreateStatic>:
									const uint32_t ulStackDepth,
									void * const pvParameters,
									UBaseType_t uxPriority,
									StackType_t * const puxStackBuffer,
									StaticTask_t * const pxTaskBuffer )
	{
 8006d26:	b580      	push	{r7, lr}
 8006d28:	b08e      	sub	sp, #56	; 0x38
 8006d2a:	af04      	add	r7, sp, #16
 8006d2c:	60f8      	str	r0, [r7, #12]
 8006d2e:	60b9      	str	r1, [r7, #8]
 8006d30:	607a      	str	r2, [r7, #4]
 8006d32:	603b      	str	r3, [r7, #0]
	TCB_t *pxNewTCB;
	TaskHandle_t xReturn;

		configASSERT( puxStackBuffer != NULL );
 8006d34:	6b7b      	ldr	r3, [r7, #52]	; 0x34
 8006d36:	2b00      	cmp	r3, #0
 8006d38:	d109      	bne.n	8006d4e <xTaskCreateStatic+0x28>

portFORCE_INLINE static void vPortRaiseBASEPRI( void )
{
uint32_t ulNewBASEPRI;

	__asm volatile
 8006d3a:	f04f 0350 	mov.w	r3, #80	; 0x50
 8006d3e:	f383 8811 	msr	BASEPRI, r3
 8006d42:	f3bf 8f6f 	isb	sy
 8006d46:	f3bf 8f4f 	dsb	sy
 8006d4a:	623b      	str	r3, [r7, #32]
 8006d4c:	e7fe      	b.n	8006d4c <xTaskCreateStatic+0x26>
		configASSERT( pxTaskBuffer != NULL );
 8006d4e:	6bbb      	ldr	r3, [r7, #56]	; 0x38
 8006d50:	2b00      	cmp	r3, #0
 8006d52:	d109      	bne.n	8006d68 <xTaskCreateStatic+0x42>
 8006d54:	f04f 0350 	mov.w	r3, #80	; 0x50
 8006d58:	f383 8811 	msr	BASEPRI, r3
 8006d5c:	f3bf 8f6f 	isb	sy
 8006d60:	f3bf 8f4f 	dsb	sy
 8006d64:	61fb      	str	r3, [r7, #28]
 8006d66:	e7fe      	b.n	8006d66 <xTaskCreateStatic+0x40>
		#if( configASSERT_DEFINED == 1 )
		{
			/* Sanity check that the size of the structure used to declare a
			variable of type StaticTask_t equals the size of the real task
			structure. */
			volatile size_t xSize = sizeof( StaticTask_t );
 8006d68:	2354      	movs	r3, #84	; 0x54
 8006d6a:	613b      	str	r3, [r7, #16]
			configASSERT( xSize == sizeof( TCB_t ) );
 8006d6c:	693b      	ldr	r3, [r7, #16]
 8006d6e:	2b54      	cmp	r3, #84	; 0x54
 8006d70:	d009      	beq.n	8006d86 <xTaskCreateStatic+0x60>
 8006d72:	f04f 0350 	mov.w	r3, #80	; 0x50
 8006d76:	f383 8811 	msr	BASEPRI, r3
 8006d7a:	f3bf 8f6f 	isb	sy
 8006d7e:	f3bf 8f4f 	dsb	sy
 8006d82:	61bb      	str	r3, [r7, #24]
 8006d84:	e7fe      	b.n	8006d84 <xTaskCreateStatic+0x5e>
			( void ) xSize; /* Prevent lint warning when configASSERT() is not used. */
 8006d86:	693b      	ldr	r3, [r7, #16]
		}
		#endif /* configASSERT_DEFINED */


		if( ( pxTaskBuffer != NULL ) && ( puxStackBuffer != NULL ) )
 8006d88:	6bbb      	ldr	r3, [r7, #56]	; 0x38
 8006d8a:	2b00      	cmp	r3, #0
 8006d8c:	d01e      	beq.n	8006dcc <xTaskCreateStatic+0xa6>
 8006d8e:	6b7b      	ldr	r3, [r7, #52]	; 0x34
 8006d90:	2b00      	cmp	r3, #0
 8006d92:	d01b      	beq.n	8006dcc <xTaskCreateStatic+0xa6>
		{
			/* The memory used for the task's TCB and stack are passed into this
			function - use them. */
			pxNewTCB = ( TCB_t * ) pxTaskBuffer; /*lint !e740 !e9087 Unusual cast is ok as the structures are designed to have the same alignment, and the size is checked by an assert. */
 8006d94:	6bbb      	ldr	r3, [r7, #56]	; 0x38
 8006d96:	627b      	str	r3, [r7, #36]	; 0x24
			pxNewTCB->pxStack = ( StackType_t * ) puxStackBuffer;
 8006d98:	6a7b      	ldr	r3, [r7, #36]	; 0x24
 8006d9a:	6b7a      	ldr	r2, [r7, #52]	; 0x34
 8006d9c:	631a      	str	r2, [r3, #48]	; 0x30

			#if( tskSTATIC_AND_DYNAMIC_ALLOCATION_POSSIBLE != 0 ) /*lint !e731 !e9029 Macro has been consolidated for readability reasons. */
			{
				/* Tasks can be created statically or dynamically, so note this
				task was created statically in case the task is later deleted. */
				pxNewTCB->ucStaticallyAllocated = tskSTATICALLY_ALLOCATED_STACK_AND_TCB;
 8006d9e:	6a7b      	ldr	r3, [r7, #36]	; 0x24
 8006da0:	2202      	movs	r2, #2
 8006da2:	f883 2051 	strb.w	r2, [r3, #81]	; 0x51
			}
			#endif /* tskSTATIC_AND_DYNAMIC_ALLOCATION_POSSIBLE */

			prvInitialiseNewTask( pxTaskCode, pcName, ulStackDepth, pvParameters, uxPriority, &xReturn, pxNewTCB, NULL );
 8006da6:	2300      	movs	r3, #0
 8006da8:	9303      	str	r3, [sp, #12]
 8006daa:	6a7b      	ldr	r3, [r7, #36]	; 0x24
 8006dac:	9302      	str	r3, [sp, #8]
 8006dae:	f107 0314 	add.w	r3, r7, #20
 8006db2:	9301      	str	r3, [sp, #4]
 8006db4:	6b3b      	ldr	r3, [r7, #48]	; 0x30
 8006db6:	9300      	str	r3, [sp, #0]
 8006db8:	683b      	ldr	r3, [r7, #0]
 8006dba:	687a      	ldr	r2, [r7, #4]
 8006dbc:	68b9      	ldr	r1, [r7, #8]
 8006dbe:	68f8      	ldr	r0, [r7, #12]
 8006dc0:	f000 f850 	bl	8006e64 <prvInitialiseNewTask>
			prvAddNewTaskToReadyList( pxNewTCB );
 8006dc4:	6a78      	ldr	r0, [r7, #36]	; 0x24
 8006dc6:	f000 f8d3 	bl	8006f70 <prvAddNewTaskToReadyList>
 8006dca:	e001      	b.n	8006dd0 <xTaskCreateStatic+0xaa>
		}
		else
		{
			xReturn = NULL;
 8006dcc:	2300      	movs	r3, #0
 8006dce:	617b      	str	r3, [r7, #20]
		}

		return xReturn;
 8006dd0:	697b      	ldr	r3, [r7, #20]
	}
 8006dd2:	4618      	mov	r0, r3
 8006dd4:	3728      	adds	r7, #40	; 0x28
 8006dd6:	46bd      	mov	sp, r7
 8006dd8:	bd80      	pop	{r7, pc}

08006dda <xTaskCreate>:
							const char * const pcName,		/*lint !e971 Unqualified char types are allowed for strings and single characters only. */
							const configSTACK_DEPTH_TYPE usStackDepth,
							void * const pvParameters,
							UBaseType_t uxPriority,
							TaskHandle_t * const pxCreatedTask )
	{
 8006dda:	b580      	push	{r7, lr}
 8006ddc:	b08c      	sub	sp, #48	; 0x30
 8006dde:	af04      	add	r7, sp, #16
 8006de0:	60f8      	str	r0, [r7, #12]
 8006de2:	60b9      	str	r1, [r7, #8]
 8006de4:	603b      	str	r3, [r7, #0]
 8006de6:	4613      	mov	r3, r2
 8006de8:	80fb      	strh	r3, [r7, #6]
		#else /* portSTACK_GROWTH */
		{
		StackType_t *pxStack;

			/* Allocate space for the stack used by the task being created. */
			pxStack = pvPortMalloc( ( ( ( size_t ) usStackDepth ) * sizeof( StackType_t ) ) ); /*lint !e9079 All values returned by pvPortMalloc() have at least the alignment required by the MCU's stack and this allocation is the stack. */
 8006dea:	88fb      	ldrh	r3, [r7, #6]
 8006dec:	009b      	lsls	r3, r3, #2
 8006dee:	4618      	mov	r0, r3
 8006df0:	f000 feb0 	bl	8007b54 <pvPortMalloc>
 8006df4:	6178      	str	r0, [r7, #20]

			if( pxStack != NULL )
 8006df6:	697b      	ldr	r3, [r7, #20]
 8006df8:	2b00      	cmp	r3, #0
 8006dfa:	d00e      	beq.n	8006e1a <xTaskCreate+0x40>
			{
				/* Allocate space for the TCB. */
				pxNewTCB = ( TCB_t * ) pvPortMalloc( sizeof( TCB_t ) ); /*lint !e9087 !e9079 All values returned by pvPortMalloc() have at least the alignment required by the MCU's stack, and the first member of TCB_t is always a pointer to the task's stack. */
 8006dfc:	2054      	movs	r0, #84	; 0x54
 8006dfe:	f000 fea9 	bl	8007b54 <pvPortMalloc>
 8006e02:	61f8      	str	r0, [r7, #28]

				if( pxNewTCB != NULL )
 8006e04:	69fb      	ldr	r3, [r7, #28]
 8006e06:	2b00      	cmp	r3, #0
 8006e08:	d003      	beq.n	8006e12 <xTaskCreate+0x38>
				{
					/* Store the stack location in the TCB. */
					pxNewTCB->pxStack = pxStack;
 8006e0a:	69fb      	ldr	r3, [r7, #28]
 8006e0c:	697a      	ldr	r2, [r7, #20]
 8006e0e:	631a      	str	r2, [r3, #48]	; 0x30
 8006e10:	e005      	b.n	8006e1e <xTaskCreate+0x44>
				}
				else
				{
					/* The stack cannot be used as the TCB was not created.  Free
					it again. */
					vPortFree( pxStack );
 8006e12:	6978      	ldr	r0, [r7, #20]
 8006e14:	f000 ff60 	bl	8007cd8 <vPortFree>
 8006e18:	e001      	b.n	8006e1e <xTaskCreate+0x44>
				}
			}
			else
			{
				pxNewTCB = NULL;
 8006e1a:	2300      	movs	r3, #0
 8006e1c:	61fb      	str	r3, [r7, #28]
			}
		}
		#endif /* portSTACK_GROWTH */

		if( pxNewTCB != NULL )
 8006e1e:	69fb      	ldr	r3, [r7, #28]
 8006e20:	2b00      	cmp	r3, #0
 8006e22:	d017      	beq.n	8006e54 <xTaskCreate+0x7a>
		{
			#if( tskSTATIC_AND_DYNAMIC_ALLOCATION_POSSIBLE != 0 ) /*lint !e9029 !e731 Macro has been consolidated for readability reasons. */
			{
				/* Tasks can be created statically or dynamically, so note this
				task was created dynamically in case it is later deleted. */
				pxNewTCB->ucStaticallyAllocated = tskDYNAMICALLY_ALLOCATED_STACK_AND_TCB;
 8006e24:	69fb      	ldr	r3, [r7, #28]
 8006e26:	2200      	movs	r2, #0
 8006e28:	f883 2051 	strb.w	r2, [r3, #81]	; 0x51
			}
			#endif /* tskSTATIC_AND_DYNAMIC_ALLOCATION_POSSIBLE */

			prvInitialiseNewTask( pxTaskCode, pcName, ( uint32_t ) usStackDepth, pvParameters, uxPriority, pxCreatedTask, pxNewTCB, NULL );
 8006e2c:	88fa      	ldrh	r2, [r7, #6]
 8006e2e:	2300      	movs	r3, #0
 8006e30:	9303      	str	r3, [sp, #12]
 8006e32:	69fb      	ldr	r3, [r7, #28]
 8006e34:	9302      	str	r3, [sp, #8]
 8006e36:	6afb      	ldr	r3, [r7, #44]	; 0x2c
 8006e38:	9301      	str	r3, [sp, #4]
 8006e3a:	6abb      	ldr	r3, [r7, #40]	; 0x28
 8006e3c:	9300      	str	r3, [sp, #0]
 8006e3e:	683b      	ldr	r3, [r7, #0]
 8006e40:	68b9      	ldr	r1, [r7, #8]
 8006e42:	68f8      	ldr	r0, [r7, #12]
 8006e44:	f000 f80e 	bl	8006e64 <prvInitialiseNewTask>
			prvAddNewTaskToReadyList( pxNewTCB );
 8006e48:	69f8      	ldr	r0, [r7, #28]
 8006e4a:	f000 f891 	bl	8006f70 <prvAddNewTaskToReadyList>
			xReturn = pdPASS;
 8006e4e:	2301      	movs	r3, #1
 8006e50:	61bb      	str	r3, [r7, #24]
 8006e52:	e002      	b.n	8006e5a <xTaskCreate+0x80>
		}
		else
		{
			xReturn = errCOULD_NOT_ALLOCATE_REQUIRED_MEMORY;
 8006e54:	f04f 33ff 	mov.w	r3, #4294967295
 8006e58:	61bb      	str	r3, [r7, #24]
		}

		return xReturn;
 8006e5a:	69bb      	ldr	r3, [r7, #24]
	}
 8006e5c:	4618      	mov	r0, r3
 8006e5e:	3720      	adds	r7, #32
 8006e60:	46bd      	mov	sp, r7
 8006e62:	bd80      	pop	{r7, pc}

08006e64 <prvInitialiseNewTask>:
									void * const pvParameters,
									UBaseType_t uxPriority,
									TaskHandle_t * const pxCreatedTask,
									TCB_t *pxNewTCB,
									const MemoryRegion_t * const xRegions )
{
 8006e64:	b580      	push	{r7, lr}
 8006e66:	b088      	sub	sp, #32
 8006e68:	af00      	add	r7, sp, #0
 8006e6a:	60f8      	str	r0, [r7, #12]
 8006e6c:	60b9      	str	r1, [r7, #8]
 8006e6e:	607a      	str	r2, [r7, #4]
 8006e70:	603b      	str	r3, [r7, #0]
	grows from high memory to low (as per the 80x86) or vice versa.
	portSTACK_GROWTH is used to make the result positive or negative as required
	by the port. */
	#if( portSTACK_GROWTH < 0 )
	{
		pxTopOfStack = &( pxNewTCB->pxStack[ ulStackDepth - ( uint32_t ) 1 ] );
 8006e72:	6b3b      	ldr	r3, [r7, #48]	; 0x30
 8006e74:	6b1a      	ldr	r2, [r3, #48]	; 0x30
 8006e76:	687b      	ldr	r3, [r7, #4]
 8006e78:	f103 4380 	add.w	r3, r3, #1073741824	; 0x40000000
 8006e7c:	3b01      	subs	r3, #1
 8006e7e:	009b      	lsls	r3, r3, #2
 8006e80:	4413      	add	r3, r2
 8006e82:	61bb      	str	r3, [r7, #24]
		pxTopOfStack = ( StackType_t * ) ( ( ( portPOINTER_SIZE_TYPE ) pxTopOfStack ) & ( ~( ( portPOINTER_SIZE_TYPE ) portBYTE_ALIGNMENT_MASK ) ) ); /*lint !e923 !e9033 !e9078 MISRA exception.  Avoiding casts between pointers and integers is not practical.  Size differences accounted for using portPOINTER_SIZE_TYPE type.  Checked by assert(). */
 8006e84:	69bb      	ldr	r3, [r7, #24]
 8006e86:	f023 0307 	bic.w	r3, r3, #7
 8006e8a:	61bb      	str	r3, [r7, #24]

		/* Check the alignment of the calculated top of stack is correct. */
		configASSERT( ( ( ( portPOINTER_SIZE_TYPE ) pxTopOfStack & ( portPOINTER_SIZE_TYPE ) portBYTE_ALIGNMENT_MASK ) == 0UL ) );
 8006e8c:	69bb      	ldr	r3, [r7, #24]
 8006e8e:	f003 0307 	and.w	r3, r3, #7
 8006e92:	2b00      	cmp	r3, #0
 8006e94:	d009      	beq.n	8006eaa <prvInitialiseNewTask+0x46>
 8006e96:	f04f 0350 	mov.w	r3, #80	; 0x50
 8006e9a:	f383 8811 	msr	BASEPRI, r3
 8006e9e:	f3bf 8f6f 	isb	sy
 8006ea2:	f3bf 8f4f 	dsb	sy
 8006ea6:	617b      	str	r3, [r7, #20]
 8006ea8:	e7fe      	b.n	8006ea8 <prvInitialiseNewTask+0x44>
		pxNewTCB->pxEndOfStack = pxNewTCB->pxStack + ( ulStackDepth - ( uint32_t ) 1 );
	}
	#endif /* portSTACK_GROWTH */

	/* Store the task name in the TCB. */
	if( pcName != NULL )
 8006eaa:	68bb      	ldr	r3, [r7, #8]
 8006eac:	2b00      	cmp	r3, #0
 8006eae:	d01f      	beq.n	8006ef0 <prvInitialiseNewTask+0x8c>
	{
		for( x = ( UBaseType_t ) 0; x < ( UBaseType_t ) configMAX_TASK_NAME_LEN; x++ )
 8006eb0:	2300      	movs	r3, #0
 8006eb2:	61fb      	str	r3, [r7, #28]
 8006eb4:	e012      	b.n	8006edc <prvInitialiseNewTask+0x78>
		{
			pxNewTCB->pcTaskName[ x ] = pcName[ x ];
 8006eb6:	68ba      	ldr	r2, [r7, #8]
 8006eb8:	69fb      	ldr	r3, [r7, #28]
 8006eba:	4413      	add	r3, r2
 8006ebc:	7819      	ldrb	r1, [r3, #0]
 8006ebe:	6b3a      	ldr	r2, [r7, #48]	; 0x30
 8006ec0:	69fb      	ldr	r3, [r7, #28]
 8006ec2:	4413      	add	r3, r2
 8006ec4:	3334      	adds	r3, #52	; 0x34
 8006ec6:	460a      	mov	r2, r1
 8006ec8:	701a      	strb	r2, [r3, #0]

			/* Don't copy all configMAX_TASK_NAME_LEN if the string is shorter than
			configMAX_TASK_NAME_LEN characters just in case the memory after the
			string is not accessible (extremely unlikely). */
			if( pcName[ x ] == ( char ) 0x00 )
 8006eca:	68ba      	ldr	r2, [r7, #8]
 8006ecc:	69fb      	ldr	r3, [r7, #28]
 8006ece:	4413      	add	r3, r2
 8006ed0:	781b      	ldrb	r3, [r3, #0]
 8006ed2:	2b00      	cmp	r3, #0
 8006ed4:	d006      	beq.n	8006ee4 <prvInitialiseNewTask+0x80>
		for( x = ( UBaseType_t ) 0; x < ( UBaseType_t ) configMAX_TASK_NAME_LEN; x++ )
 8006ed6:	69fb      	ldr	r3, [r7, #28]
 8006ed8:	3301      	adds	r3, #1
 8006eda:	61fb      	str	r3, [r7, #28]
 8006edc:	69fb      	ldr	r3, [r7, #28]
 8006ede:	2b0f      	cmp	r3, #15
 8006ee0:	d9e9      	bls.n	8006eb6 <prvInitialiseNewTask+0x52>
 8006ee2:	e000      	b.n	8006ee6 <prvInitialiseNewTask+0x82>
			{
				break;
 8006ee4:	bf00      	nop
			}
		}

		/* Ensure the name string is terminated in the case that the string length
		was greater or equal to configMAX_TASK_NAME_LEN. */
		pxNewTCB->pcTaskName[ configMAX_TASK_NAME_LEN - 1 ] = '\0';
 8006ee6:	6b3b      	ldr	r3, [r7, #48]	; 0x30
 8006ee8:	2200      	movs	r2, #0
 8006eea:	f883 2043 	strb.w	r2, [r3, #67]	; 0x43
 8006eee:	e003      	b.n	8006ef8 <prvInitialiseNewTask+0x94>
	}
	else
	{
		/* The task has not been given a name, so just ensure there is a NULL
		terminator when it is read out. */
		pxNewTCB->pcTaskName[ 0 ] = 0x00;
 8006ef0:	6b3b      	ldr	r3, [r7, #48]	; 0x30
 8006ef2:	2200      	movs	r2, #0
 8006ef4:	f883 2034 	strb.w	r2, [r3, #52]	; 0x34
	}

	/* This is used as an array index so must ensure it's not too large.  First
	remove the privilege bit if one is present. */
	if( uxPriority >= ( UBaseType_t ) configMAX_PRIORITIES )
 8006ef8:	6abb      	ldr	r3, [r7, #40]	; 0x28
 8006efa:	2b06      	cmp	r3, #6
 8006efc:	d901      	bls.n	8006f02 <prvInitialiseNewTask+0x9e>
	{
		uxPriority = ( UBaseType_t ) configMAX_PRIORITIES - ( UBaseType_t ) 1U;
 8006efe:	2306      	movs	r3, #6
 8006f00:	62bb      	str	r3, [r7, #40]	; 0x28
	else
	{
		mtCOVERAGE_TEST_MARKER();
	}

	pxNewTCB->uxPriority = uxPriority;
 8006f02:	6b3b      	ldr	r3, [r7, #48]	; 0x30
 8006f04:	6aba      	ldr	r2, [r7, #40]	; 0x28
 8006f06:	62da      	str	r2, [r3, #44]	; 0x2c
	#if ( configUSE_MUTEXES == 1 )
	{
		pxNewTCB->uxBasePriority = uxPriority;
 8006f08:	6b3b      	ldr	r3, [r7, #48]	; 0x30
 8006f0a:	6aba      	ldr	r2, [r7, #40]	; 0x28
 8006f0c:	645a      	str	r2, [r3, #68]	; 0x44
		pxNewTCB->uxMutexesHeld = 0;
 8006f0e:	6b3b      	ldr	r3, [r7, #48]	; 0x30
 8006f10:	2200      	movs	r2, #0
 8006f12:	649a      	str	r2, [r3, #72]	; 0x48
	}
	#endif /* configUSE_MUTEXES */

	vListInitialiseItem( &( pxNewTCB->xStateListItem ) );
 8006f14:	6b3b      	ldr	r3, [r7, #48]	; 0x30
 8006f16:	3304      	adds	r3, #4
 8006f18:	4618      	mov	r0, r3
 8006f1a:	f7ff fe70 	bl	8006bfe <vListInitialiseItem>
	vListInitialiseItem( &( pxNewTCB->xEventListItem ) );
 8006f1e:	6b3b      	ldr	r3, [r7, #48]	; 0x30
 8006f20:	3318      	adds	r3, #24
 8006f22:	4618      	mov	r0, r3
 8006f24:	f7ff fe6b 	bl	8006bfe <vListInitialiseItem>

	/* Set the pxNewTCB as a link back from the ListItem_t.  This is so we can get
	back to	the containing TCB from a generic item in a list. */
	listSET_LIST_ITEM_OWNER( &( pxNewTCB->xStateListItem ), pxNewTCB );
 8006f28:	6b3b      	ldr	r3, [r7, #48]	; 0x30
 8006f2a:	6b3a      	ldr	r2, [r7, #48]	; 0x30
 8006f2c:	611a      	str	r2, [r3, #16]

	/* Event lists are always in priority order. */
	listSET_LIST_ITEM_VALUE( &( pxNewTCB->xEventListItem ), ( TickType_t ) configMAX_PRIORITIES - ( TickType_t ) uxPriority ); /*lint !e961 MISRA exception as the casts are only redundant for some ports. */
 8006f2e:	6abb      	ldr	r3, [r7, #40]	; 0x28
 8006f30:	f1c3 0207 	rsb	r2, r3, #7
 8006f34:	6b3b      	ldr	r3, [r7, #48]	; 0x30
 8006f36:	619a      	str	r2, [r3, #24]
	listSET_LIST_ITEM_OWNER( &( pxNewTCB->xEventListItem ), pxNewTCB );
 8006f38:	6b3b      	ldr	r3, [r7, #48]	; 0x30
 8006f3a:	6b3a      	ldr	r2, [r7, #48]	; 0x30
 8006f3c:	625a      	str	r2, [r3, #36]	; 0x24
	}
	#endif

	#if ( configUSE_TASK_NOTIFICATIONS == 1 )
	{
		pxNewTCB->ulNotifiedValue = 0;
 8006f3e:	6b3b      	ldr	r3, [r7, #48]	; 0x30
 8006f40:	2200      	movs	r2, #0
 8006f42:	64da      	str	r2, [r3, #76]	; 0x4c
		pxNewTCB->ucNotifyState = taskNOT_WAITING_NOTIFICATION;
 8006f44:	6b3b      	ldr	r3, [r7, #48]	; 0x30
 8006f46:	2200      	movs	r2, #0
 8006f48:	f883 2050 	strb.w	r2, [r3, #80]	; 0x50
			}
			#endif /* portSTACK_GROWTH */
		}
		#else /* portHAS_STACK_OVERFLOW_CHECKING */
		{
			pxNewTCB->pxTopOfStack = pxPortInitialiseStack( pxTopOfStack, pxTaskCode, pvParameters );
 8006f4c:	683a      	ldr	r2, [r7, #0]
 8006f4e:	68f9      	ldr	r1, [r7, #12]
 8006f50:	69b8      	ldr	r0, [r7, #24]
 8006f52:	f000 fbfd 	bl	8007750 <pxPortInitialiseStack>
 8006f56:	4602      	mov	r2, r0
 8006f58:	6b3b      	ldr	r3, [r7, #48]	; 0x30
 8006f5a:	601a      	str	r2, [r3, #0]
		}
		#endif /* portHAS_STACK_OVERFLOW_CHECKING */
	}
	#endif /* portUSING_MPU_WRAPPERS */

	if( pxCreatedTask != NULL )
 8006f5c:	6afb      	ldr	r3, [r7, #44]	; 0x2c
 8006f5e:	2b00      	cmp	r3, #0
 8006f60:	d002      	beq.n	8006f68 <prvInitialiseNewTask+0x104>
	{
		/* Pass the handle out in an anonymous way.  The handle can be used to
		change the created task's priority, delete the created task, etc.*/
		*pxCreatedTask = ( TaskHandle_t ) pxNewTCB;
 8006f62:	6afb      	ldr	r3, [r7, #44]	; 0x2c
 8006f64:	6b3a      	ldr	r2, [r7, #48]	; 0x30
 8006f66:	601a      	str	r2, [r3, #0]
	}
	else
	{
		mtCOVERAGE_TEST_MARKER();
	}
}
 8006f68:	bf00      	nop
 8006f6a:	3720      	adds	r7, #32
 8006f6c:	46bd      	mov	sp, r7
 8006f6e:	bd80      	pop	{r7, pc}

08006f70 <prvAddNewTaskToReadyList>:
/*-----------------------------------------------------------*/

static void prvAddNewTaskToReadyList( TCB_t *pxNewTCB )
{
 8006f70:	b580      	push	{r7, lr}
 8006f72:	b082      	sub	sp, #8
 8006f74:	af00      	add	r7, sp, #0
 8006f76:	6078      	str	r0, [r7, #4]
	/* Ensure interrupts don't access the task lists while the lists are being
	updated. */
	taskENTER_CRITICAL();
 8006f78:	f000 fd10 	bl	800799c <vPortEnterCritical>
	{
		uxCurrentNumberOfTasks++;
 8006f7c:	4b2a      	ldr	r3, [pc, #168]	; (8007028 <prvAddNewTaskToReadyList+0xb8>)
 8006f7e:	681b      	ldr	r3, [r3, #0]
 8006f80:	3301      	adds	r3, #1
 8006f82:	4a29      	ldr	r2, [pc, #164]	; (8007028 <prvAddNewTaskToReadyList+0xb8>)
 8006f84:	6013      	str	r3, [r2, #0]
		if( pxCurrentTCB == NULL )
 8006f86:	4b29      	ldr	r3, [pc, #164]	; (800702c <prvAddNewTaskToReadyList+0xbc>)
 8006f88:	681b      	ldr	r3, [r3, #0]
 8006f8a:	2b00      	cmp	r3, #0
 8006f8c:	d109      	bne.n	8006fa2 <prvAddNewTaskToReadyList+0x32>
		{
			/* There are no other tasks, or all the other tasks are in
			the suspended state - make this the current task. */
			pxCurrentTCB = pxNewTCB;
 8006f8e:	4a27      	ldr	r2, [pc, #156]	; (800702c <prvAddNewTaskToReadyList+0xbc>)
 8006f90:	687b      	ldr	r3, [r7, #4]
 8006f92:	6013      	str	r3, [r2, #0]

			if( uxCurrentNumberOfTasks == ( UBaseType_t ) 1 )
 8006f94:	4b24      	ldr	r3, [pc, #144]	; (8007028 <prvAddNewTaskToReadyList+0xb8>)
 8006f96:	681b      	ldr	r3, [r3, #0]
 8006f98:	2b01      	cmp	r3, #1
 8006f9a:	d110      	bne.n	8006fbe <prvAddNewTaskToReadyList+0x4e>
			{
				/* This is the first task to be created so do the preliminary
				initialisation required.  We will not recover if this call
				fails, but we will report the failure. */
				prvInitialiseTaskLists();
 8006f9c:	f000 fab8 	bl	8007510 <prvInitialiseTaskLists>
 8006fa0:	e00d      	b.n	8006fbe <prvAddNewTaskToReadyList+0x4e>
		else
		{
			/* If the scheduler is not already running, make this task the
			current task if it is the highest priority task to be created
			so far. */
			if( xSchedulerRunning == pdFALSE )
 8006fa2:	4b23      	ldr	r3, [pc, #140]	; (8007030 <prvAddNewTaskToReadyList+0xc0>)
 8006fa4:	681b      	ldr	r3, [r3, #0]
 8006fa6:	2b00      	cmp	r3, #0
 8006fa8:	d109      	bne.n	8006fbe <prvAddNewTaskToReadyList+0x4e>
			{
				if( pxCurrentTCB->uxPriority <= pxNewTCB->uxPriority )
 8006faa:	4b20      	ldr	r3, [pc, #128]	; (800702c <prvAddNewTaskToReadyList+0xbc>)
 8006fac:	681b      	ldr	r3, [r3, #0]
 8006fae:	6ada      	ldr	r2, [r3, #44]	; 0x2c
 8006fb0:	687b      	ldr	r3, [r7, #4]
 8006fb2:	6adb      	ldr	r3, [r3, #44]	; 0x2c
 8006fb4:	429a      	cmp	r2, r3
 8006fb6:	d802      	bhi.n	8006fbe <prvAddNewTaskToReadyList+0x4e>
				{
					pxCurrentTCB = pxNewTCB;
 8006fb8:	4a1c      	ldr	r2, [pc, #112]	; (800702c <prvAddNewTaskToReadyList+0xbc>)
 8006fba:	687b      	ldr	r3, [r7, #4]
 8006fbc:	6013      	str	r3, [r2, #0]
			{
				mtCOVERAGE_TEST_MARKER();
			}
		}

		uxTaskNumber++;
 8006fbe:	4b1d      	ldr	r3, [pc, #116]	; (8007034 <prvAddNewTaskToReadyList+0xc4>)
 8006fc0:	681b      	ldr	r3, [r3, #0]
 8006fc2:	3301      	adds	r3, #1
 8006fc4:	4a1b      	ldr	r2, [pc, #108]	; (8007034 <prvAddNewTaskToReadyList+0xc4>)
 8006fc6:	6013      	str	r3, [r2, #0]
			pxNewTCB->uxTCBNumber = uxTaskNumber;
		}
		#endif /* configUSE_TRACE_FACILITY */
		traceTASK_CREATE( pxNewTCB );

		prvAddTaskToReadyList( pxNewTCB );
 8006fc8:	687b      	ldr	r3, [r7, #4]
 8006fca:	6adb      	ldr	r3, [r3, #44]	; 0x2c
 8006fcc:	2201      	movs	r2, #1
 8006fce:	409a      	lsls	r2, r3
 8006fd0:	4b19      	ldr	r3, [pc, #100]	; (8007038 <prvAddNewTaskToReadyList+0xc8>)
 8006fd2:	681b      	ldr	r3, [r3, #0]
 8006fd4:	4313      	orrs	r3, r2
 8006fd6:	4a18      	ldr	r2, [pc, #96]	; (8007038 <prvAddNewTaskToReadyList+0xc8>)
 8006fd8:	6013      	str	r3, [r2, #0]
 8006fda:	687b      	ldr	r3, [r7, #4]
 8006fdc:	6ada      	ldr	r2, [r3, #44]	; 0x2c
 8006fde:	4613      	mov	r3, r2
 8006fe0:	009b      	lsls	r3, r3, #2
 8006fe2:	4413      	add	r3, r2
 8006fe4:	009b      	lsls	r3, r3, #2
 8006fe6:	4a15      	ldr	r2, [pc, #84]	; (800703c <prvAddNewTaskToReadyList+0xcc>)
 8006fe8:	441a      	add	r2, r3
 8006fea:	687b      	ldr	r3, [r7, #4]
 8006fec:	3304      	adds	r3, #4
 8006fee:	4619      	mov	r1, r3
 8006ff0:	4610      	mov	r0, r2
 8006ff2:	f7ff fe11 	bl	8006c18 <vListInsertEnd>

		portSETUP_TCB( pxNewTCB );
	}
	taskEXIT_CRITICAL();
 8006ff6:	f000 fcff 	bl	80079f8 <vPortExitCritical>

	if( xSchedulerRunning != pdFALSE )
 8006ffa:	4b0d      	ldr	r3, [pc, #52]	; (8007030 <prvAddNewTaskToReadyList+0xc0>)
 8006ffc:	681b      	ldr	r3, [r3, #0]
 8006ffe:	2b00      	cmp	r3, #0
 8007000:	d00e      	beq.n	8007020 <prvAddNewTaskToReadyList+0xb0>
	{
		/* If the created task is of a higher priority than the current task
		then it should run now. */
		if( pxCurrentTCB->uxPriority < pxNewTCB->uxPriority )
 8007002:	4b0a      	ldr	r3, [pc, #40]	; (800702c <prvAddNewTaskToReadyList+0xbc>)
 8007004:	681b      	ldr	r3, [r3, #0]
 8007006:	6ada      	ldr	r2, [r3, #44]	; 0x2c
 8007008:	687b      	ldr	r3, [r7, #4]
 800700a:	6adb      	ldr	r3, [r3, #44]	; 0x2c
 800700c:	429a      	cmp	r2, r3
 800700e:	d207      	bcs.n	8007020 <prvAddNewTaskToReadyList+0xb0>
		{
			taskYIELD_IF_USING_PREEMPTION();
 8007010:	4b0b      	ldr	r3, [pc, #44]	; (8007040 <prvAddNewTaskToReadyList+0xd0>)
 8007012:	f04f 5280 	mov.w	r2, #268435456	; 0x10000000
 8007016:	601a      	str	r2, [r3, #0]
 8007018:	f3bf 8f4f 	dsb	sy
 800701c:	f3bf 8f6f 	isb	sy
	}
	else
	{
		mtCOVERAGE_TEST_MARKER();
	}
}
 8007020:	bf00      	nop
 8007022:	3708      	adds	r7, #8
 8007024:	46bd      	mov	sp, r7
 8007026:	bd80      	pop	{r7, pc}
 8007028:	200003f0 	.word	0x200003f0
 800702c:	200002f0 	.word	0x200002f0
 8007030:	200003fc 	.word	0x200003fc
 8007034:	2000040c 	.word	0x2000040c
 8007038:	200003f8 	.word	0x200003f8
 800703c:	200002f4 	.word	0x200002f4
 8007040:	e000ed04 	.word	0xe000ed04

08007044 <vTaskDelay>:
/*-----------------------------------------------------------*/

#if ( INCLUDE_vTaskDelay == 1 )

	void vTaskDelay( const TickType_t xTicksToDelay )
	{
 8007044:	b580      	push	{r7, lr}
 8007046:	b084      	sub	sp, #16
 8007048:	af00      	add	r7, sp, #0
 800704a:	6078      	str	r0, [r7, #4]
	BaseType_t xAlreadyYielded = pdFALSE;
 800704c:	2300      	movs	r3, #0
 800704e:	60fb      	str	r3, [r7, #12]

		/* A delay time of zero just forces a reschedule. */
		if( xTicksToDelay > ( TickType_t ) 0U )
 8007050:	687b      	ldr	r3, [r7, #4]
 8007052:	2b00      	cmp	r3, #0
 8007054:	d016      	beq.n	8007084 <vTaskDelay+0x40>
		{
			configASSERT( uxSchedulerSuspended == 0 );
 8007056:	4b13      	ldr	r3, [pc, #76]	; (80070a4 <vTaskDelay+0x60>)
 8007058:	681b      	ldr	r3, [r3, #0]
 800705a:	2b00      	cmp	r3, #0
 800705c:	d009      	beq.n	8007072 <vTaskDelay+0x2e>
 800705e:	f04f 0350 	mov.w	r3, #80	; 0x50
 8007062:	f383 8811 	msr	BASEPRI, r3
 8007066:	f3bf 8f6f 	isb	sy
 800706a:	f3bf 8f4f 	dsb	sy
 800706e:	60bb      	str	r3, [r7, #8]
 8007070:	e7fe      	b.n	8007070 <vTaskDelay+0x2c>
			vTaskSuspendAll();
 8007072:	f000 f879 	bl	8007168 <vTaskSuspendAll>
				list or removed from the blocked list until the scheduler
				is resumed.

				This task cannot be in an event list as it is the currently
				executing task. */
				prvAddCurrentTaskToDelayedList( xTicksToDelay, pdFALSE );
 8007076:	2100      	movs	r1, #0
 8007078:	6878      	ldr	r0, [r7, #4]
 800707a:	f000 fb03 	bl	8007684 <prvAddCurrentTaskToDelayedList>
			}
			xAlreadyYielded = xTaskResumeAll();
 800707e:	f000 f881 	bl	8007184 <xTaskResumeAll>
 8007082:	60f8      	str	r0, [r7, #12]
			mtCOVERAGE_TEST_MARKER();
		}

		/* Force a reschedule if xTaskResumeAll has not already done so, we may
		have put ourselves to sleep. */
		if( xAlreadyYielded == pdFALSE )
 8007084:	68fb      	ldr	r3, [r7, #12]
 8007086:	2b00      	cmp	r3, #0
 8007088:	d107      	bne.n	800709a <vTaskDelay+0x56>
		{
			portYIELD_WITHIN_API();
 800708a:	4b07      	ldr	r3, [pc, #28]	; (80070a8 <vTaskDelay+0x64>)
 800708c:	f04f 5280 	mov.w	r2, #268435456	; 0x10000000
 8007090:	601a      	str	r2, [r3, #0]
 8007092:	f3bf 8f4f 	dsb	sy
 8007096:	f3bf 8f6f 	isb	sy
		}
		else
		{
			mtCOVERAGE_TEST_MARKER();
		}
	}
 800709a:	bf00      	nop
 800709c:	3710      	adds	r7, #16
 800709e:	46bd      	mov	sp, r7
 80070a0:	bd80      	pop	{r7, pc}
 80070a2:	bf00      	nop
 80070a4:	20000418 	.word	0x20000418
 80070a8:	e000ed04 	.word	0xe000ed04

080070ac <vTaskStartScheduler>:

#endif /* ( ( INCLUDE_xTaskResumeFromISR == 1 ) && ( INCLUDE_vTaskSuspend == 1 ) ) */
/*-----------------------------------------------------------*/

void vTaskStartScheduler( void )
{
 80070ac:	b580      	push	{r7, lr}
 80070ae:	b08a      	sub	sp, #40	; 0x28
 80070b0:	af04      	add	r7, sp, #16
BaseType_t xReturn;

	/* Add the idle task at the lowest priority. */
	#if( configSUPPORT_STATIC_ALLOCATION == 1 )
	{
		StaticTask_t *pxIdleTaskTCBBuffer = NULL;
 80070b2:	2300      	movs	r3, #0
 80070b4:	60bb      	str	r3, [r7, #8]
		StackType_t *pxIdleTaskStackBuffer = NULL;
 80070b6:	2300      	movs	r3, #0
 80070b8:	607b      	str	r3, [r7, #4]
		uint32_t ulIdleTaskStackSize;

		/* The Idle task is created using user provided RAM - obtain the
		address of the RAM then create the idle task. */
		vApplicationGetIdleTaskMemory( &pxIdleTaskTCBBuffer, &pxIdleTaskStackBuffer, &ulIdleTaskStackSize );
 80070ba:	463a      	mov	r2, r7
 80070bc:	1d39      	adds	r1, r7, #4
 80070be:	f107 0308 	add.w	r3, r7, #8
 80070c2:	4618      	mov	r0, r3
 80070c4:	f7fb fa30 	bl	8002528 <vApplicationGetIdleTaskMemory>
		xIdleTaskHandle = xTaskCreateStatic(	prvIdleTask,
 80070c8:	6839      	ldr	r1, [r7, #0]
 80070ca:	687b      	ldr	r3, [r7, #4]
 80070cc:	68ba      	ldr	r2, [r7, #8]
 80070ce:	9202      	str	r2, [sp, #8]
 80070d0:	9301      	str	r3, [sp, #4]
 80070d2:	2300      	movs	r3, #0
 80070d4:	9300      	str	r3, [sp, #0]
 80070d6:	2300      	movs	r3, #0
 80070d8:	460a      	mov	r2, r1
 80070da:	491d      	ldr	r1, [pc, #116]	; (8007150 <vTaskStartScheduler+0xa4>)
 80070dc:	481d      	ldr	r0, [pc, #116]	; (8007154 <vTaskStartScheduler+0xa8>)
 80070de:	f7ff fe22 	bl	8006d26 <xTaskCreateStatic>
 80070e2:	4602      	mov	r2, r0
 80070e4:	4b1c      	ldr	r3, [pc, #112]	; (8007158 <vTaskStartScheduler+0xac>)
 80070e6:	601a      	str	r2, [r3, #0]
												( void * ) NULL, /*lint !e961.  The cast is not redundant for all compilers. */
												portPRIVILEGE_BIT, /* In effect ( tskIDLE_PRIORITY | portPRIVILEGE_BIT ), but tskIDLE_PRIORITY is zero. */
												pxIdleTaskStackBuffer,
												pxIdleTaskTCBBuffer ); /*lint !e961 MISRA exception, justified as it is not a redundant explicit cast to all supported compilers. */

		if( xIdleTaskHandle != NULL )
 80070e8:	4b1b      	ldr	r3, [pc, #108]	; (8007158 <vTaskStartScheduler+0xac>)
 80070ea:	681b      	ldr	r3, [r3, #0]
 80070ec:	2b00      	cmp	r3, #0
 80070ee:	d002      	beq.n	80070f6 <vTaskStartScheduler+0x4a>
		{
			xReturn = pdPASS;
 80070f0:	2301      	movs	r3, #1
 80070f2:	617b      	str	r3, [r7, #20]
 80070f4:	e001      	b.n	80070fa <vTaskStartScheduler+0x4e>
		}
		else
		{
			xReturn = pdFAIL;
 80070f6:	2300      	movs	r3, #0
 80070f8:	617b      	str	r3, [r7, #20]
			mtCOVERAGE_TEST_MARKER();
		}
	}
	#endif /* configUSE_TIMERS */

	if( xReturn == pdPASS )
 80070fa:	697b      	ldr	r3, [r7, #20]
 80070fc:	2b01      	cmp	r3, #1
 80070fe:	d115      	bne.n	800712c <vTaskStartScheduler+0x80>
 8007100:	f04f 0350 	mov.w	r3, #80	; 0x50
 8007104:	f383 8811 	msr	BASEPRI, r3
 8007108:	f3bf 8f6f 	isb	sy
 800710c:	f3bf 8f4f 	dsb	sy
 8007110:	613b      	str	r3, [r7, #16]
			structure specific to the task that will run first. */
			_impure_ptr = &( pxCurrentTCB->xNewLib_reent );
		}
		#endif /* configUSE_NEWLIB_REENTRANT */

		xNextTaskUnblockTime = portMAX_DELAY;
 8007112:	4b12      	ldr	r3, [pc, #72]	; (800715c <vTaskStartScheduler+0xb0>)
 8007114:	f04f 32ff 	mov.w	r2, #4294967295
 8007118:	601a      	str	r2, [r3, #0]
		xSchedulerRunning = pdTRUE;
 800711a:	4b11      	ldr	r3, [pc, #68]	; (8007160 <vTaskStartScheduler+0xb4>)
 800711c:	2201      	movs	r2, #1
 800711e:	601a      	str	r2, [r3, #0]
		xTickCount = ( TickType_t ) configINITIAL_TICK_COUNT;
 8007120:	4b10      	ldr	r3, [pc, #64]	; (8007164 <vTaskStartScheduler+0xb8>)
 8007122:	2200      	movs	r2, #0
 8007124:	601a      	str	r2, [r3, #0]

		traceTASK_SWITCHED_IN();

		/* Setting up the timer tick is hardware specific and thus in the
		portable interface. */
		if( xPortStartScheduler() != pdFALSE )
 8007126:	f000 fb9b 	bl	8007860 <xPortStartScheduler>
	}

	/* Prevent compiler warnings if INCLUDE_xTaskGetIdleTaskHandle is set to 0,
	meaning xIdleTaskHandle is not used anywhere else. */
	( void ) xIdleTaskHandle;
}
 800712a:	e00d      	b.n	8007148 <vTaskStartScheduler+0x9c>
		configASSERT( xReturn != errCOULD_NOT_ALLOCATE_REQUIRED_MEMORY );
 800712c:	697b      	ldr	r3, [r7, #20]
 800712e:	f1b3 3fff 	cmp.w	r3, #4294967295
 8007132:	d109      	bne.n	8007148 <vTaskStartScheduler+0x9c>
 8007134:	f04f 0350 	mov.w	r3, #80	; 0x50
 8007138:	f383 8811 	msr	BASEPRI, r3
 800713c:	f3bf 8f6f 	isb	sy
 8007140:	f3bf 8f4f 	dsb	sy
 8007144:	60fb      	str	r3, [r7, #12]
 8007146:	e7fe      	b.n	8007146 <vTaskStartScheduler+0x9a>
}
 8007148:	bf00      	nop
 800714a:	3718      	adds	r7, #24
 800714c:	46bd      	mov	sp, r7
 800714e:	bd80      	pop	{r7, pc}
 8007150:	0800a0fc 	.word	0x0800a0fc
 8007154:	080074e1 	.word	0x080074e1
 8007158:	20000414 	.word	0x20000414
 800715c:	20000410 	.word	0x20000410
 8007160:	200003fc 	.word	0x200003fc
 8007164:	200003f4 	.word	0x200003f4

08007168 <vTaskSuspendAll>:
	vPortEndScheduler();
}
/*----------------------------------------------------------*/

void vTaskSuspendAll( void )
{
 8007168:	b480      	push	{r7}
 800716a:	af00      	add	r7, sp, #0
	/* A critical section is not required as the variable is of type
	BaseType_t.  Please read Richard Barry's reply in the following link to a
	post in the FreeRTOS support forum before reporting this as a bug! -
	http://goo.gl/wu4acr */
	++uxSchedulerSuspended;
 800716c:	4b04      	ldr	r3, [pc, #16]	; (8007180 <vTaskSuspendAll+0x18>)
 800716e:	681b      	ldr	r3, [r3, #0]
 8007170:	3301      	adds	r3, #1
 8007172:	4a03      	ldr	r2, [pc, #12]	; (8007180 <vTaskSuspendAll+0x18>)
 8007174:	6013      	str	r3, [r2, #0]
	portMEMORY_BARRIER();
}
 8007176:	bf00      	nop
 8007178:	46bd      	mov	sp, r7
 800717a:	f85d 7b04 	ldr.w	r7, [sp], #4
 800717e:	4770      	bx	lr
 8007180:	20000418 	.word	0x20000418

08007184 <xTaskResumeAll>:

#endif /* configUSE_TICKLESS_IDLE */
/*----------------------------------------------------------*/

BaseType_t xTaskResumeAll( void )
{
 8007184:	b580      	push	{r7, lr}
 8007186:	b084      	sub	sp, #16
 8007188:	af00      	add	r7, sp, #0
TCB_t *pxTCB = NULL;
 800718a:	2300      	movs	r3, #0
 800718c:	60fb      	str	r3, [r7, #12]
BaseType_t xAlreadyYielded = pdFALSE;
 800718e:	2300      	movs	r3, #0
 8007190:	60bb      	str	r3, [r7, #8]

	/* If uxSchedulerSuspended is zero then this function does not match a
	previous call to vTaskSuspendAll(). */
	configASSERT( uxSchedulerSuspended );
 8007192:	4b41      	ldr	r3, [pc, #260]	; (8007298 <xTaskResumeAll+0x114>)
 8007194:	681b      	ldr	r3, [r3, #0]
 8007196:	2b00      	cmp	r3, #0
 8007198:	d109      	bne.n	80071ae <xTaskResumeAll+0x2a>
 800719a:	f04f 0350 	mov.w	r3, #80	; 0x50
 800719e:	f383 8811 	msr	BASEPRI, r3
 80071a2:	f3bf 8f6f 	isb	sy
 80071a6:	f3bf 8f4f 	dsb	sy
 80071aa:	603b      	str	r3, [r7, #0]
 80071ac:	e7fe      	b.n	80071ac <xTaskResumeAll+0x28>
	/* It is possible that an ISR caused a task to be removed from an event
	list while the scheduler was suspended.  If this was the case then the
	removed task will have been added to the xPendingReadyList.  Once the
	scheduler has been resumed it is safe to move all the pending ready
	tasks from this list into their appropriate ready list. */
	taskENTER_CRITICAL();
 80071ae:	f000 fbf5 	bl	800799c <vPortEnterCritical>
	{
		--uxSchedulerSuspended;
 80071b2:	4b39      	ldr	r3, [pc, #228]	; (8007298 <xTaskResumeAll+0x114>)
 80071b4:	681b      	ldr	r3, [r3, #0]
 80071b6:	3b01      	subs	r3, #1
 80071b8:	4a37      	ldr	r2, [pc, #220]	; (8007298 <xTaskResumeAll+0x114>)
 80071ba:	6013      	str	r3, [r2, #0]

		if( uxSchedulerSuspended == ( UBaseType_t ) pdFALSE )
 80071bc:	4b36      	ldr	r3, [pc, #216]	; (8007298 <xTaskResumeAll+0x114>)
 80071be:	681b      	ldr	r3, [r3, #0]
 80071c0:	2b00      	cmp	r3, #0
 80071c2:	d161      	bne.n	8007288 <xTaskResumeAll+0x104>
		{
			if( uxCurrentNumberOfTasks > ( UBaseType_t ) 0U )
 80071c4:	4b35      	ldr	r3, [pc, #212]	; (800729c <xTaskResumeAll+0x118>)
 80071c6:	681b      	ldr	r3, [r3, #0]
 80071c8:	2b00      	cmp	r3, #0
 80071ca:	d05d      	beq.n	8007288 <xTaskResumeAll+0x104>
			{
				/* Move any readied tasks from the pending list into the
				appropriate ready list. */
				while( listLIST_IS_EMPTY( &xPendingReadyList ) == pdFALSE )
 80071cc:	e02e      	b.n	800722c <xTaskResumeAll+0xa8>
				{
					pxTCB = listGET_OWNER_OF_HEAD_ENTRY( ( &xPendingReadyList ) ); /*lint !e9079 void * is used as this macro is used with timers and co-routines too.  Alignment is known to be fine as the type of the pointer stored and retrieved is the same. */
 80071ce:	4b34      	ldr	r3, [pc, #208]	; (80072a0 <xTaskResumeAll+0x11c>)
 80071d0:	68db      	ldr	r3, [r3, #12]
 80071d2:	68db      	ldr	r3, [r3, #12]
 80071d4:	60fb      	str	r3, [r7, #12]
					( void ) uxListRemove( &( pxTCB->xEventListItem ) );
 80071d6:	68fb      	ldr	r3, [r7, #12]
 80071d8:	3318      	adds	r3, #24
 80071da:	4618      	mov	r0, r3
 80071dc:	f7ff fd79 	bl	8006cd2 <uxListRemove>
					( void ) uxListRemove( &( pxTCB->xStateListItem ) );
 80071e0:	68fb      	ldr	r3, [r7, #12]
 80071e2:	3304      	adds	r3, #4
 80071e4:	4618      	mov	r0, r3
 80071e6:	f7ff fd74 	bl	8006cd2 <uxListRemove>
					prvAddTaskToReadyList( pxTCB );
 80071ea:	68fb      	ldr	r3, [r7, #12]
 80071ec:	6adb      	ldr	r3, [r3, #44]	; 0x2c
 80071ee:	2201      	movs	r2, #1
 80071f0:	409a      	lsls	r2, r3
 80071f2:	4b2c      	ldr	r3, [pc, #176]	; (80072a4 <xTaskResumeAll+0x120>)
 80071f4:	681b      	ldr	r3, [r3, #0]
 80071f6:	4313      	orrs	r3, r2
 80071f8:	4a2a      	ldr	r2, [pc, #168]	; (80072a4 <xTaskResumeAll+0x120>)
 80071fa:	6013      	str	r3, [r2, #0]
 80071fc:	68fb      	ldr	r3, [r7, #12]
 80071fe:	6ada      	ldr	r2, [r3, #44]	; 0x2c
 8007200:	4613      	mov	r3, r2
 8007202:	009b      	lsls	r3, r3, #2
 8007204:	4413      	add	r3, r2
 8007206:	009b      	lsls	r3, r3, #2
 8007208:	4a27      	ldr	r2, [pc, #156]	; (80072a8 <xTaskResumeAll+0x124>)
 800720a:	441a      	add	r2, r3
 800720c:	68fb      	ldr	r3, [r7, #12]
 800720e:	3304      	adds	r3, #4
 8007210:	4619      	mov	r1, r3
 8007212:	4610      	mov	r0, r2
 8007214:	f7ff fd00 	bl	8006c18 <vListInsertEnd>

					/* If the moved task has a priority higher than the current
					task then a yield must be performed. */
					if( pxTCB->uxPriority >= pxCurrentTCB->uxPriority )
 8007218:	68fb      	ldr	r3, [r7, #12]
 800721a:	6ada      	ldr	r2, [r3, #44]	; 0x2c
 800721c:	4b23      	ldr	r3, [pc, #140]	; (80072ac <xTaskResumeAll+0x128>)
 800721e:	681b      	ldr	r3, [r3, #0]
 8007220:	6adb      	ldr	r3, [r3, #44]	; 0x2c
 8007222:	429a      	cmp	r2, r3
 8007224:	d302      	bcc.n	800722c <xTaskResumeAll+0xa8>
					{
						xYieldPending = pdTRUE;
 8007226:	4b22      	ldr	r3, [pc, #136]	; (80072b0 <xTaskResumeAll+0x12c>)
 8007228:	2201      	movs	r2, #1
 800722a:	601a      	str	r2, [r3, #0]
				while( listLIST_IS_EMPTY( &xPendingReadyList ) == pdFALSE )
 800722c:	4b1c      	ldr	r3, [pc, #112]	; (80072a0 <xTaskResumeAll+0x11c>)
 800722e:	681b      	ldr	r3, [r3, #0]
 8007230:	2b00      	cmp	r3, #0
 8007232:	d1cc      	bne.n	80071ce <xTaskResumeAll+0x4a>
					{
						mtCOVERAGE_TEST_MARKER();
					}
				}

				if( pxTCB != NULL )
 8007234:	68fb      	ldr	r3, [r7, #12]
 8007236:	2b00      	cmp	r3, #0
 8007238:	d001      	beq.n	800723e <xTaskResumeAll+0xba>
					which may have prevented the next unblock time from being
					re-calculated, in which case re-calculate it now.  Mainly
					important for low power tickless implementations, where
					this can prevent an unnecessary exit from low power
					state. */
					prvResetNextTaskUnblockTime();
 800723a:	f000 fa03 	bl	8007644 <prvResetNextTaskUnblockTime>
				/* If any ticks occurred while the scheduler was suspended then
				they should be processed now.  This ensures the tick count does
				not	slip, and that any delayed tasks are resumed at the correct
				time. */
				{
					UBaseType_t uxPendedCounts = uxPendedTicks; /* Non-volatile copy. */
 800723e:	4b1d      	ldr	r3, [pc, #116]	; (80072b4 <xTaskResumeAll+0x130>)
 8007240:	681b      	ldr	r3, [r3, #0]
 8007242:	607b      	str	r3, [r7, #4]

					if( uxPendedCounts > ( UBaseType_t ) 0U )
 8007244:	687b      	ldr	r3, [r7, #4]
 8007246:	2b00      	cmp	r3, #0
 8007248:	d010      	beq.n	800726c <xTaskResumeAll+0xe8>
					{
						do
						{
							if( xTaskIncrementTick() != pdFALSE )
 800724a:	f000 f837 	bl	80072bc <xTaskIncrementTick>
 800724e:	4603      	mov	r3, r0
 8007250:	2b00      	cmp	r3, #0
 8007252:	d002      	beq.n	800725a <xTaskResumeAll+0xd6>
							{
								xYieldPending = pdTRUE;
 8007254:	4b16      	ldr	r3, [pc, #88]	; (80072b0 <xTaskResumeAll+0x12c>)
 8007256:	2201      	movs	r2, #1
 8007258:	601a      	str	r2, [r3, #0]
							}
							else
							{
								mtCOVERAGE_TEST_MARKER();
							}
							--uxPendedCounts;
 800725a:	687b      	ldr	r3, [r7, #4]
 800725c:	3b01      	subs	r3, #1
 800725e:	607b      	str	r3, [r7, #4]
						} while( uxPendedCounts > ( UBaseType_t ) 0U );
 8007260:	687b      	ldr	r3, [r7, #4]
 8007262:	2b00      	cmp	r3, #0
 8007264:	d1f1      	bne.n	800724a <xTaskResumeAll+0xc6>

						uxPendedTicks = 0;
 8007266:	4b13      	ldr	r3, [pc, #76]	; (80072b4 <xTaskResumeAll+0x130>)
 8007268:	2200      	movs	r2, #0
 800726a:	601a      	str	r2, [r3, #0]
					{
						mtCOVERAGE_TEST_MARKER();
					}
				}

				if( xYieldPending != pdFALSE )
 800726c:	4b10      	ldr	r3, [pc, #64]	; (80072b0 <xTaskResumeAll+0x12c>)
 800726e:	681b      	ldr	r3, [r3, #0]
 8007270:	2b00      	cmp	r3, #0
 8007272:	d009      	beq.n	8007288 <xTaskResumeAll+0x104>
				{
					#if( configUSE_PREEMPTION != 0 )
					{
						xAlreadyYielded = pdTRUE;
 8007274:	2301      	movs	r3, #1
 8007276:	60bb      	str	r3, [r7, #8]
					}
					#endif
					taskYIELD_IF_USING_PREEMPTION();
 8007278:	4b0f      	ldr	r3, [pc, #60]	; (80072b8 <xTaskResumeAll+0x134>)
 800727a:	f04f 5280 	mov.w	r2, #268435456	; 0x10000000
 800727e:	601a      	str	r2, [r3, #0]
 8007280:	f3bf 8f4f 	dsb	sy
 8007284:	f3bf 8f6f 	isb	sy
		else
		{
			mtCOVERAGE_TEST_MARKER();
		}
	}
	taskEXIT_CRITICAL();
 8007288:	f000 fbb6 	bl	80079f8 <vPortExitCritical>

	return xAlreadyYielded;
 800728c:	68bb      	ldr	r3, [r7, #8]
}
 800728e:	4618      	mov	r0, r3
 8007290:	3710      	adds	r7, #16
 8007292:	46bd      	mov	sp, r7
 8007294:	bd80      	pop	{r7, pc}
 8007296:	bf00      	nop
 8007298:	20000418 	.word	0x20000418
 800729c:	200003f0 	.word	0x200003f0
 80072a0:	200003b0 	.word	0x200003b0
 80072a4:	200003f8 	.word	0x200003f8
 80072a8:	200002f4 	.word	0x200002f4
 80072ac:	200002f0 	.word	0x200002f0
 80072b0:	20000404 	.word	0x20000404
 80072b4:	20000400 	.word	0x20000400
 80072b8:	e000ed04 	.word	0xe000ed04

080072bc <xTaskIncrementTick>:

#endif /* INCLUDE_xTaskAbortDelay */
/*----------------------------------------------------------*/

BaseType_t xTaskIncrementTick( void )
{
 80072bc:	b580      	push	{r7, lr}
 80072be:	b086      	sub	sp, #24
 80072c0:	af00      	add	r7, sp, #0
TCB_t * pxTCB;
TickType_t xItemValue;
BaseType_t xSwitchRequired = pdFALSE;
 80072c2:	2300      	movs	r3, #0
 80072c4:	617b      	str	r3, [r7, #20]

	/* Called by the portable layer each time a tick interrupt occurs.
	Increments the tick then checks to see if the new tick value will cause any
	tasks to be unblocked. */
	traceTASK_INCREMENT_TICK( xTickCount );
	if( uxSchedulerSuspended == ( UBaseType_t ) pdFALSE )
 80072c6:	4b4e      	ldr	r3, [pc, #312]	; (8007400 <xTaskIncrementTick+0x144>)
 80072c8:	681b      	ldr	r3, [r3, #0]
 80072ca:	2b00      	cmp	r3, #0
 80072cc:	f040 8087 	bne.w	80073de <xTaskIncrementTick+0x122>
	{
		/* Minor optimisation.  The tick count cannot change in this
		block. */
		const TickType_t xConstTickCount = xTickCount + ( TickType_t ) 1;
 80072d0:	4b4c      	ldr	r3, [pc, #304]	; (8007404 <xTaskIncrementTick+0x148>)
 80072d2:	681b      	ldr	r3, [r3, #0]
 80072d4:	3301      	adds	r3, #1
 80072d6:	613b      	str	r3, [r7, #16]

		/* Increment the RTOS tick, switching the delayed and overflowed
		delayed lists if it wraps to 0. */
		xTickCount = xConstTickCount;
 80072d8:	4a4a      	ldr	r2, [pc, #296]	; (8007404 <xTaskIncrementTick+0x148>)
 80072da:	693b      	ldr	r3, [r7, #16]
 80072dc:	6013      	str	r3, [r2, #0]

		if( xConstTickCount == ( TickType_t ) 0U ) /*lint !e774 'if' does not always evaluate to false as it is looking for an overflow. */
 80072de:	693b      	ldr	r3, [r7, #16]
 80072e0:	2b00      	cmp	r3, #0
 80072e2:	d11f      	bne.n	8007324 <xTaskIncrementTick+0x68>
		{
			taskSWITCH_DELAYED_LISTS();
 80072e4:	4b48      	ldr	r3, [pc, #288]	; (8007408 <xTaskIncrementTick+0x14c>)
 80072e6:	681b      	ldr	r3, [r3, #0]
 80072e8:	681b      	ldr	r3, [r3, #0]
 80072ea:	2b00      	cmp	r3, #0
 80072ec:	d009      	beq.n	8007302 <xTaskIncrementTick+0x46>
 80072ee:	f04f 0350 	mov.w	r3, #80	; 0x50
 80072f2:	f383 8811 	msr	BASEPRI, r3
 80072f6:	f3bf 8f6f 	isb	sy
 80072fa:	f3bf 8f4f 	dsb	sy
 80072fe:	603b      	str	r3, [r7, #0]
 8007300:	e7fe      	b.n	8007300 <xTaskIncrementTick+0x44>
 8007302:	4b41      	ldr	r3, [pc, #260]	; (8007408 <xTaskIncrementTick+0x14c>)
 8007304:	681b      	ldr	r3, [r3, #0]
 8007306:	60fb      	str	r3, [r7, #12]
 8007308:	4b40      	ldr	r3, [pc, #256]	; (800740c <xTaskIncrementTick+0x150>)
 800730a:	681b      	ldr	r3, [r3, #0]
 800730c:	4a3e      	ldr	r2, [pc, #248]	; (8007408 <xTaskIncrementTick+0x14c>)
 800730e:	6013      	str	r3, [r2, #0]
 8007310:	4a3e      	ldr	r2, [pc, #248]	; (800740c <xTaskIncrementTick+0x150>)
 8007312:	68fb      	ldr	r3, [r7, #12]
 8007314:	6013      	str	r3, [r2, #0]
 8007316:	4b3e      	ldr	r3, [pc, #248]	; (8007410 <xTaskIncrementTick+0x154>)
 8007318:	681b      	ldr	r3, [r3, #0]
 800731a:	3301      	adds	r3, #1
 800731c:	4a3c      	ldr	r2, [pc, #240]	; (8007410 <xTaskIncrementTick+0x154>)
 800731e:	6013      	str	r3, [r2, #0]
 8007320:	f000 f990 	bl	8007644 <prvResetNextTaskUnblockTime>

		/* See if this tick has made a timeout expire.  Tasks are stored in
		the	queue in the order of their wake time - meaning once one task
		has been found whose block time has not expired there is no need to
		look any further down the list. */
		if( xConstTickCount >= xNextTaskUnblockTime )
 8007324:	4b3b      	ldr	r3, [pc, #236]	; (8007414 <xTaskIncrementTick+0x158>)
 8007326:	681b      	ldr	r3, [r3, #0]
 8007328:	693a      	ldr	r2, [r7, #16]
 800732a:	429a      	cmp	r2, r3
 800732c:	d348      	bcc.n	80073c0 <xTaskIncrementTick+0x104>
		{
			for( ;; )
			{
				if( listLIST_IS_EMPTY( pxDelayedTaskList ) != pdFALSE )
 800732e:	4b36      	ldr	r3, [pc, #216]	; (8007408 <xTaskIncrementTick+0x14c>)
 8007330:	681b      	ldr	r3, [r3, #0]
 8007332:	681b      	ldr	r3, [r3, #0]
 8007334:	2b00      	cmp	r3, #0
 8007336:	d104      	bne.n	8007342 <xTaskIncrementTick+0x86>
					/* The delayed list is empty.  Set xNextTaskUnblockTime
					to the maximum possible value so it is extremely
					unlikely that the
					if( xTickCount >= xNextTaskUnblockTime ) test will pass
					next time through. */
					xNextTaskUnblockTime = portMAX_DELAY; /*lint !e961 MISRA exception as the casts are only redundant for some ports. */
 8007338:	4b36      	ldr	r3, [pc, #216]	; (8007414 <xTaskIncrementTick+0x158>)
 800733a:	f04f 32ff 	mov.w	r2, #4294967295
 800733e:	601a      	str	r2, [r3, #0]
					break;
 8007340:	e03e      	b.n	80073c0 <xTaskIncrementTick+0x104>
				{
					/* The delayed list is not empty, get the value of the
					item at the head of the delayed list.  This is the time
					at which the task at the head of the delayed list must
					be removed from the Blocked state. */
					pxTCB = listGET_OWNER_OF_HEAD_ENTRY( pxDelayedTaskList ); /*lint !e9079 void * is used as this macro is used with timers and co-routines too.  Alignment is known to be fine as the type of the pointer stored and retrieved is the same. */
 8007342:	4b31      	ldr	r3, [pc, #196]	; (8007408 <xTaskIncrementTick+0x14c>)
 8007344:	681b      	ldr	r3, [r3, #0]
 8007346:	68db      	ldr	r3, [r3, #12]
 8007348:	68db      	ldr	r3, [r3, #12]
 800734a:	60bb      	str	r3, [r7, #8]
					xItemValue = listGET_LIST_ITEM_VALUE( &( pxTCB->xStateListItem ) );
 800734c:	68bb      	ldr	r3, [r7, #8]
 800734e:	685b      	ldr	r3, [r3, #4]
 8007350:	607b      	str	r3, [r7, #4]

					if( xConstTickCount < xItemValue )
 8007352:	693a      	ldr	r2, [r7, #16]
 8007354:	687b      	ldr	r3, [r7, #4]
 8007356:	429a      	cmp	r2, r3
 8007358:	d203      	bcs.n	8007362 <xTaskIncrementTick+0xa6>
						/* It is not time to unblock this item yet, but the
						item value is the time at which the task at the head
						of the blocked list must be removed from the Blocked
						state -	so record the item value in
						xNextTaskUnblockTime. */
						xNextTaskUnblockTime = xItemValue;
 800735a:	4a2e      	ldr	r2, [pc, #184]	; (8007414 <xTaskIncrementTick+0x158>)
 800735c:	687b      	ldr	r3, [r7, #4]
 800735e:	6013      	str	r3, [r2, #0]
						break; /*lint !e9011 Code structure here is deedmed easier to understand with multiple breaks. */
 8007360:	e02e      	b.n	80073c0 <xTaskIncrementTick+0x104>
					{
						mtCOVERAGE_TEST_MARKER();
					}

					/* It is time to remove the item from the Blocked state. */
					( void ) uxListRemove( &( pxTCB->xStateListItem ) );
 8007362:	68bb      	ldr	r3, [r7, #8]
 8007364:	3304      	adds	r3, #4
 8007366:	4618      	mov	r0, r3
 8007368:	f7ff fcb3 	bl	8006cd2 <uxListRemove>

					/* Is the task waiting on an event also?  If so remove
					it from the event list. */
					if( listLIST_ITEM_CONTAINER( &( pxTCB->xEventListItem ) ) != NULL )
 800736c:	68bb      	ldr	r3, [r7, #8]
 800736e:	6a9b      	ldr	r3, [r3, #40]	; 0x28
 8007370:	2b00      	cmp	r3, #0
 8007372:	d004      	beq.n	800737e <xTaskIncrementTick+0xc2>
					{
						( void ) uxListRemove( &( pxTCB->xEventListItem ) );
 8007374:	68bb      	ldr	r3, [r7, #8]
 8007376:	3318      	adds	r3, #24
 8007378:	4618      	mov	r0, r3
 800737a:	f7ff fcaa 	bl	8006cd2 <uxListRemove>
						mtCOVERAGE_TEST_MARKER();
					}

					/* Place the unblocked task into the appropriate ready
					list. */
					prvAddTaskToReadyList( pxTCB );
 800737e:	68bb      	ldr	r3, [r7, #8]
 8007380:	6adb      	ldr	r3, [r3, #44]	; 0x2c
 8007382:	2201      	movs	r2, #1
 8007384:	409a      	lsls	r2, r3
 8007386:	4b24      	ldr	r3, [pc, #144]	; (8007418 <xTaskIncrementTick+0x15c>)
 8007388:	681b      	ldr	r3, [r3, #0]
 800738a:	4313      	orrs	r3, r2
 800738c:	4a22      	ldr	r2, [pc, #136]	; (8007418 <xTaskIncrementTick+0x15c>)
 800738e:	6013      	str	r3, [r2, #0]
 8007390:	68bb      	ldr	r3, [r7, #8]
 8007392:	6ada      	ldr	r2, [r3, #44]	; 0x2c
 8007394:	4613      	mov	r3, r2
 8007396:	009b      	lsls	r3, r3, #2
 8007398:	4413      	add	r3, r2
 800739a:	009b      	lsls	r3, r3, #2
 800739c:	4a1f      	ldr	r2, [pc, #124]	; (800741c <xTaskIncrementTick+0x160>)
 800739e:	441a      	add	r2, r3
 80073a0:	68bb      	ldr	r3, [r7, #8]
 80073a2:	3304      	adds	r3, #4
 80073a4:	4619      	mov	r1, r3
 80073a6:	4610      	mov	r0, r2
 80073a8:	f7ff fc36 	bl	8006c18 <vListInsertEnd>
					{
						/* Preemption is on, but a context switch should
						only be performed if the unblocked task has a
						priority that is equal to or higher than the
						currently executing task. */
						if( pxTCB->uxPriority >= pxCurrentTCB->uxPriority )
 80073ac:	68bb      	ldr	r3, [r7, #8]
 80073ae:	6ada      	ldr	r2, [r3, #44]	; 0x2c
 80073b0:	4b1b      	ldr	r3, [pc, #108]	; (8007420 <xTaskIncrementTick+0x164>)
 80073b2:	681b      	ldr	r3, [r3, #0]
 80073b4:	6adb      	ldr	r3, [r3, #44]	; 0x2c
 80073b6:	429a      	cmp	r2, r3
 80073b8:	d3b9      	bcc.n	800732e <xTaskIncrementTick+0x72>
						{
							xSwitchRequired = pdTRUE;
 80073ba:	2301      	movs	r3, #1
 80073bc:	617b      	str	r3, [r7, #20]
				if( listLIST_IS_EMPTY( pxDelayedTaskList ) != pdFALSE )
 80073be:	e7b6      	b.n	800732e <xTaskIncrementTick+0x72>
		/* Tasks of equal priority to the currently running task will share
		processing time (time slice) if preemption is on, and the application
		writer has not explicitly turned time slicing off. */
		#if ( ( configUSE_PREEMPTION == 1 ) && ( configUSE_TIME_SLICING == 1 ) )
		{
			if( listCURRENT_LIST_LENGTH( &( pxReadyTasksLists[ pxCurrentTCB->uxPriority ] ) ) > ( UBaseType_t ) 1 )
 80073c0:	4b17      	ldr	r3, [pc, #92]	; (8007420 <xTaskIncrementTick+0x164>)
 80073c2:	681b      	ldr	r3, [r3, #0]
 80073c4:	6ada      	ldr	r2, [r3, #44]	; 0x2c
 80073c6:	4915      	ldr	r1, [pc, #84]	; (800741c <xTaskIncrementTick+0x160>)
 80073c8:	4613      	mov	r3, r2
 80073ca:	009b      	lsls	r3, r3, #2
 80073cc:	4413      	add	r3, r2
 80073ce:	009b      	lsls	r3, r3, #2
 80073d0:	440b      	add	r3, r1
 80073d2:	681b      	ldr	r3, [r3, #0]
 80073d4:	2b01      	cmp	r3, #1
 80073d6:	d907      	bls.n	80073e8 <xTaskIncrementTick+0x12c>
			{
				xSwitchRequired = pdTRUE;
 80073d8:	2301      	movs	r3, #1
 80073da:	617b      	str	r3, [r7, #20]
 80073dc:	e004      	b.n	80073e8 <xTaskIncrementTick+0x12c>
		}
		#endif /* configUSE_TICK_HOOK */
	}
	else
	{
		++uxPendedTicks;
 80073de:	4b11      	ldr	r3, [pc, #68]	; (8007424 <xTaskIncrementTick+0x168>)
 80073e0:	681b      	ldr	r3, [r3, #0]
 80073e2:	3301      	adds	r3, #1
 80073e4:	4a0f      	ldr	r2, [pc, #60]	; (8007424 <xTaskIncrementTick+0x168>)
 80073e6:	6013      	str	r3, [r2, #0]
		#endif
	}

	#if ( configUSE_PREEMPTION == 1 )
	{
		if( xYieldPending != pdFALSE )
 80073e8:	4b0f      	ldr	r3, [pc, #60]	; (8007428 <xTaskIncrementTick+0x16c>)
 80073ea:	681b      	ldr	r3, [r3, #0]
 80073ec:	2b00      	cmp	r3, #0
 80073ee:	d001      	beq.n	80073f4 <xTaskIncrementTick+0x138>
		{
			xSwitchRequired = pdTRUE;
 80073f0:	2301      	movs	r3, #1
 80073f2:	617b      	str	r3, [r7, #20]
			mtCOVERAGE_TEST_MARKER();
		}
	}
	#endif /* configUSE_PREEMPTION */

	return xSwitchRequired;
 80073f4:	697b      	ldr	r3, [r7, #20]
}
 80073f6:	4618      	mov	r0, r3
 80073f8:	3718      	adds	r7, #24
 80073fa:	46bd      	mov	sp, r7
 80073fc:	bd80      	pop	{r7, pc}
 80073fe:	bf00      	nop
 8007400:	20000418 	.word	0x20000418
 8007404:	200003f4 	.word	0x200003f4
 8007408:	200003a8 	.word	0x200003a8
 800740c:	200003ac 	.word	0x200003ac
 8007410:	20000408 	.word	0x20000408
 8007414:	20000410 	.word	0x20000410
 8007418:	200003f8 	.word	0x200003f8
 800741c:	200002f4 	.word	0x200002f4
 8007420:	200002f0 	.word	0x200002f0
 8007424:	20000400 	.word	0x20000400
 8007428:	20000404 	.word	0x20000404

0800742c <vTaskSwitchContext>:

#endif /* configUSE_APPLICATION_TASK_TAG */
/*-----------------------------------------------------------*/

void vTaskSwitchContext( void )
{
 800742c:	b480      	push	{r7}
 800742e:	b087      	sub	sp, #28
 8007430:	af00      	add	r7, sp, #0
	if( uxSchedulerSuspended != ( UBaseType_t ) pdFALSE )
 8007432:	4b26      	ldr	r3, [pc, #152]	; (80074cc <vTaskSwitchContext+0xa0>)
 8007434:	681b      	ldr	r3, [r3, #0]
 8007436:	2b00      	cmp	r3, #0
 8007438:	d003      	beq.n	8007442 <vTaskSwitchContext+0x16>
	{
		/* The scheduler is currently suspended - do not allow a context
		switch. */
		xYieldPending = pdTRUE;
 800743a:	4b25      	ldr	r3, [pc, #148]	; (80074d0 <vTaskSwitchContext+0xa4>)
 800743c:	2201      	movs	r2, #1
 800743e:	601a      	str	r2, [r3, #0]
			structure specific to this task. */
			_impure_ptr = &( pxCurrentTCB->xNewLib_reent );
		}
		#endif /* configUSE_NEWLIB_REENTRANT */
	}
}
 8007440:	e03e      	b.n	80074c0 <vTaskSwitchContext+0x94>
		xYieldPending = pdFALSE;
 8007442:	4b23      	ldr	r3, [pc, #140]	; (80074d0 <vTaskSwitchContext+0xa4>)
 8007444:	2200      	movs	r2, #0
 8007446:	601a      	str	r2, [r3, #0]
		taskSELECT_HIGHEST_PRIORITY_TASK(); /*lint !e9079 void * is used as this macro is used with timers and co-routines too.  Alignment is known to be fine as the type of the pointer stored and retrieved is the same. */
 8007448:	4b22      	ldr	r3, [pc, #136]	; (80074d4 <vTaskSwitchContext+0xa8>)
 800744a:	681b      	ldr	r3, [r3, #0]
 800744c:	60fb      	str	r3, [r7, #12]
		__asm volatile ( "clz %0, %1" : "=r" ( ucReturn ) : "r" ( ulBitmap ) : "memory" );
 800744e:	68fb      	ldr	r3, [r7, #12]
 8007450:	fab3 f383 	clz	r3, r3
 8007454:	72fb      	strb	r3, [r7, #11]
		return ucReturn;
 8007456:	7afb      	ldrb	r3, [r7, #11]
 8007458:	f1c3 031f 	rsb	r3, r3, #31
 800745c:	617b      	str	r3, [r7, #20]
 800745e:	491e      	ldr	r1, [pc, #120]	; (80074d8 <vTaskSwitchContext+0xac>)
 8007460:	697a      	ldr	r2, [r7, #20]
 8007462:	4613      	mov	r3, r2
 8007464:	009b      	lsls	r3, r3, #2
 8007466:	4413      	add	r3, r2
 8007468:	009b      	lsls	r3, r3, #2
 800746a:	440b      	add	r3, r1
 800746c:	681b      	ldr	r3, [r3, #0]
 800746e:	2b00      	cmp	r3, #0
 8007470:	d109      	bne.n	8007486 <vTaskSwitchContext+0x5a>
	__asm volatile
 8007472:	f04f 0350 	mov.w	r3, #80	; 0x50
 8007476:	f383 8811 	msr	BASEPRI, r3
 800747a:	f3bf 8f6f 	isb	sy
 800747e:	f3bf 8f4f 	dsb	sy
 8007482:	607b      	str	r3, [r7, #4]
 8007484:	e7fe      	b.n	8007484 <vTaskSwitchContext+0x58>
 8007486:	697a      	ldr	r2, [r7, #20]
 8007488:	4613      	mov	r3, r2
 800748a:	009b      	lsls	r3, r3, #2
 800748c:	4413      	add	r3, r2
 800748e:	009b      	lsls	r3, r3, #2
 8007490:	4a11      	ldr	r2, [pc, #68]	; (80074d8 <vTaskSwitchContext+0xac>)
 8007492:	4413      	add	r3, r2
 8007494:	613b      	str	r3, [r7, #16]
 8007496:	693b      	ldr	r3, [r7, #16]
 8007498:	685b      	ldr	r3, [r3, #4]
 800749a:	685a      	ldr	r2, [r3, #4]
 800749c:	693b      	ldr	r3, [r7, #16]
 800749e:	605a      	str	r2, [r3, #4]
 80074a0:	693b      	ldr	r3, [r7, #16]
 80074a2:	685a      	ldr	r2, [r3, #4]
 80074a4:	693b      	ldr	r3, [r7, #16]
 80074a6:	3308      	adds	r3, #8
 80074a8:	429a      	cmp	r2, r3
 80074aa:	d104      	bne.n	80074b6 <vTaskSwitchContext+0x8a>
 80074ac:	693b      	ldr	r3, [r7, #16]
 80074ae:	685b      	ldr	r3, [r3, #4]
 80074b0:	685a      	ldr	r2, [r3, #4]
 80074b2:	693b      	ldr	r3, [r7, #16]
 80074b4:	605a      	str	r2, [r3, #4]
 80074b6:	693b      	ldr	r3, [r7, #16]
 80074b8:	685b      	ldr	r3, [r3, #4]
 80074ba:	68db      	ldr	r3, [r3, #12]
 80074bc:	4a07      	ldr	r2, [pc, #28]	; (80074dc <vTaskSwitchContext+0xb0>)
 80074be:	6013      	str	r3, [r2, #0]
}
 80074c0:	bf00      	nop
 80074c2:	371c      	adds	r7, #28
 80074c4:	46bd      	mov	sp, r7
 80074c6:	f85d 7b04 	ldr.w	r7, [sp], #4
 80074ca:	4770      	bx	lr
 80074cc:	20000418 	.word	0x20000418
 80074d0:	20000404 	.word	0x20000404
 80074d4:	200003f8 	.word	0x200003f8
 80074d8:	200002f4 	.word	0x200002f4
 80074dc:	200002f0 	.word	0x200002f0

080074e0 <prvIdleTask>:
 *
 * void prvIdleTask( void *pvParameters );
 *
 */
static portTASK_FUNCTION( prvIdleTask, pvParameters )
{
 80074e0:	b580      	push	{r7, lr}
 80074e2:	b082      	sub	sp, #8
 80074e4:	af00      	add	r7, sp, #0
 80074e6:	6078      	str	r0, [r7, #4]

	for( ;; )
	{
		/* See if any tasks have deleted themselves - if so then the idle task
		is responsible for freeing the deleted task's TCB and stack. */
		prvCheckTasksWaitingTermination();
 80074e8:	f000 f852 	bl	8007590 <prvCheckTasksWaitingTermination>

			A critical region is not required here as we are just reading from
			the list, and an occasional incorrect value will not matter.  If
			the ready list at the idle priority contains more than one task
			then a task other than the idle task is ready to execute. */
			if( listCURRENT_LIST_LENGTH( &( pxReadyTasksLists[ tskIDLE_PRIORITY ] ) ) > ( UBaseType_t ) 1 )
 80074ec:	4b06      	ldr	r3, [pc, #24]	; (8007508 <prvIdleTask+0x28>)
 80074ee:	681b      	ldr	r3, [r3, #0]
 80074f0:	2b01      	cmp	r3, #1
 80074f2:	d9f9      	bls.n	80074e8 <prvIdleTask+0x8>
			{
				taskYIELD();
 80074f4:	4b05      	ldr	r3, [pc, #20]	; (800750c <prvIdleTask+0x2c>)
 80074f6:	f04f 5280 	mov.w	r2, #268435456	; 0x10000000
 80074fa:	601a      	str	r2, [r3, #0]
 80074fc:	f3bf 8f4f 	dsb	sy
 8007500:	f3bf 8f6f 	isb	sy
		prvCheckTasksWaitingTermination();
 8007504:	e7f0      	b.n	80074e8 <prvIdleTask+0x8>
 8007506:	bf00      	nop
 8007508:	200002f4 	.word	0x200002f4
 800750c:	e000ed04 	.word	0xe000ed04

08007510 <prvInitialiseTaskLists>:

#endif /* portUSING_MPU_WRAPPERS */
/*-----------------------------------------------------------*/

static void prvInitialiseTaskLists( void )
{
 8007510:	b580      	push	{r7, lr}
 8007512:	b082      	sub	sp, #8
 8007514:	af00      	add	r7, sp, #0
UBaseType_t uxPriority;

	for( uxPriority = ( UBaseType_t ) 0U; uxPriority < ( UBaseType_t ) configMAX_PRIORITIES; uxPriority++ )
 8007516:	2300      	movs	r3, #0
 8007518:	607b      	str	r3, [r7, #4]
 800751a:	e00c      	b.n	8007536 <prvInitialiseTaskLists+0x26>
	{
		vListInitialise( &( pxReadyTasksLists[ uxPriority ] ) );
 800751c:	687a      	ldr	r2, [r7, #4]
 800751e:	4613      	mov	r3, r2
 8007520:	009b      	lsls	r3, r3, #2
 8007522:	4413      	add	r3, r2
 8007524:	009b      	lsls	r3, r3, #2
 8007526:	4a12      	ldr	r2, [pc, #72]	; (8007570 <prvInitialiseTaskLists+0x60>)
 8007528:	4413      	add	r3, r2
 800752a:	4618      	mov	r0, r3
 800752c:	f7ff fb47 	bl	8006bbe <vListInitialise>
	for( uxPriority = ( UBaseType_t ) 0U; uxPriority < ( UBaseType_t ) configMAX_PRIORITIES; uxPriority++ )
 8007530:	687b      	ldr	r3, [r7, #4]
 8007532:	3301      	adds	r3, #1
 8007534:	607b      	str	r3, [r7, #4]
 8007536:	687b      	ldr	r3, [r7, #4]
 8007538:	2b06      	cmp	r3, #6
 800753a:	d9ef      	bls.n	800751c <prvInitialiseTaskLists+0xc>
	}

	vListInitialise( &xDelayedTaskList1 );
 800753c:	480d      	ldr	r0, [pc, #52]	; (8007574 <prvInitialiseTaskLists+0x64>)
 800753e:	f7ff fb3e 	bl	8006bbe <vListInitialise>
	vListInitialise( &xDelayedTaskList2 );
 8007542:	480d      	ldr	r0, [pc, #52]	; (8007578 <prvInitialiseTaskLists+0x68>)
 8007544:	f7ff fb3b 	bl	8006bbe <vListInitialise>
	vListInitialise( &xPendingReadyList );
 8007548:	480c      	ldr	r0, [pc, #48]	; (800757c <prvInitialiseTaskLists+0x6c>)
 800754a:	f7ff fb38 	bl	8006bbe <vListInitialise>

	#if ( INCLUDE_vTaskDelete == 1 )
	{
		vListInitialise( &xTasksWaitingTermination );
 800754e:	480c      	ldr	r0, [pc, #48]	; (8007580 <prvInitialiseTaskLists+0x70>)
 8007550:	f7ff fb35 	bl	8006bbe <vListInitialise>
	}
	#endif /* INCLUDE_vTaskDelete */

	#if ( INCLUDE_vTaskSuspend == 1 )
	{
		vListInitialise( &xSuspendedTaskList );
 8007554:	480b      	ldr	r0, [pc, #44]	; (8007584 <prvInitialiseTaskLists+0x74>)
 8007556:	f7ff fb32 	bl	8006bbe <vListInitialise>
	}
	#endif /* INCLUDE_vTaskSuspend */

	/* Start with pxDelayedTaskList using list1 and the pxOverflowDelayedTaskList
	using list2. */
	pxDelayedTaskList = &xDelayedTaskList1;
 800755a:	4b0b      	ldr	r3, [pc, #44]	; (8007588 <prvInitialiseTaskLists+0x78>)
 800755c:	4a05      	ldr	r2, [pc, #20]	; (8007574 <prvInitialiseTaskLists+0x64>)
 800755e:	601a      	str	r2, [r3, #0]
	pxOverflowDelayedTaskList = &xDelayedTaskList2;
 8007560:	4b0a      	ldr	r3, [pc, #40]	; (800758c <prvInitialiseTaskLists+0x7c>)
 8007562:	4a05      	ldr	r2, [pc, #20]	; (8007578 <prvInitialiseTaskLists+0x68>)
 8007564:	601a      	str	r2, [r3, #0]
}
 8007566:	bf00      	nop
 8007568:	3708      	adds	r7, #8
 800756a:	46bd      	mov	sp, r7
 800756c:	bd80      	pop	{r7, pc}
 800756e:	bf00      	nop
 8007570:	200002f4 	.word	0x200002f4
 8007574:	20000380 	.word	0x20000380
 8007578:	20000394 	.word	0x20000394
 800757c:	200003b0 	.word	0x200003b0
 8007580:	200003c4 	.word	0x200003c4
 8007584:	200003dc 	.word	0x200003dc
 8007588:	200003a8 	.word	0x200003a8
 800758c:	200003ac 	.word	0x200003ac

08007590 <prvCheckTasksWaitingTermination>:
/*-----------------------------------------------------------*/

static void prvCheckTasksWaitingTermination( void )
{
 8007590:	b580      	push	{r7, lr}
 8007592:	b082      	sub	sp, #8
 8007594:	af00      	add	r7, sp, #0
	{
		TCB_t *pxTCB;

		/* uxDeletedTasksWaitingCleanUp is used to prevent taskENTER_CRITICAL()
		being called too often in the idle task. */
		while( uxDeletedTasksWaitingCleanUp > ( UBaseType_t ) 0U )
 8007596:	e019      	b.n	80075cc <prvCheckTasksWaitingTermination+0x3c>
		{
			taskENTER_CRITICAL();
 8007598:	f000 fa00 	bl	800799c <vPortEnterCritical>
			{
				pxTCB = listGET_OWNER_OF_HEAD_ENTRY( ( &xTasksWaitingTermination ) ); /*lint !e9079 void * is used as this macro is used with timers and co-routines too.  Alignment is known to be fine as the type of the pointer stored and retrieved is the same. */
 800759c:	4b0f      	ldr	r3, [pc, #60]	; (80075dc <prvCheckTasksWaitingTermination+0x4c>)
 800759e:	68db      	ldr	r3, [r3, #12]
 80075a0:	68db      	ldr	r3, [r3, #12]
 80075a2:	607b      	str	r3, [r7, #4]
				( void ) uxListRemove( &( pxTCB->xStateListItem ) );
 80075a4:	687b      	ldr	r3, [r7, #4]
 80075a6:	3304      	adds	r3, #4
 80075a8:	4618      	mov	r0, r3
 80075aa:	f7ff fb92 	bl	8006cd2 <uxListRemove>
				--uxCurrentNumberOfTasks;
 80075ae:	4b0c      	ldr	r3, [pc, #48]	; (80075e0 <prvCheckTasksWaitingTermination+0x50>)
 80075b0:	681b      	ldr	r3, [r3, #0]
 80075b2:	3b01      	subs	r3, #1
 80075b4:	4a0a      	ldr	r2, [pc, #40]	; (80075e0 <prvCheckTasksWaitingTermination+0x50>)
 80075b6:	6013      	str	r3, [r2, #0]
				--uxDeletedTasksWaitingCleanUp;
 80075b8:	4b0a      	ldr	r3, [pc, #40]	; (80075e4 <prvCheckTasksWaitingTermination+0x54>)
 80075ba:	681b      	ldr	r3, [r3, #0]
 80075bc:	3b01      	subs	r3, #1
 80075be:	4a09      	ldr	r2, [pc, #36]	; (80075e4 <prvCheckTasksWaitingTermination+0x54>)
 80075c0:	6013      	str	r3, [r2, #0]
			}
			taskEXIT_CRITICAL();
 80075c2:	f000 fa19 	bl	80079f8 <vPortExitCritical>

			prvDeleteTCB( pxTCB );
 80075c6:	6878      	ldr	r0, [r7, #4]
 80075c8:	f000 f80e 	bl	80075e8 <prvDeleteTCB>
		while( uxDeletedTasksWaitingCleanUp > ( UBaseType_t ) 0U )
 80075cc:	4b05      	ldr	r3, [pc, #20]	; (80075e4 <prvCheckTasksWaitingTermination+0x54>)
 80075ce:	681b      	ldr	r3, [r3, #0]
 80075d0:	2b00      	cmp	r3, #0
 80075d2:	d1e1      	bne.n	8007598 <prvCheckTasksWaitingTermination+0x8>
		}
	}
	#endif /* INCLUDE_vTaskDelete */
}
 80075d4:	bf00      	nop
 80075d6:	3708      	adds	r7, #8
 80075d8:	46bd      	mov	sp, r7
 80075da:	bd80      	pop	{r7, pc}
 80075dc:	200003c4 	.word	0x200003c4
 80075e0:	200003f0 	.word	0x200003f0
 80075e4:	200003d8 	.word	0x200003d8

080075e8 <prvDeleteTCB>:
/*-----------------------------------------------------------*/

#if ( INCLUDE_vTaskDelete == 1 )

	static void prvDeleteTCB( TCB_t *pxTCB )
	{
 80075e8:	b580      	push	{r7, lr}
 80075ea:	b084      	sub	sp, #16
 80075ec:	af00      	add	r7, sp, #0
 80075ee:	6078      	str	r0, [r7, #4]
		#elif( tskSTATIC_AND_DYNAMIC_ALLOCATION_POSSIBLE != 0 ) /*lint !e731 !e9029 Macro has been consolidated for readability reasons. */
		{
			/* The task could have been allocated statically or dynamically, so
			check what was statically allocated before trying to free the
			memory. */
			if( pxTCB->ucStaticallyAllocated == tskDYNAMICALLY_ALLOCATED_STACK_AND_TCB )
 80075f0:	687b      	ldr	r3, [r7, #4]
 80075f2:	f893 3051 	ldrb.w	r3, [r3, #81]	; 0x51
 80075f6:	2b00      	cmp	r3, #0
 80075f8:	d108      	bne.n	800760c <prvDeleteTCB+0x24>
			{
				/* Both the stack and TCB were allocated dynamically, so both
				must be freed. */
				vPortFree( pxTCB->pxStack );
 80075fa:	687b      	ldr	r3, [r7, #4]
 80075fc:	6b1b      	ldr	r3, [r3, #48]	; 0x30
 80075fe:	4618      	mov	r0, r3
 8007600:	f000 fb6a 	bl	8007cd8 <vPortFree>
				vPortFree( pxTCB );
 8007604:	6878      	ldr	r0, [r7, #4]
 8007606:	f000 fb67 	bl	8007cd8 <vPortFree>
				configASSERT( pxTCB->ucStaticallyAllocated == tskSTATICALLY_ALLOCATED_STACK_AND_TCB	);
				mtCOVERAGE_TEST_MARKER();
			}
		}
		#endif /* configSUPPORT_DYNAMIC_ALLOCATION */
	}
 800760a:	e017      	b.n	800763c <prvDeleteTCB+0x54>
			else if( pxTCB->ucStaticallyAllocated == tskSTATICALLY_ALLOCATED_STACK_ONLY )
 800760c:	687b      	ldr	r3, [r7, #4]
 800760e:	f893 3051 	ldrb.w	r3, [r3, #81]	; 0x51
 8007612:	2b01      	cmp	r3, #1
 8007614:	d103      	bne.n	800761e <prvDeleteTCB+0x36>
				vPortFree( pxTCB );
 8007616:	6878      	ldr	r0, [r7, #4]
 8007618:	f000 fb5e 	bl	8007cd8 <vPortFree>
	}
 800761c:	e00e      	b.n	800763c <prvDeleteTCB+0x54>
				configASSERT( pxTCB->ucStaticallyAllocated == tskSTATICALLY_ALLOCATED_STACK_AND_TCB	);
 800761e:	687b      	ldr	r3, [r7, #4]
 8007620:	f893 3051 	ldrb.w	r3, [r3, #81]	; 0x51
 8007624:	2b02      	cmp	r3, #2
 8007626:	d009      	beq.n	800763c <prvDeleteTCB+0x54>
 8007628:	f04f 0350 	mov.w	r3, #80	; 0x50
 800762c:	f383 8811 	msr	BASEPRI, r3
 8007630:	f3bf 8f6f 	isb	sy
 8007634:	f3bf 8f4f 	dsb	sy
 8007638:	60fb      	str	r3, [r7, #12]
 800763a:	e7fe      	b.n	800763a <prvDeleteTCB+0x52>
	}
 800763c:	bf00      	nop
 800763e:	3710      	adds	r7, #16
 8007640:	46bd      	mov	sp, r7
 8007642:	bd80      	pop	{r7, pc}

08007644 <prvResetNextTaskUnblockTime>:

#endif /* INCLUDE_vTaskDelete */
/*-----------------------------------------------------------*/

static void prvResetNextTaskUnblockTime( void )
{
 8007644:	b480      	push	{r7}
 8007646:	b083      	sub	sp, #12
 8007648:	af00      	add	r7, sp, #0
TCB_t *pxTCB;

	if( listLIST_IS_EMPTY( pxDelayedTaskList ) != pdFALSE )
 800764a:	4b0c      	ldr	r3, [pc, #48]	; (800767c <prvResetNextTaskUnblockTime+0x38>)
 800764c:	681b      	ldr	r3, [r3, #0]
 800764e:	681b      	ldr	r3, [r3, #0]
 8007650:	2b00      	cmp	r3, #0
 8007652:	d104      	bne.n	800765e <prvResetNextTaskUnblockTime+0x1a>
	{
		/* The new current delayed list is empty.  Set xNextTaskUnblockTime to
		the maximum possible value so it is	extremely unlikely that the
		if( xTickCount >= xNextTaskUnblockTime ) test will pass until
		there is an item in the delayed list. */
		xNextTaskUnblockTime = portMAX_DELAY;
 8007654:	4b0a      	ldr	r3, [pc, #40]	; (8007680 <prvResetNextTaskUnblockTime+0x3c>)
 8007656:	f04f 32ff 	mov.w	r2, #4294967295
 800765a:	601a      	str	r2, [r3, #0]
		which the task at the head of the delayed list should be removed
		from the Blocked state. */
		( pxTCB ) = listGET_OWNER_OF_HEAD_ENTRY( pxDelayedTaskList ); /*lint !e9079 void * is used as this macro is used with timers and co-routines too.  Alignment is known to be fine as the type of the pointer stored and retrieved is the same. */
		xNextTaskUnblockTime = listGET_LIST_ITEM_VALUE( &( ( pxTCB )->xStateListItem ) );
	}
}
 800765c:	e008      	b.n	8007670 <prvResetNextTaskUnblockTime+0x2c>
		( pxTCB ) = listGET_OWNER_OF_HEAD_ENTRY( pxDelayedTaskList ); /*lint !e9079 void * is used as this macro is used with timers and co-routines too.  Alignment is known to be fine as the type of the pointer stored and retrieved is the same. */
 800765e:	4b07      	ldr	r3, [pc, #28]	; (800767c <prvResetNextTaskUnblockTime+0x38>)
 8007660:	681b      	ldr	r3, [r3, #0]
 8007662:	68db      	ldr	r3, [r3, #12]
 8007664:	68db      	ldr	r3, [r3, #12]
 8007666:	607b      	str	r3, [r7, #4]
		xNextTaskUnblockTime = listGET_LIST_ITEM_VALUE( &( ( pxTCB )->xStateListItem ) );
 8007668:	687b      	ldr	r3, [r7, #4]
 800766a:	685b      	ldr	r3, [r3, #4]
 800766c:	4a04      	ldr	r2, [pc, #16]	; (8007680 <prvResetNextTaskUnblockTime+0x3c>)
 800766e:	6013      	str	r3, [r2, #0]
}
 8007670:	bf00      	nop
 8007672:	370c      	adds	r7, #12
 8007674:	46bd      	mov	sp, r7
 8007676:	f85d 7b04 	ldr.w	r7, [sp], #4
 800767a:	4770      	bx	lr
 800767c:	200003a8 	.word	0x200003a8
 8007680:	20000410 	.word	0x20000410

08007684 <prvAddCurrentTaskToDelayedList>:
	}
#endif
/*-----------------------------------------------------------*/

static void prvAddCurrentTaskToDelayedList( TickType_t xTicksToWait, const BaseType_t xCanBlockIndefinitely )
{
 8007684:	b580      	push	{r7, lr}
 8007686:	b084      	sub	sp, #16
 8007688:	af00      	add	r7, sp, #0
 800768a:	6078      	str	r0, [r7, #4]
 800768c:	6039      	str	r1, [r7, #0]
TickType_t xTimeToWake;
const TickType_t xConstTickCount = xTickCount;
 800768e:	4b29      	ldr	r3, [pc, #164]	; (8007734 <prvAddCurrentTaskToDelayedList+0xb0>)
 8007690:	681b      	ldr	r3, [r3, #0]
 8007692:	60fb      	str	r3, [r7, #12]
	}
	#endif

	/* Remove the task from the ready list before adding it to the blocked list
	as the same list item is used for both lists. */
	if( uxListRemove( &( pxCurrentTCB->xStateListItem ) ) == ( UBaseType_t ) 0 )
 8007694:	4b28      	ldr	r3, [pc, #160]	; (8007738 <prvAddCurrentTaskToDelayedList+0xb4>)
 8007696:	681b      	ldr	r3, [r3, #0]
 8007698:	3304      	adds	r3, #4
 800769a:	4618      	mov	r0, r3
 800769c:	f7ff fb19 	bl	8006cd2 <uxListRemove>
 80076a0:	4603      	mov	r3, r0
 80076a2:	2b00      	cmp	r3, #0
 80076a4:	d10b      	bne.n	80076be <prvAddCurrentTaskToDelayedList+0x3a>
	{
		/* The current task must be in a ready list, so there is no need to
		check, and the port reset macro can be called directly. */
		portRESET_READY_PRIORITY( pxCurrentTCB->uxPriority, uxTopReadyPriority ); /*lint !e931 pxCurrentTCB cannot change as it is the calling task.  pxCurrentTCB->uxPriority and uxTopReadyPriority cannot change as called with scheduler suspended or in a critical section. */
 80076a6:	4b24      	ldr	r3, [pc, #144]	; (8007738 <prvAddCurrentTaskToDelayedList+0xb4>)
 80076a8:	681b      	ldr	r3, [r3, #0]
 80076aa:	6adb      	ldr	r3, [r3, #44]	; 0x2c
 80076ac:	2201      	movs	r2, #1
 80076ae:	fa02 f303 	lsl.w	r3, r2, r3
 80076b2:	43da      	mvns	r2, r3
 80076b4:	4b21      	ldr	r3, [pc, #132]	; (800773c <prvAddCurrentTaskToDelayedList+0xb8>)
 80076b6:	681b      	ldr	r3, [r3, #0]
 80076b8:	4013      	ands	r3, r2
 80076ba:	4a20      	ldr	r2, [pc, #128]	; (800773c <prvAddCurrentTaskToDelayedList+0xb8>)
 80076bc:	6013      	str	r3, [r2, #0]
		mtCOVERAGE_TEST_MARKER();
	}

	#if ( INCLUDE_vTaskSuspend == 1 )
	{
		if( ( xTicksToWait == portMAX_DELAY ) && ( xCanBlockIndefinitely != pdFALSE ) )
 80076be:	687b      	ldr	r3, [r7, #4]
 80076c0:	f1b3 3fff 	cmp.w	r3, #4294967295
 80076c4:	d10a      	bne.n	80076dc <prvAddCurrentTaskToDelayedList+0x58>
 80076c6:	683b      	ldr	r3, [r7, #0]
 80076c8:	2b00      	cmp	r3, #0
 80076ca:	d007      	beq.n	80076dc <prvAddCurrentTaskToDelayedList+0x58>
		{
			/* Add the task to the suspended task list instead of a delayed task
			list to ensure it is not woken by a timing event.  It will block
			indefinitely. */
			vListInsertEnd( &xSuspendedTaskList, &( pxCurrentTCB->xStateListItem ) );
 80076cc:	4b1a      	ldr	r3, [pc, #104]	; (8007738 <prvAddCurrentTaskToDelayedList+0xb4>)
 80076ce:	681b      	ldr	r3, [r3, #0]
 80076d0:	3304      	adds	r3, #4
 80076d2:	4619      	mov	r1, r3
 80076d4:	481a      	ldr	r0, [pc, #104]	; (8007740 <prvAddCurrentTaskToDelayedList+0xbc>)
 80076d6:	f7ff fa9f 	bl	8006c18 <vListInsertEnd>

		/* Avoid compiler warning when INCLUDE_vTaskSuspend is not 1. */
		( void ) xCanBlockIndefinitely;
	}
	#endif /* INCLUDE_vTaskSuspend */
}
 80076da:	e026      	b.n	800772a <prvAddCurrentTaskToDelayedList+0xa6>
			xTimeToWake = xConstTickCount + xTicksToWait;
 80076dc:	68fa      	ldr	r2, [r7, #12]
 80076de:	687b      	ldr	r3, [r7, #4]
 80076e0:	4413      	add	r3, r2
 80076e2:	60bb      	str	r3, [r7, #8]
			listSET_LIST_ITEM_VALUE( &( pxCurrentTCB->xStateListItem ), xTimeToWake );
 80076e4:	4b14      	ldr	r3, [pc, #80]	; (8007738 <prvAddCurrentTaskToDelayedList+0xb4>)
 80076e6:	681b      	ldr	r3, [r3, #0]
 80076e8:	68ba      	ldr	r2, [r7, #8]
 80076ea:	605a      	str	r2, [r3, #4]
			if( xTimeToWake < xConstTickCount )
 80076ec:	68ba      	ldr	r2, [r7, #8]
 80076ee:	68fb      	ldr	r3, [r7, #12]
 80076f0:	429a      	cmp	r2, r3
 80076f2:	d209      	bcs.n	8007708 <prvAddCurrentTaskToDelayedList+0x84>
				vListInsert( pxOverflowDelayedTaskList, &( pxCurrentTCB->xStateListItem ) );
 80076f4:	4b13      	ldr	r3, [pc, #76]	; (8007744 <prvAddCurrentTaskToDelayedList+0xc0>)
 80076f6:	681a      	ldr	r2, [r3, #0]
 80076f8:	4b0f      	ldr	r3, [pc, #60]	; (8007738 <prvAddCurrentTaskToDelayedList+0xb4>)
 80076fa:	681b      	ldr	r3, [r3, #0]
 80076fc:	3304      	adds	r3, #4
 80076fe:	4619      	mov	r1, r3
 8007700:	4610      	mov	r0, r2
 8007702:	f7ff faad 	bl	8006c60 <vListInsert>
}
 8007706:	e010      	b.n	800772a <prvAddCurrentTaskToDelayedList+0xa6>
				vListInsert( pxDelayedTaskList, &( pxCurrentTCB->xStateListItem ) );
 8007708:	4b0f      	ldr	r3, [pc, #60]	; (8007748 <prvAddCurrentTaskToDelayedList+0xc4>)
 800770a:	681a      	ldr	r2, [r3, #0]
 800770c:	4b0a      	ldr	r3, [pc, #40]	; (8007738 <prvAddCurrentTaskToDelayedList+0xb4>)
 800770e:	681b      	ldr	r3, [r3, #0]
 8007710:	3304      	adds	r3, #4
 8007712:	4619      	mov	r1, r3
 8007714:	4610      	mov	r0, r2
 8007716:	f7ff faa3 	bl	8006c60 <vListInsert>
				if( xTimeToWake < xNextTaskUnblockTime )
 800771a:	4b0c      	ldr	r3, [pc, #48]	; (800774c <prvAddCurrentTaskToDelayedList+0xc8>)
 800771c:	681b      	ldr	r3, [r3, #0]
 800771e:	68ba      	ldr	r2, [r7, #8]
 8007720:	429a      	cmp	r2, r3
 8007722:	d202      	bcs.n	800772a <prvAddCurrentTaskToDelayedList+0xa6>
					xNextTaskUnblockTime = xTimeToWake;
 8007724:	4a09      	ldr	r2, [pc, #36]	; (800774c <prvAddCurrentTaskToDelayedList+0xc8>)
 8007726:	68bb      	ldr	r3, [r7, #8]
 8007728:	6013      	str	r3, [r2, #0]
}
 800772a:	bf00      	nop
 800772c:	3710      	adds	r7, #16
 800772e:	46bd      	mov	sp, r7
 8007730:	bd80      	pop	{r7, pc}
 8007732:	bf00      	nop
 8007734:	200003f4 	.word	0x200003f4
 8007738:	200002f0 	.word	0x200002f0
 800773c:	200003f8 	.word	0x200003f8
 8007740:	200003dc 	.word	0x200003dc
 8007744:	200003ac 	.word	0x200003ac
 8007748:	200003a8 	.word	0x200003a8
 800774c:	20000410 	.word	0x20000410

08007750 <pxPortInitialiseStack>:

/*
 * See header file for description.
 */
StackType_t *pxPortInitialiseStack( StackType_t *pxTopOfStack, TaskFunction_t pxCode, void *pvParameters )
{
 8007750:	b480      	push	{r7}
 8007752:	b085      	sub	sp, #20
 8007754:	af00      	add	r7, sp, #0
 8007756:	60f8      	str	r0, [r7, #12]
 8007758:	60b9      	str	r1, [r7, #8]
 800775a:	607a      	str	r2, [r7, #4]
	/* Simulate the stack frame as it would be created by a context switch
	interrupt. */

	/* Offset added to account for the way the MCU uses the stack on entry/exit
	of interrupts, and to ensure alignment. */
	pxTopOfStack--;
 800775c:	68fb      	ldr	r3, [r7, #12]
 800775e:	3b04      	subs	r3, #4
 8007760:	60fb      	str	r3, [r7, #12]

	*pxTopOfStack = portINITIAL_XPSR;	/* xPSR */
 8007762:	68fb      	ldr	r3, [r7, #12]
 8007764:	f04f 7280 	mov.w	r2, #16777216	; 0x1000000
 8007768:	601a      	str	r2, [r3, #0]
	pxTopOfStack--;
 800776a:	68fb      	ldr	r3, [r7, #12]
 800776c:	3b04      	subs	r3, #4
 800776e:	60fb      	str	r3, [r7, #12]
	*pxTopOfStack = ( ( StackType_t ) pxCode ) & portSTART_ADDRESS_MASK;	/* PC */
 8007770:	68bb      	ldr	r3, [r7, #8]
 8007772:	f023 0201 	bic.w	r2, r3, #1
 8007776:	68fb      	ldr	r3, [r7, #12]
 8007778:	601a      	str	r2, [r3, #0]
	pxTopOfStack--;
 800777a:	68fb      	ldr	r3, [r7, #12]
 800777c:	3b04      	subs	r3, #4
 800777e:	60fb      	str	r3, [r7, #12]
	*pxTopOfStack = ( StackType_t ) portTASK_RETURN_ADDRESS;	/* LR */
 8007780:	4a0c      	ldr	r2, [pc, #48]	; (80077b4 <pxPortInitialiseStack+0x64>)
 8007782:	68fb      	ldr	r3, [r7, #12]
 8007784:	601a      	str	r2, [r3, #0]

	/* Save code space by skipping register initialisation. */
	pxTopOfStack -= 5;	/* R12, R3, R2 and R1. */
 8007786:	68fb      	ldr	r3, [r7, #12]
 8007788:	3b14      	subs	r3, #20
 800778a:	60fb      	str	r3, [r7, #12]
	*pxTopOfStack = ( StackType_t ) pvParameters;	/* R0 */
 800778c:	687a      	ldr	r2, [r7, #4]
 800778e:	68fb      	ldr	r3, [r7, #12]
 8007790:	601a      	str	r2, [r3, #0]

	/* A save method is being used that requires each task to maintain its
	own exec return value. */
	pxTopOfStack--;
 8007792:	68fb      	ldr	r3, [r7, #12]
 8007794:	3b04      	subs	r3, #4
 8007796:	60fb      	str	r3, [r7, #12]
	*pxTopOfStack = portINITIAL_EXC_RETURN;
 8007798:	68fb      	ldr	r3, [r7, #12]
 800779a:	f06f 0202 	mvn.w	r2, #2
 800779e:	601a      	str	r2, [r3, #0]

	pxTopOfStack -= 8;	/* R11, R10, R9, R8, R7, R6, R5 and R4. */
 80077a0:	68fb      	ldr	r3, [r7, #12]
 80077a2:	3b20      	subs	r3, #32
 80077a4:	60fb      	str	r3, [r7, #12]

	return pxTopOfStack;
 80077a6:	68fb      	ldr	r3, [r7, #12]
}
 80077a8:	4618      	mov	r0, r3
 80077aa:	3714      	adds	r7, #20
 80077ac:	46bd      	mov	sp, r7
 80077ae:	f85d 7b04 	ldr.w	r7, [sp], #4
 80077b2:	4770      	bx	lr
 80077b4:	080077b9 	.word	0x080077b9

080077b8 <prvTaskExitError>:
/*-----------------------------------------------------------*/

static void prvTaskExitError( void )
{
 80077b8:	b480      	push	{r7}
 80077ba:	b085      	sub	sp, #20
 80077bc:	af00      	add	r7, sp, #0
volatile uint32_t ulDummy = 0;
 80077be:	2300      	movs	r3, #0
 80077c0:	607b      	str	r3, [r7, #4]
	its caller as there is nothing to return to.  If a task wants to exit it
	should instead call vTaskDelete( NULL ).

	Artificially force an assert() to be triggered if configASSERT() is
	defined, then stop here so application writers can catch the error. */
	configASSERT( uxCriticalNesting == ~0UL );
 80077c2:	4b11      	ldr	r3, [pc, #68]	; (8007808 <prvTaskExitError+0x50>)
 80077c4:	681b      	ldr	r3, [r3, #0]
 80077c6:	f1b3 3fff 	cmp.w	r3, #4294967295
 80077ca:	d009      	beq.n	80077e0 <prvTaskExitError+0x28>
 80077cc:	f04f 0350 	mov.w	r3, #80	; 0x50
 80077d0:	f383 8811 	msr	BASEPRI, r3
 80077d4:	f3bf 8f6f 	isb	sy
 80077d8:	f3bf 8f4f 	dsb	sy
 80077dc:	60fb      	str	r3, [r7, #12]
 80077de:	e7fe      	b.n	80077de <prvTaskExitError+0x26>
 80077e0:	f04f 0350 	mov.w	r3, #80	; 0x50
 80077e4:	f383 8811 	msr	BASEPRI, r3
 80077e8:	f3bf 8f6f 	isb	sy
 80077ec:	f3bf 8f4f 	dsb	sy
 80077f0:	60bb      	str	r3, [r7, #8]
	portDISABLE_INTERRUPTS();
	while( ulDummy == 0 )
 80077f2:	bf00      	nop
 80077f4:	687b      	ldr	r3, [r7, #4]
 80077f6:	2b00      	cmp	r3, #0
 80077f8:	d0fc      	beq.n	80077f4 <prvTaskExitError+0x3c>
		about code appearing after this function is called - making ulDummy
		volatile makes the compiler think the function could return and
		therefore not output an 'unreachable code' warning for code that appears
		after it. */
	}
}
 80077fa:	bf00      	nop
 80077fc:	3714      	adds	r7, #20
 80077fe:	46bd      	mov	sp, r7
 8007800:	f85d 7b04 	ldr.w	r7, [sp], #4
 8007804:	4770      	bx	lr
 8007806:	bf00      	nop
 8007808:	2000000c 	.word	0x2000000c
 800780c:	00000000 	.word	0x00000000

08007810 <SVC_Handler>:
/*-----------------------------------------------------------*/

void vPortSVCHandler( void )
{
	__asm volatile (
 8007810:	4b07      	ldr	r3, [pc, #28]	; (8007830 <pxCurrentTCBConst2>)
 8007812:	6819      	ldr	r1, [r3, #0]
 8007814:	6808      	ldr	r0, [r1, #0]
 8007816:	e8b0 4ff0 	ldmia.w	r0!, {r4, r5, r6, r7, r8, r9, sl, fp, lr}
 800781a:	f380 8809 	msr	PSP, r0
 800781e:	f3bf 8f6f 	isb	sy
 8007822:	f04f 0000 	mov.w	r0, #0
 8007826:	f380 8811 	msr	BASEPRI, r0
 800782a:	4770      	bx	lr
 800782c:	f3af 8000 	nop.w

08007830 <pxCurrentTCBConst2>:
 8007830:	200002f0 	.word	0x200002f0
					"	bx r14							\n"
					"									\n"
					"	.align 4						\n"
					"pxCurrentTCBConst2: .word pxCurrentTCB				\n"
				);
}
 8007834:	bf00      	nop
 8007836:	bf00      	nop

08007838 <prvPortStartFirstTask>:
{
	/* Start the first task.  This also clears the bit that indicates the FPU is
	in use in case the FPU was used before the scheduler was started - which
	would otherwise result in the unnecessary leaving of space in the SVC stack
	for lazy saving of FPU registers. */
	__asm volatile(
 8007838:	4808      	ldr	r0, [pc, #32]	; (800785c <prvPortStartFirstTask+0x24>)
 800783a:	6800      	ldr	r0, [r0, #0]
 800783c:	6800      	ldr	r0, [r0, #0]
 800783e:	f380 8808 	msr	MSP, r0
 8007842:	f04f 0000 	mov.w	r0, #0
 8007846:	f380 8814 	msr	CONTROL, r0
 800784a:	b662      	cpsie	i
 800784c:	b661      	cpsie	f
 800784e:	f3bf 8f4f 	dsb	sy
 8007852:	f3bf 8f6f 	isb	sy
 8007856:	df00      	svc	0
 8007858:	bf00      	nop
					" dsb					\n"
					" isb					\n"
					" svc 0					\n" /* System call to start first task. */
					" nop					\n"
				);
}
 800785a:	bf00      	nop
 800785c:	e000ed08 	.word	0xe000ed08

08007860 <xPortStartScheduler>:

/*
 * See header file for description.
 */
BaseType_t xPortStartScheduler( void )
{
 8007860:	b580      	push	{r7, lr}
 8007862:	b086      	sub	sp, #24
 8007864:	af00      	add	r7, sp, #0
	configASSERT( configMAX_SYSCALL_INTERRUPT_PRIORITY );

	/* This port can be used on all revisions of the Cortex-M7 core other than
	the r0p1 parts.  r0p1 parts should use the port from the
	/source/portable/GCC/ARM_CM7/r0p1 directory. */
	configASSERT( portCPUID != portCORTEX_M7_r0p1_ID );
 8007866:	4b44      	ldr	r3, [pc, #272]	; (8007978 <xPortStartScheduler+0x118>)
 8007868:	681b      	ldr	r3, [r3, #0]
 800786a:	4a44      	ldr	r2, [pc, #272]	; (800797c <xPortStartScheduler+0x11c>)
 800786c:	4293      	cmp	r3, r2
 800786e:	d109      	bne.n	8007884 <xPortStartScheduler+0x24>
 8007870:	f04f 0350 	mov.w	r3, #80	; 0x50
 8007874:	f383 8811 	msr	BASEPRI, r3
 8007878:	f3bf 8f6f 	isb	sy
 800787c:	f3bf 8f4f 	dsb	sy
 8007880:	613b      	str	r3, [r7, #16]
 8007882:	e7fe      	b.n	8007882 <xPortStartScheduler+0x22>
	configASSERT( portCPUID != portCORTEX_M7_r0p0_ID );
 8007884:	4b3c      	ldr	r3, [pc, #240]	; (8007978 <xPortStartScheduler+0x118>)
 8007886:	681b      	ldr	r3, [r3, #0]
 8007888:	4a3d      	ldr	r2, [pc, #244]	; (8007980 <xPortStartScheduler+0x120>)
 800788a:	4293      	cmp	r3, r2
 800788c:	d109      	bne.n	80078a2 <xPortStartScheduler+0x42>
 800788e:	f04f 0350 	mov.w	r3, #80	; 0x50
 8007892:	f383 8811 	msr	BASEPRI, r3
 8007896:	f3bf 8f6f 	isb	sy
 800789a:	f3bf 8f4f 	dsb	sy
 800789e:	60fb      	str	r3, [r7, #12]
 80078a0:	e7fe      	b.n	80078a0 <xPortStartScheduler+0x40>

	#if( configASSERT_DEFINED == 1 )
	{
		volatile uint32_t ulOriginalPriority;
		volatile uint8_t * const pucFirstUserPriorityRegister = ( volatile uint8_t * const ) ( portNVIC_IP_REGISTERS_OFFSET_16 + portFIRST_USER_INTERRUPT_NUMBER );
 80078a2:	4b38      	ldr	r3, [pc, #224]	; (8007984 <xPortStartScheduler+0x124>)
 80078a4:	617b      	str	r3, [r7, #20]
		functions can be called.  ISR safe functions are those that end in
		"FromISR".  FreeRTOS maintains separate thread and ISR API functions to
		ensure interrupt entry is as fast and simple as possible.

		Save the interrupt priority value that is about to be clobbered. */
		ulOriginalPriority = *pucFirstUserPriorityRegister;
 80078a6:	697b      	ldr	r3, [r7, #20]
 80078a8:	781b      	ldrb	r3, [r3, #0]
 80078aa:	b2db      	uxtb	r3, r3
 80078ac:	607b      	str	r3, [r7, #4]

		/* Determine the number of priority bits available.  First write to all
		possible bits. */
		*pucFirstUserPriorityRegister = portMAX_8_BIT_VALUE;
 80078ae:	697b      	ldr	r3, [r7, #20]
 80078b0:	22ff      	movs	r2, #255	; 0xff
 80078b2:	701a      	strb	r2, [r3, #0]

		/* Read the value back to see how many bits stuck. */
		ucMaxPriorityValue = *pucFirstUserPriorityRegister;
 80078b4:	697b      	ldr	r3, [r7, #20]
 80078b6:	781b      	ldrb	r3, [r3, #0]
 80078b8:	b2db      	uxtb	r3, r3
 80078ba:	70fb      	strb	r3, [r7, #3]

		/* Use the same mask on the maximum system call priority. */
		ucMaxSysCallPriority = configMAX_SYSCALL_INTERRUPT_PRIORITY & ucMaxPriorityValue;
 80078bc:	78fb      	ldrb	r3, [r7, #3]
 80078be:	b2db      	uxtb	r3, r3
 80078c0:	f003 0350 	and.w	r3, r3, #80	; 0x50
 80078c4:	b2da      	uxtb	r2, r3
 80078c6:	4b30      	ldr	r3, [pc, #192]	; (8007988 <xPortStartScheduler+0x128>)
 80078c8:	701a      	strb	r2, [r3, #0]

		/* Calculate the maximum acceptable priority group value for the number
		of bits read back. */
		ulMaxPRIGROUPValue = portMAX_PRIGROUP_BITS;
 80078ca:	4b30      	ldr	r3, [pc, #192]	; (800798c <xPortStartScheduler+0x12c>)
 80078cc:	2207      	movs	r2, #7
 80078ce:	601a      	str	r2, [r3, #0]
		while( ( ucMaxPriorityValue & portTOP_BIT_OF_BYTE ) == portTOP_BIT_OF_BYTE )
 80078d0:	e009      	b.n	80078e6 <xPortStartScheduler+0x86>
		{
			ulMaxPRIGROUPValue--;
 80078d2:	4b2e      	ldr	r3, [pc, #184]	; (800798c <xPortStartScheduler+0x12c>)
 80078d4:	681b      	ldr	r3, [r3, #0]
 80078d6:	3b01      	subs	r3, #1
 80078d8:	4a2c      	ldr	r2, [pc, #176]	; (800798c <xPortStartScheduler+0x12c>)
 80078da:	6013      	str	r3, [r2, #0]
			ucMaxPriorityValue <<= ( uint8_t ) 0x01;
 80078dc:	78fb      	ldrb	r3, [r7, #3]
 80078de:	b2db      	uxtb	r3, r3
 80078e0:	005b      	lsls	r3, r3, #1
 80078e2:	b2db      	uxtb	r3, r3
 80078e4:	70fb      	strb	r3, [r7, #3]
		while( ( ucMaxPriorityValue & portTOP_BIT_OF_BYTE ) == portTOP_BIT_OF_BYTE )
 80078e6:	78fb      	ldrb	r3, [r7, #3]
 80078e8:	b2db      	uxtb	r3, r3
 80078ea:	f003 0380 	and.w	r3, r3, #128	; 0x80
 80078ee:	2b80      	cmp	r3, #128	; 0x80
 80078f0:	d0ef      	beq.n	80078d2 <xPortStartScheduler+0x72>
		#ifdef configPRIO_BITS
		{
			/* Check the FreeRTOS configuration that defines the number of
			priority bits matches the number of priority bits actually queried
			from the hardware. */
			configASSERT( ( portMAX_PRIGROUP_BITS - ulMaxPRIGROUPValue ) == configPRIO_BITS );
 80078f2:	4b26      	ldr	r3, [pc, #152]	; (800798c <xPortStartScheduler+0x12c>)
 80078f4:	681b      	ldr	r3, [r3, #0]
 80078f6:	f1c3 0307 	rsb	r3, r3, #7
 80078fa:	2b04      	cmp	r3, #4
 80078fc:	d009      	beq.n	8007912 <xPortStartScheduler+0xb2>
 80078fe:	f04f 0350 	mov.w	r3, #80	; 0x50
 8007902:	f383 8811 	msr	BASEPRI, r3
 8007906:	f3bf 8f6f 	isb	sy
 800790a:	f3bf 8f4f 	dsb	sy
 800790e:	60bb      	str	r3, [r7, #8]
 8007910:	e7fe      	b.n	8007910 <xPortStartScheduler+0xb0>
		}
		#endif

		/* Shift the priority group value back to its position within the AIRCR
		register. */
		ulMaxPRIGROUPValue <<= portPRIGROUP_SHIFT;
 8007912:	4b1e      	ldr	r3, [pc, #120]	; (800798c <xPortStartScheduler+0x12c>)
 8007914:	681b      	ldr	r3, [r3, #0]
 8007916:	021b      	lsls	r3, r3, #8
 8007918:	4a1c      	ldr	r2, [pc, #112]	; (800798c <xPortStartScheduler+0x12c>)
 800791a:	6013      	str	r3, [r2, #0]
		ulMaxPRIGROUPValue &= portPRIORITY_GROUP_MASK;
 800791c:	4b1b      	ldr	r3, [pc, #108]	; (800798c <xPortStartScheduler+0x12c>)
 800791e:	681b      	ldr	r3, [r3, #0]
 8007920:	f403 63e0 	and.w	r3, r3, #1792	; 0x700
 8007924:	4a19      	ldr	r2, [pc, #100]	; (800798c <xPortStartScheduler+0x12c>)
 8007926:	6013      	str	r3, [r2, #0]

		/* Restore the clobbered interrupt priority register to its original
		value. */
		*pucFirstUserPriorityRegister = ulOriginalPriority;
 8007928:	687b      	ldr	r3, [r7, #4]
 800792a:	b2da      	uxtb	r2, r3
 800792c:	697b      	ldr	r3, [r7, #20]
 800792e:	701a      	strb	r2, [r3, #0]
	}
	#endif /* conifgASSERT_DEFINED */

	/* Make PendSV and SysTick the lowest priority interrupts. */
	portNVIC_SYSPRI2_REG |= portNVIC_PENDSV_PRI;
 8007930:	4b17      	ldr	r3, [pc, #92]	; (8007990 <xPortStartScheduler+0x130>)
 8007932:	681b      	ldr	r3, [r3, #0]
 8007934:	4a16      	ldr	r2, [pc, #88]	; (8007990 <xPortStartScheduler+0x130>)
 8007936:	f443 0370 	orr.w	r3, r3, #15728640	; 0xf00000
 800793a:	6013      	str	r3, [r2, #0]
	portNVIC_SYSPRI2_REG |= portNVIC_SYSTICK_PRI;
 800793c:	4b14      	ldr	r3, [pc, #80]	; (8007990 <xPortStartScheduler+0x130>)
 800793e:	681b      	ldr	r3, [r3, #0]
 8007940:	4a13      	ldr	r2, [pc, #76]	; (8007990 <xPortStartScheduler+0x130>)
 8007942:	f043 4370 	orr.w	r3, r3, #4026531840	; 0xf0000000
 8007946:	6013      	str	r3, [r2, #0]

	/* Start the timer that generates the tick ISR.  Interrupts are disabled
	here already. */
	vPortSetupTimerInterrupt();
 8007948:	f000 f8d6 	bl	8007af8 <vPortSetupTimerInterrupt>

	/* Initialise the critical nesting count ready for the first task. */
	uxCriticalNesting = 0;
 800794c:	4b11      	ldr	r3, [pc, #68]	; (8007994 <xPortStartScheduler+0x134>)
 800794e:	2200      	movs	r2, #0
 8007950:	601a      	str	r2, [r3, #0]

	/* Ensure the VFP is enabled - it should be anyway. */
	vPortEnableVFP();
 8007952:	f000 f8f5 	bl	8007b40 <vPortEnableVFP>

	/* Lazy save always. */
	*( portFPCCR ) |= portASPEN_AND_LSPEN_BITS;
 8007956:	4b10      	ldr	r3, [pc, #64]	; (8007998 <xPortStartScheduler+0x138>)
 8007958:	681b      	ldr	r3, [r3, #0]
 800795a:	4a0f      	ldr	r2, [pc, #60]	; (8007998 <xPortStartScheduler+0x138>)
 800795c:	f043 4340 	orr.w	r3, r3, #3221225472	; 0xc0000000
 8007960:	6013      	str	r3, [r2, #0]

	/* Start the first task. */
	prvPortStartFirstTask();
 8007962:	f7ff ff69 	bl	8007838 <prvPortStartFirstTask>
	exit error function to prevent compiler warnings about a static function
	not being called in the case that the application writer overrides this
	functionality by defining configTASK_RETURN_ADDRESS.  Call
	vTaskSwitchContext() so link time optimisation does not remove the
	symbol. */
	vTaskSwitchContext();
 8007966:	f7ff fd61 	bl	800742c <vTaskSwitchContext>
	prvTaskExitError();
 800796a:	f7ff ff25 	bl	80077b8 <prvTaskExitError>

	/* Should not get here! */
	return 0;
 800796e:	2300      	movs	r3, #0
}
 8007970:	4618      	mov	r0, r3
 8007972:	3718      	adds	r7, #24
 8007974:	46bd      	mov	sp, r7
 8007976:	bd80      	pop	{r7, pc}
 8007978:	e000ed00 	.word	0xe000ed00
 800797c:	410fc271 	.word	0x410fc271
 8007980:	410fc270 	.word	0x410fc270
 8007984:	e000e400 	.word	0xe000e400
 8007988:	2000041c 	.word	0x2000041c
 800798c:	20000420 	.word	0x20000420
 8007990:	e000ed20 	.word	0xe000ed20
 8007994:	2000000c 	.word	0x2000000c
 8007998:	e000ef34 	.word	0xe000ef34

0800799c <vPortEnterCritical>:
	configASSERT( uxCriticalNesting == 1000UL );
}
/*-----------------------------------------------------------*/

void vPortEnterCritical( void )
{
 800799c:	b480      	push	{r7}
 800799e:	b083      	sub	sp, #12
 80079a0:	af00      	add	r7, sp, #0
 80079a2:	f04f 0350 	mov.w	r3, #80	; 0x50
 80079a6:	f383 8811 	msr	BASEPRI, r3
 80079aa:	f3bf 8f6f 	isb	sy
 80079ae:	f3bf 8f4f 	dsb	sy
 80079b2:	607b      	str	r3, [r7, #4]
	portDISABLE_INTERRUPTS();
	uxCriticalNesting++;
 80079b4:	4b0e      	ldr	r3, [pc, #56]	; (80079f0 <vPortEnterCritical+0x54>)
 80079b6:	681b      	ldr	r3, [r3, #0]
 80079b8:	3301      	adds	r3, #1
 80079ba:	4a0d      	ldr	r2, [pc, #52]	; (80079f0 <vPortEnterCritical+0x54>)
 80079bc:	6013      	str	r3, [r2, #0]
	/* This is not the interrupt safe version of the enter critical function so
	assert() if it is being called from an interrupt context.  Only API
	functions that end in "FromISR" can be used in an interrupt.  Only assert if
	the critical nesting count is 1 to protect against recursive calls if the
	assert function also uses a critical section. */
	if( uxCriticalNesting == 1 )
 80079be:	4b0c      	ldr	r3, [pc, #48]	; (80079f0 <vPortEnterCritical+0x54>)
 80079c0:	681b      	ldr	r3, [r3, #0]
 80079c2:	2b01      	cmp	r3, #1
 80079c4:	d10e      	bne.n	80079e4 <vPortEnterCritical+0x48>
	{
		configASSERT( ( portNVIC_INT_CTRL_REG & portVECTACTIVE_MASK ) == 0 );
 80079c6:	4b0b      	ldr	r3, [pc, #44]	; (80079f4 <vPortEnterCritical+0x58>)
 80079c8:	681b      	ldr	r3, [r3, #0]
 80079ca:	b2db      	uxtb	r3, r3
 80079cc:	2b00      	cmp	r3, #0
 80079ce:	d009      	beq.n	80079e4 <vPortEnterCritical+0x48>
 80079d0:	f04f 0350 	mov.w	r3, #80	; 0x50
 80079d4:	f383 8811 	msr	BASEPRI, r3
 80079d8:	f3bf 8f6f 	isb	sy
 80079dc:	f3bf 8f4f 	dsb	sy
 80079e0:	603b      	str	r3, [r7, #0]
 80079e2:	e7fe      	b.n	80079e2 <vPortEnterCritical+0x46>
	}
}
 80079e4:	bf00      	nop
 80079e6:	370c      	adds	r7, #12
 80079e8:	46bd      	mov	sp, r7
 80079ea:	f85d 7b04 	ldr.w	r7, [sp], #4
 80079ee:	4770      	bx	lr
 80079f0:	2000000c 	.word	0x2000000c
 80079f4:	e000ed04 	.word	0xe000ed04

080079f8 <vPortExitCritical>:
/*-----------------------------------------------------------*/

void vPortExitCritical( void )
{
 80079f8:	b480      	push	{r7}
 80079fa:	b083      	sub	sp, #12
 80079fc:	af00      	add	r7, sp, #0
	configASSERT( uxCriticalNesting );
 80079fe:	4b11      	ldr	r3, [pc, #68]	; (8007a44 <vPortExitCritical+0x4c>)
 8007a00:	681b      	ldr	r3, [r3, #0]
 8007a02:	2b00      	cmp	r3, #0
 8007a04:	d109      	bne.n	8007a1a <vPortExitCritical+0x22>
 8007a06:	f04f 0350 	mov.w	r3, #80	; 0x50
 8007a0a:	f383 8811 	msr	BASEPRI, r3
 8007a0e:	f3bf 8f6f 	isb	sy
 8007a12:	f3bf 8f4f 	dsb	sy
 8007a16:	607b      	str	r3, [r7, #4]
 8007a18:	e7fe      	b.n	8007a18 <vPortExitCritical+0x20>
	uxCriticalNesting--;
 8007a1a:	4b0a      	ldr	r3, [pc, #40]	; (8007a44 <vPortExitCritical+0x4c>)
 8007a1c:	681b      	ldr	r3, [r3, #0]
 8007a1e:	3b01      	subs	r3, #1
 8007a20:	4a08      	ldr	r2, [pc, #32]	; (8007a44 <vPortExitCritical+0x4c>)
 8007a22:	6013      	str	r3, [r2, #0]
	if( uxCriticalNesting == 0 )
 8007a24:	4b07      	ldr	r3, [pc, #28]	; (8007a44 <vPortExitCritical+0x4c>)
 8007a26:	681b      	ldr	r3, [r3, #0]
 8007a28:	2b00      	cmp	r3, #0
 8007a2a:	d104      	bne.n	8007a36 <vPortExitCritical+0x3e>
 8007a2c:	2300      	movs	r3, #0
 8007a2e:	603b      	str	r3, [r7, #0]
}
/*-----------------------------------------------------------*/

portFORCE_INLINE static void vPortSetBASEPRI( uint32_t ulNewMaskValue )
{
	__asm volatile
 8007a30:	683b      	ldr	r3, [r7, #0]
 8007a32:	f383 8811 	msr	BASEPRI, r3
	{
		portENABLE_INTERRUPTS();
	}
}
 8007a36:	bf00      	nop
 8007a38:	370c      	adds	r7, #12
 8007a3a:	46bd      	mov	sp, r7
 8007a3c:	f85d 7b04 	ldr.w	r7, [sp], #4
 8007a40:	4770      	bx	lr
 8007a42:	bf00      	nop
 8007a44:	2000000c 	.word	0x2000000c
	...

08007a50 <PendSV_Handler>:

void xPortPendSVHandler( void )
{
	/* This is a naked function. */

	__asm volatile
 8007a50:	f3ef 8009 	mrs	r0, PSP
 8007a54:	f3bf 8f6f 	isb	sy
 8007a58:	4b15      	ldr	r3, [pc, #84]	; (8007ab0 <pxCurrentTCBConst>)
 8007a5a:	681a      	ldr	r2, [r3, #0]
 8007a5c:	f01e 0f10 	tst.w	lr, #16
 8007a60:	bf08      	it	eq
 8007a62:	ed20 8a10 	vstmdbeq	r0!, {s16-s31}
 8007a66:	e920 4ff0 	stmdb	r0!, {r4, r5, r6, r7, r8, r9, sl, fp, lr}
 8007a6a:	6010      	str	r0, [r2, #0]
 8007a6c:	e92d 0009 	stmdb	sp!, {r0, r3}
 8007a70:	f04f 0050 	mov.w	r0, #80	; 0x50
 8007a74:	f380 8811 	msr	BASEPRI, r0
 8007a78:	f3bf 8f4f 	dsb	sy
 8007a7c:	f3bf 8f6f 	isb	sy
 8007a80:	f7ff fcd4 	bl	800742c <vTaskSwitchContext>
 8007a84:	f04f 0000 	mov.w	r0, #0
 8007a88:	f380 8811 	msr	BASEPRI, r0
 8007a8c:	bc09      	pop	{r0, r3}
 8007a8e:	6819      	ldr	r1, [r3, #0]
 8007a90:	6808      	ldr	r0, [r1, #0]
 8007a92:	e8b0 4ff0 	ldmia.w	r0!, {r4, r5, r6, r7, r8, r9, sl, fp, lr}
 8007a96:	f01e 0f10 	tst.w	lr, #16
 8007a9a:	bf08      	it	eq
 8007a9c:	ecb0 8a10 	vldmiaeq	r0!, {s16-s31}
 8007aa0:	f380 8809 	msr	PSP, r0
 8007aa4:	f3bf 8f6f 	isb	sy
 8007aa8:	4770      	bx	lr
 8007aaa:	bf00      	nop
 8007aac:	f3af 8000 	nop.w

08007ab0 <pxCurrentTCBConst>:
 8007ab0:	200002f0 	.word	0x200002f0
	"										\n"
	"	.align 4							\n"
	"pxCurrentTCBConst: .word pxCurrentTCB	\n"
	::"i"(configMAX_SYSCALL_INTERRUPT_PRIORITY)
	);
}
 8007ab4:	bf00      	nop
 8007ab6:	bf00      	nop

08007ab8 <SysTick_Handler>:
/*-----------------------------------------------------------*/

void xPortSysTickHandler( void )
{
 8007ab8:	b580      	push	{r7, lr}
 8007aba:	b082      	sub	sp, #8
 8007abc:	af00      	add	r7, sp, #0
	__asm volatile
 8007abe:	f04f 0350 	mov.w	r3, #80	; 0x50
 8007ac2:	f383 8811 	msr	BASEPRI, r3
 8007ac6:	f3bf 8f6f 	isb	sy
 8007aca:	f3bf 8f4f 	dsb	sy
 8007ace:	607b      	str	r3, [r7, #4]
	save and then restore the interrupt mask value as its value is already
	known. */
	portDISABLE_INTERRUPTS();
	{
		/* Increment the RTOS tick. */
		if( xTaskIncrementTick() != pdFALSE )
 8007ad0:	f7ff fbf4 	bl	80072bc <xTaskIncrementTick>
 8007ad4:	4603      	mov	r3, r0
 8007ad6:	2b00      	cmp	r3, #0
 8007ad8:	d003      	beq.n	8007ae2 <SysTick_Handler+0x2a>
		{
			/* A context switch is required.  Context switching is performed in
			the PendSV interrupt.  Pend the PendSV interrupt. */
			portNVIC_INT_CTRL_REG = portNVIC_PENDSVSET_BIT;
 8007ada:	4b06      	ldr	r3, [pc, #24]	; (8007af4 <SysTick_Handler+0x3c>)
 8007adc:	f04f 5280 	mov.w	r2, #268435456	; 0x10000000
 8007ae0:	601a      	str	r2, [r3, #0]
 8007ae2:	2300      	movs	r3, #0
 8007ae4:	603b      	str	r3, [r7, #0]
	__asm volatile
 8007ae6:	683b      	ldr	r3, [r7, #0]
 8007ae8:	f383 8811 	msr	BASEPRI, r3
		}
	}
	portENABLE_INTERRUPTS();
}
 8007aec:	bf00      	nop
 8007aee:	3708      	adds	r7, #8
 8007af0:	46bd      	mov	sp, r7
 8007af2:	bd80      	pop	{r7, pc}
 8007af4:	e000ed04 	.word	0xe000ed04

08007af8 <vPortSetupTimerInterrupt>:
/*
 * Setup the systick timer to generate the tick interrupts at the required
 * frequency.
 */
__attribute__(( weak )) void vPortSetupTimerInterrupt( void )
{
 8007af8:	b480      	push	{r7}
 8007afa:	af00      	add	r7, sp, #0
		ulStoppedTimerCompensation = portMISSED_COUNTS_FACTOR / ( configCPU_CLOCK_HZ / configSYSTICK_CLOCK_HZ );
	}
	#endif /* configUSE_TICKLESS_IDLE */

	/* Stop and clear the SysTick. */
	portNVIC_SYSTICK_CTRL_REG = 0UL;
 8007afc:	4b0b      	ldr	r3, [pc, #44]	; (8007b2c <vPortSetupTimerInterrupt+0x34>)
 8007afe:	2200      	movs	r2, #0
 8007b00:	601a      	str	r2, [r3, #0]
	portNVIC_SYSTICK_CURRENT_VALUE_REG = 0UL;
 8007b02:	4b0b      	ldr	r3, [pc, #44]	; (8007b30 <vPortSetupTimerInterrupt+0x38>)
 8007b04:	2200      	movs	r2, #0
 8007b06:	601a      	str	r2, [r3, #0]

	/* Configure SysTick to interrupt at the requested rate. */
	portNVIC_SYSTICK_LOAD_REG = ( configSYSTICK_CLOCK_HZ / configTICK_RATE_HZ ) - 1UL;
 8007b08:	4b0a      	ldr	r3, [pc, #40]	; (8007b34 <vPortSetupTimerInterrupt+0x3c>)
 8007b0a:	681b      	ldr	r3, [r3, #0]
 8007b0c:	4a0a      	ldr	r2, [pc, #40]	; (8007b38 <vPortSetupTimerInterrupt+0x40>)
 8007b0e:	fba2 2303 	umull	r2, r3, r2, r3
 8007b12:	099b      	lsrs	r3, r3, #6
 8007b14:	4a09      	ldr	r2, [pc, #36]	; (8007b3c <vPortSetupTimerInterrupt+0x44>)
 8007b16:	3b01      	subs	r3, #1
 8007b18:	6013      	str	r3, [r2, #0]
	portNVIC_SYSTICK_CTRL_REG = ( portNVIC_SYSTICK_CLK_BIT | portNVIC_SYSTICK_INT_BIT | portNVIC_SYSTICK_ENABLE_BIT );
 8007b1a:	4b04      	ldr	r3, [pc, #16]	; (8007b2c <vPortSetupTimerInterrupt+0x34>)
 8007b1c:	2207      	movs	r2, #7
 8007b1e:	601a      	str	r2, [r3, #0]
}
 8007b20:	bf00      	nop
 8007b22:	46bd      	mov	sp, r7
 8007b24:	f85d 7b04 	ldr.w	r7, [sp], #4
 8007b28:	4770      	bx	lr
 8007b2a:	bf00      	nop
 8007b2c:	e000e010 	.word	0xe000e010
 8007b30:	e000e018 	.word	0xe000e018
 8007b34:	20000000 	.word	0x20000000
 8007b38:	10624dd3 	.word	0x10624dd3
 8007b3c:	e000e014 	.word	0xe000e014

08007b40 <vPortEnableVFP>:
/*-----------------------------------------------------------*/

/* This is a naked function. */
static void vPortEnableVFP( void )
{
	__asm volatile
 8007b40:	f8df 000c 	ldr.w	r0, [pc, #12]	; 8007b50 <vPortEnableVFP+0x10>
 8007b44:	6801      	ldr	r1, [r0, #0]
 8007b46:	f441 0170 	orr.w	r1, r1, #15728640	; 0xf00000
 8007b4a:	6001      	str	r1, [r0, #0]
 8007b4c:	4770      	bx	lr
		"								\n"
		"	orr r1, r1, #( 0xf << 20 )	\n" /* Enable CP10 and CP11 coprocessors, then save back. */
		"	str r1, [r0]				\n"
		"	bx r14						"
	);
}
 8007b4e:	bf00      	nop
 8007b50:	e000ed88 	.word	0xe000ed88

08007b54 <pvPortMalloc>:
static size_t xBlockAllocatedBit = 0;

/*-----------------------------------------------------------*/

void *pvPortMalloc( size_t xWantedSize )
{
 8007b54:	b580      	push	{r7, lr}
 8007b56:	b08a      	sub	sp, #40	; 0x28
 8007b58:	af00      	add	r7, sp, #0
 8007b5a:	6078      	str	r0, [r7, #4]
BlockLink_t *pxBlock, *pxPreviousBlock, *pxNewBlockLink;
void *pvReturn = NULL;
 8007b5c:	2300      	movs	r3, #0
 8007b5e:	61fb      	str	r3, [r7, #28]

	vTaskSuspendAll();
 8007b60:	f7ff fb02 	bl	8007168 <vTaskSuspendAll>
	{
		/* If this is the first call to malloc then the heap will require
		initialisation to setup the list of free blocks. */
		if( pxEnd == NULL )
 8007b64:	4b57      	ldr	r3, [pc, #348]	; (8007cc4 <pvPortMalloc+0x170>)
 8007b66:	681b      	ldr	r3, [r3, #0]
 8007b68:	2b00      	cmp	r3, #0
 8007b6a:	d101      	bne.n	8007b70 <pvPortMalloc+0x1c>
		{
			prvHeapInit();
 8007b6c:	f000 f90c 	bl	8007d88 <prvHeapInit>

		/* Check the requested block size is not so large that the top bit is
		set.  The top bit of the block size member of the BlockLink_t structure
		is used to determine who owns the block - the application or the
		kernel, so it must be free. */
		if( ( xWantedSize & xBlockAllocatedBit ) == 0 )
 8007b70:	4b55      	ldr	r3, [pc, #340]	; (8007cc8 <pvPortMalloc+0x174>)
 8007b72:	681a      	ldr	r2, [r3, #0]
 8007b74:	687b      	ldr	r3, [r7, #4]
 8007b76:	4013      	ands	r3, r2
 8007b78:	2b00      	cmp	r3, #0
 8007b7a:	f040 808c 	bne.w	8007c96 <pvPortMalloc+0x142>
		{
			/* The wanted size is increased so it can contain a BlockLink_t
			structure in addition to the requested amount of bytes. */
			if( xWantedSize > 0 )
 8007b7e:	687b      	ldr	r3, [r7, #4]
 8007b80:	2b00      	cmp	r3, #0
 8007b82:	d01c      	beq.n	8007bbe <pvPortMalloc+0x6a>
			{
				xWantedSize += xHeapStructSize;
 8007b84:	2208      	movs	r2, #8
 8007b86:	687b      	ldr	r3, [r7, #4]
 8007b88:	4413      	add	r3, r2
 8007b8a:	607b      	str	r3, [r7, #4]

				/* Ensure that blocks are always aligned to the required number
				of bytes. */
				if( ( xWantedSize & portBYTE_ALIGNMENT_MASK ) != 0x00 )
 8007b8c:	687b      	ldr	r3, [r7, #4]
 8007b8e:	f003 0307 	and.w	r3, r3, #7
 8007b92:	2b00      	cmp	r3, #0
 8007b94:	d013      	beq.n	8007bbe <pvPortMalloc+0x6a>
				{
					/* Byte alignment required. */
					xWantedSize += ( portBYTE_ALIGNMENT - ( xWantedSize & portBYTE_ALIGNMENT_MASK ) );
 8007b96:	687b      	ldr	r3, [r7, #4]
 8007b98:	f023 0307 	bic.w	r3, r3, #7
 8007b9c:	3308      	adds	r3, #8
 8007b9e:	607b      	str	r3, [r7, #4]
					configASSERT( ( xWantedSize & portBYTE_ALIGNMENT_MASK ) == 0 );
 8007ba0:	687b      	ldr	r3, [r7, #4]
 8007ba2:	f003 0307 	and.w	r3, r3, #7
 8007ba6:	2b00      	cmp	r3, #0
 8007ba8:	d009      	beq.n	8007bbe <pvPortMalloc+0x6a>
	__asm volatile
 8007baa:	f04f 0350 	mov.w	r3, #80	; 0x50
 8007bae:	f383 8811 	msr	BASEPRI, r3
 8007bb2:	f3bf 8f6f 	isb	sy
 8007bb6:	f3bf 8f4f 	dsb	sy
 8007bba:	617b      	str	r3, [r7, #20]
 8007bbc:	e7fe      	b.n	8007bbc <pvPortMalloc+0x68>
			else
			{
				mtCOVERAGE_TEST_MARKER();
			}

			if( ( xWantedSize > 0 ) && ( xWantedSize <= xFreeBytesRemaining ) )
 8007bbe:	687b      	ldr	r3, [r7, #4]
 8007bc0:	2b00      	cmp	r3, #0
 8007bc2:	d068      	beq.n	8007c96 <pvPortMalloc+0x142>
 8007bc4:	4b41      	ldr	r3, [pc, #260]	; (8007ccc <pvPortMalloc+0x178>)
 8007bc6:	681b      	ldr	r3, [r3, #0]
 8007bc8:	687a      	ldr	r2, [r7, #4]
 8007bca:	429a      	cmp	r2, r3
 8007bcc:	d863      	bhi.n	8007c96 <pvPortMalloc+0x142>
			{
				/* Traverse the list from the start	(lowest address) block until
				one	of adequate size is found. */
				pxPreviousBlock = &xStart;
 8007bce:	4b40      	ldr	r3, [pc, #256]	; (8007cd0 <pvPortMalloc+0x17c>)
 8007bd0:	623b      	str	r3, [r7, #32]
				pxBlock = xStart.pxNextFreeBlock;
 8007bd2:	4b3f      	ldr	r3, [pc, #252]	; (8007cd0 <pvPortMalloc+0x17c>)
 8007bd4:	681b      	ldr	r3, [r3, #0]
 8007bd6:	627b      	str	r3, [r7, #36]	; 0x24
				while( ( pxBlock->xBlockSize < xWantedSize ) && ( pxBlock->pxNextFreeBlock != NULL ) )
 8007bd8:	e004      	b.n	8007be4 <pvPortMalloc+0x90>
				{
					pxPreviousBlock = pxBlock;
 8007bda:	6a7b      	ldr	r3, [r7, #36]	; 0x24
 8007bdc:	623b      	str	r3, [r7, #32]
					pxBlock = pxBlock->pxNextFreeBlock;
 8007bde:	6a7b      	ldr	r3, [r7, #36]	; 0x24
 8007be0:	681b      	ldr	r3, [r3, #0]
 8007be2:	627b      	str	r3, [r7, #36]	; 0x24
				while( ( pxBlock->xBlockSize < xWantedSize ) && ( pxBlock->pxNextFreeBlock != NULL ) )
 8007be4:	6a7b      	ldr	r3, [r7, #36]	; 0x24
 8007be6:	685b      	ldr	r3, [r3, #4]
 8007be8:	687a      	ldr	r2, [r7, #4]
 8007bea:	429a      	cmp	r2, r3
 8007bec:	d903      	bls.n	8007bf6 <pvPortMalloc+0xa2>
 8007bee:	6a7b      	ldr	r3, [r7, #36]	; 0x24
 8007bf0:	681b      	ldr	r3, [r3, #0]
 8007bf2:	2b00      	cmp	r3, #0
 8007bf4:	d1f1      	bne.n	8007bda <pvPortMalloc+0x86>
				}

				/* If the end marker was reached then a block of adequate size
				was	not found. */
				if( pxBlock != pxEnd )
 8007bf6:	4b33      	ldr	r3, [pc, #204]	; (8007cc4 <pvPortMalloc+0x170>)
 8007bf8:	681b      	ldr	r3, [r3, #0]
 8007bfa:	6a7a      	ldr	r2, [r7, #36]	; 0x24
 8007bfc:	429a      	cmp	r2, r3
 8007bfe:	d04a      	beq.n	8007c96 <pvPortMalloc+0x142>
				{
					/* Return the memory space pointed to - jumping over the
					BlockLink_t structure at its start. */
					pvReturn = ( void * ) ( ( ( uint8_t * ) pxPreviousBlock->pxNextFreeBlock ) + xHeapStructSize );
 8007c00:	6a3b      	ldr	r3, [r7, #32]
 8007c02:	681b      	ldr	r3, [r3, #0]
 8007c04:	2208      	movs	r2, #8
 8007c06:	4413      	add	r3, r2
 8007c08:	61fb      	str	r3, [r7, #28]

					/* This block is being returned for use so must be taken out
					of the list of free blocks. */
					pxPreviousBlock->pxNextFreeBlock = pxBlock->pxNextFreeBlock;
 8007c0a:	6a7b      	ldr	r3, [r7, #36]	; 0x24
 8007c0c:	681a      	ldr	r2, [r3, #0]
 8007c0e:	6a3b      	ldr	r3, [r7, #32]
 8007c10:	601a      	str	r2, [r3, #0]

					/* If the block is larger than required it can be split into
					two. */
					if( ( pxBlock->xBlockSize - xWantedSize ) > heapMINIMUM_BLOCK_SIZE )
 8007c12:	6a7b      	ldr	r3, [r7, #36]	; 0x24
 8007c14:	685a      	ldr	r2, [r3, #4]
 8007c16:	687b      	ldr	r3, [r7, #4]
 8007c18:	1ad2      	subs	r2, r2, r3
 8007c1a:	2308      	movs	r3, #8
 8007c1c:	005b      	lsls	r3, r3, #1
 8007c1e:	429a      	cmp	r2, r3
 8007c20:	d91e      	bls.n	8007c60 <pvPortMalloc+0x10c>
					{
						/* This block is to be split into two.  Create a new
						block following the number of bytes requested. The void
						cast is used to prevent byte alignment warnings from the
						compiler. */
						pxNewBlockLink = ( void * ) ( ( ( uint8_t * ) pxBlock ) + xWantedSize );
 8007c22:	6a7a      	ldr	r2, [r7, #36]	; 0x24
 8007c24:	687b      	ldr	r3, [r7, #4]
 8007c26:	4413      	add	r3, r2
 8007c28:	61bb      	str	r3, [r7, #24]
						configASSERT( ( ( ( size_t ) pxNewBlockLink ) & portBYTE_ALIGNMENT_MASK ) == 0 );
 8007c2a:	69bb      	ldr	r3, [r7, #24]
 8007c2c:	f003 0307 	and.w	r3, r3, #7
 8007c30:	2b00      	cmp	r3, #0
 8007c32:	d009      	beq.n	8007c48 <pvPortMalloc+0xf4>
 8007c34:	f04f 0350 	mov.w	r3, #80	; 0x50
 8007c38:	f383 8811 	msr	BASEPRI, r3
 8007c3c:	f3bf 8f6f 	isb	sy
 8007c40:	f3bf 8f4f 	dsb	sy
 8007c44:	613b      	str	r3, [r7, #16]
 8007c46:	e7fe      	b.n	8007c46 <pvPortMalloc+0xf2>

						/* Calculate the sizes of two blocks split from the
						single block. */
						pxNewBlockLink->xBlockSize = pxBlock->xBlockSize - xWantedSize;
 8007c48:	6a7b      	ldr	r3, [r7, #36]	; 0x24
 8007c4a:	685a      	ldr	r2, [r3, #4]
 8007c4c:	687b      	ldr	r3, [r7, #4]
 8007c4e:	1ad2      	subs	r2, r2, r3
 8007c50:	69bb      	ldr	r3, [r7, #24]
 8007c52:	605a      	str	r2, [r3, #4]
						pxBlock->xBlockSize = xWantedSize;
 8007c54:	6a7b      	ldr	r3, [r7, #36]	; 0x24
 8007c56:	687a      	ldr	r2, [r7, #4]
 8007c58:	605a      	str	r2, [r3, #4]

						/* Insert the new block into the list of free blocks. */
						prvInsertBlockIntoFreeList( pxNewBlockLink );
 8007c5a:	69b8      	ldr	r0, [r7, #24]
 8007c5c:	f000 f8f6 	bl	8007e4c <prvInsertBlockIntoFreeList>
					else
					{
						mtCOVERAGE_TEST_MARKER();
					}

					xFreeBytesRemaining -= pxBlock->xBlockSize;
 8007c60:	4b1a      	ldr	r3, [pc, #104]	; (8007ccc <pvPortMalloc+0x178>)
 8007c62:	681a      	ldr	r2, [r3, #0]
 8007c64:	6a7b      	ldr	r3, [r7, #36]	; 0x24
 8007c66:	685b      	ldr	r3, [r3, #4]
 8007c68:	1ad3      	subs	r3, r2, r3
 8007c6a:	4a18      	ldr	r2, [pc, #96]	; (8007ccc <pvPortMalloc+0x178>)
 8007c6c:	6013      	str	r3, [r2, #0]

					if( xFreeBytesRemaining < xMinimumEverFreeBytesRemaining )
 8007c6e:	4b17      	ldr	r3, [pc, #92]	; (8007ccc <pvPortMalloc+0x178>)
 8007c70:	681a      	ldr	r2, [r3, #0]
 8007c72:	4b18      	ldr	r3, [pc, #96]	; (8007cd4 <pvPortMalloc+0x180>)
 8007c74:	681b      	ldr	r3, [r3, #0]
 8007c76:	429a      	cmp	r2, r3
 8007c78:	d203      	bcs.n	8007c82 <pvPortMalloc+0x12e>
					{
						xMinimumEverFreeBytesRemaining = xFreeBytesRemaining;
 8007c7a:	4b14      	ldr	r3, [pc, #80]	; (8007ccc <pvPortMalloc+0x178>)
 8007c7c:	681b      	ldr	r3, [r3, #0]
 8007c7e:	4a15      	ldr	r2, [pc, #84]	; (8007cd4 <pvPortMalloc+0x180>)
 8007c80:	6013      	str	r3, [r2, #0]
						mtCOVERAGE_TEST_MARKER();
					}

					/* The block is being returned - it is allocated and owned
					by the application and has no "next" block. */
					pxBlock->xBlockSize |= xBlockAllocatedBit;
 8007c82:	6a7b      	ldr	r3, [r7, #36]	; 0x24
 8007c84:	685a      	ldr	r2, [r3, #4]
 8007c86:	4b10      	ldr	r3, [pc, #64]	; (8007cc8 <pvPortMalloc+0x174>)
 8007c88:	681b      	ldr	r3, [r3, #0]
 8007c8a:	431a      	orrs	r2, r3
 8007c8c:	6a7b      	ldr	r3, [r7, #36]	; 0x24
 8007c8e:	605a      	str	r2, [r3, #4]
					pxBlock->pxNextFreeBlock = NULL;
 8007c90:	6a7b      	ldr	r3, [r7, #36]	; 0x24
 8007c92:	2200      	movs	r2, #0
 8007c94:	601a      	str	r2, [r3, #0]
			mtCOVERAGE_TEST_MARKER();
		}

		traceMALLOC( pvReturn, xWantedSize );
	}
	( void ) xTaskResumeAll();
 8007c96:	f7ff fa75 	bl	8007184 <xTaskResumeAll>
			mtCOVERAGE_TEST_MARKER();
		}
	}
	#endif

	configASSERT( ( ( ( size_t ) pvReturn ) & ( size_t ) portBYTE_ALIGNMENT_MASK ) == 0 );
 8007c9a:	69fb      	ldr	r3, [r7, #28]
 8007c9c:	f003 0307 	and.w	r3, r3, #7
 8007ca0:	2b00      	cmp	r3, #0
 8007ca2:	d009      	beq.n	8007cb8 <pvPortMalloc+0x164>
 8007ca4:	f04f 0350 	mov.w	r3, #80	; 0x50
 8007ca8:	f383 8811 	msr	BASEPRI, r3
 8007cac:	f3bf 8f6f 	isb	sy
 8007cb0:	f3bf 8f4f 	dsb	sy
 8007cb4:	60fb      	str	r3, [r7, #12]
 8007cb6:	e7fe      	b.n	8007cb6 <pvPortMalloc+0x162>
	return pvReturn;
 8007cb8:	69fb      	ldr	r3, [r7, #28]
}
 8007cba:	4618      	mov	r0, r3
 8007cbc:	3728      	adds	r7, #40	; 0x28
 8007cbe:	46bd      	mov	sp, r7
 8007cc0:	bd80      	pop	{r7, pc}
 8007cc2:	bf00      	nop
 8007cc4:	2000402c 	.word	0x2000402c
 8007cc8:	20004038 	.word	0x20004038
 8007ccc:	20004030 	.word	0x20004030
 8007cd0:	20004024 	.word	0x20004024
 8007cd4:	20004034 	.word	0x20004034

08007cd8 <vPortFree>:
/*-----------------------------------------------------------*/

void vPortFree( void *pv )
{
 8007cd8:	b580      	push	{r7, lr}
 8007cda:	b086      	sub	sp, #24
 8007cdc:	af00      	add	r7, sp, #0
 8007cde:	6078      	str	r0, [r7, #4]
uint8_t *puc = ( uint8_t * ) pv;
 8007ce0:	687b      	ldr	r3, [r7, #4]
 8007ce2:	617b      	str	r3, [r7, #20]
BlockLink_t *pxLink;

	if( pv != NULL )
 8007ce4:	687b      	ldr	r3, [r7, #4]
 8007ce6:	2b00      	cmp	r3, #0
 8007ce8:	d046      	beq.n	8007d78 <vPortFree+0xa0>
	{
		/* The memory being freed will have an BlockLink_t structure immediately
		before it. */
		puc -= xHeapStructSize;
 8007cea:	2308      	movs	r3, #8
 8007cec:	425b      	negs	r3, r3
 8007cee:	697a      	ldr	r2, [r7, #20]
 8007cf0:	4413      	add	r3, r2
 8007cf2:	617b      	str	r3, [r7, #20]

		/* This casting is to keep the compiler from issuing warnings. */
		pxLink = ( void * ) puc;
 8007cf4:	697b      	ldr	r3, [r7, #20]
 8007cf6:	613b      	str	r3, [r7, #16]

		/* Check the block is actually allocated. */
		configASSERT( ( pxLink->xBlockSize & xBlockAllocatedBit ) != 0 );
 8007cf8:	693b      	ldr	r3, [r7, #16]
 8007cfa:	685a      	ldr	r2, [r3, #4]
 8007cfc:	4b20      	ldr	r3, [pc, #128]	; (8007d80 <vPortFree+0xa8>)
 8007cfe:	681b      	ldr	r3, [r3, #0]
 8007d00:	4013      	ands	r3, r2
 8007d02:	2b00      	cmp	r3, #0
 8007d04:	d109      	bne.n	8007d1a <vPortFree+0x42>
 8007d06:	f04f 0350 	mov.w	r3, #80	; 0x50
 8007d0a:	f383 8811 	msr	BASEPRI, r3
 8007d0e:	f3bf 8f6f 	isb	sy
 8007d12:	f3bf 8f4f 	dsb	sy
 8007d16:	60fb      	str	r3, [r7, #12]
 8007d18:	e7fe      	b.n	8007d18 <vPortFree+0x40>
		configASSERT( pxLink->pxNextFreeBlock == NULL );
 8007d1a:	693b      	ldr	r3, [r7, #16]
 8007d1c:	681b      	ldr	r3, [r3, #0]
 8007d1e:	2b00      	cmp	r3, #0
 8007d20:	d009      	beq.n	8007d36 <vPortFree+0x5e>
 8007d22:	f04f 0350 	mov.w	r3, #80	; 0x50
 8007d26:	f383 8811 	msr	BASEPRI, r3
 8007d2a:	f3bf 8f6f 	isb	sy
 8007d2e:	f3bf 8f4f 	dsb	sy
 8007d32:	60bb      	str	r3, [r7, #8]
 8007d34:	e7fe      	b.n	8007d34 <vPortFree+0x5c>

		if( ( pxLink->xBlockSize & xBlockAllocatedBit ) != 0 )
 8007d36:	693b      	ldr	r3, [r7, #16]
 8007d38:	685a      	ldr	r2, [r3, #4]
 8007d3a:	4b11      	ldr	r3, [pc, #68]	; (8007d80 <vPortFree+0xa8>)
 8007d3c:	681b      	ldr	r3, [r3, #0]
 8007d3e:	4013      	ands	r3, r2
 8007d40:	2b00      	cmp	r3, #0
 8007d42:	d019      	beq.n	8007d78 <vPortFree+0xa0>
		{
			if( pxLink->pxNextFreeBlock == NULL )
 8007d44:	693b      	ldr	r3, [r7, #16]
 8007d46:	681b      	ldr	r3, [r3, #0]
 8007d48:	2b00      	cmp	r3, #0
 8007d4a:	d115      	bne.n	8007d78 <vPortFree+0xa0>
			{
				/* The block is being returned to the heap - it is no longer
				allocated. */
				pxLink->xBlockSize &= ~xBlockAllocatedBit;
 8007d4c:	693b      	ldr	r3, [r7, #16]
 8007d4e:	685a      	ldr	r2, [r3, #4]
 8007d50:	4b0b      	ldr	r3, [pc, #44]	; (8007d80 <vPortFree+0xa8>)
 8007d52:	681b      	ldr	r3, [r3, #0]
 8007d54:	43db      	mvns	r3, r3
 8007d56:	401a      	ands	r2, r3
 8007d58:	693b      	ldr	r3, [r7, #16]
 8007d5a:	605a      	str	r2, [r3, #4]

				vTaskSuspendAll();
 8007d5c:	f7ff fa04 	bl	8007168 <vTaskSuspendAll>
				{
					/* Add this block to the list of free blocks. */
					xFreeBytesRemaining += pxLink->xBlockSize;
 8007d60:	693b      	ldr	r3, [r7, #16]
 8007d62:	685a      	ldr	r2, [r3, #4]
 8007d64:	4b07      	ldr	r3, [pc, #28]	; (8007d84 <vPortFree+0xac>)
 8007d66:	681b      	ldr	r3, [r3, #0]
 8007d68:	4413      	add	r3, r2
 8007d6a:	4a06      	ldr	r2, [pc, #24]	; (8007d84 <vPortFree+0xac>)
 8007d6c:	6013      	str	r3, [r2, #0]
					traceFREE( pv, pxLink->xBlockSize );
					prvInsertBlockIntoFreeList( ( ( BlockLink_t * ) pxLink ) );
 8007d6e:	6938      	ldr	r0, [r7, #16]
 8007d70:	f000 f86c 	bl	8007e4c <prvInsertBlockIntoFreeList>
				}
				( void ) xTaskResumeAll();
 8007d74:	f7ff fa06 	bl	8007184 <xTaskResumeAll>
		else
		{
			mtCOVERAGE_TEST_MARKER();
		}
	}
}
 8007d78:	bf00      	nop
 8007d7a:	3718      	adds	r7, #24
 8007d7c:	46bd      	mov	sp, r7
 8007d7e:	bd80      	pop	{r7, pc}
 8007d80:	20004038 	.word	0x20004038
 8007d84:	20004030 	.word	0x20004030

08007d88 <prvHeapInit>:
	/* This just exists to keep the linker quiet. */
}
/*-----------------------------------------------------------*/

static void prvHeapInit( void )
{
 8007d88:	b480      	push	{r7}
 8007d8a:	b085      	sub	sp, #20
 8007d8c:	af00      	add	r7, sp, #0
BlockLink_t *pxFirstFreeBlock;
uint8_t *pucAlignedHeap;
size_t uxAddress;
size_t xTotalHeapSize = configTOTAL_HEAP_SIZE;
 8007d8e:	f44f 5370 	mov.w	r3, #15360	; 0x3c00
 8007d92:	60bb      	str	r3, [r7, #8]

	/* Ensure the heap starts on a correctly aligned boundary. */
	uxAddress = ( size_t ) ucHeap;
 8007d94:	4b27      	ldr	r3, [pc, #156]	; (8007e34 <prvHeapInit+0xac>)
 8007d96:	60fb      	str	r3, [r7, #12]

	if( ( uxAddress & portBYTE_ALIGNMENT_MASK ) != 0 )
 8007d98:	68fb      	ldr	r3, [r7, #12]
 8007d9a:	f003 0307 	and.w	r3, r3, #7
 8007d9e:	2b00      	cmp	r3, #0
 8007da0:	d00c      	beq.n	8007dbc <prvHeapInit+0x34>
	{
		uxAddress += ( portBYTE_ALIGNMENT - 1 );
 8007da2:	68fb      	ldr	r3, [r7, #12]
 8007da4:	3307      	adds	r3, #7
 8007da6:	60fb      	str	r3, [r7, #12]
		uxAddress &= ~( ( size_t ) portBYTE_ALIGNMENT_MASK );
 8007da8:	68fb      	ldr	r3, [r7, #12]
 8007daa:	f023 0307 	bic.w	r3, r3, #7
 8007dae:	60fb      	str	r3, [r7, #12]
		xTotalHeapSize -= uxAddress - ( size_t ) ucHeap;
 8007db0:	68ba      	ldr	r2, [r7, #8]
 8007db2:	68fb      	ldr	r3, [r7, #12]
 8007db4:	1ad3      	subs	r3, r2, r3
 8007db6:	4a1f      	ldr	r2, [pc, #124]	; (8007e34 <prvHeapInit+0xac>)
 8007db8:	4413      	add	r3, r2
 8007dba:	60bb      	str	r3, [r7, #8]
	}

	pucAlignedHeap = ( uint8_t * ) uxAddress;
 8007dbc:	68fb      	ldr	r3, [r7, #12]
 8007dbe:	607b      	str	r3, [r7, #4]

	/* xStart is used to hold a pointer to the first item in the list of free
	blocks.  The void cast is used to prevent compiler warnings. */
	xStart.pxNextFreeBlock = ( void * ) pucAlignedHeap;
 8007dc0:	4a1d      	ldr	r2, [pc, #116]	; (8007e38 <prvHeapInit+0xb0>)
 8007dc2:	687b      	ldr	r3, [r7, #4]
 8007dc4:	6013      	str	r3, [r2, #0]
	xStart.xBlockSize = ( size_t ) 0;
 8007dc6:	4b1c      	ldr	r3, [pc, #112]	; (8007e38 <prvHeapInit+0xb0>)
 8007dc8:	2200      	movs	r2, #0
 8007dca:	605a      	str	r2, [r3, #4]

	/* pxEnd is used to mark the end of the list of free blocks and is inserted
	at the end of the heap space. */
	uxAddress = ( ( size_t ) pucAlignedHeap ) + xTotalHeapSize;
 8007dcc:	687b      	ldr	r3, [r7, #4]
 8007dce:	68ba      	ldr	r2, [r7, #8]
 8007dd0:	4413      	add	r3, r2
 8007dd2:	60fb      	str	r3, [r7, #12]
	uxAddress -= xHeapStructSize;
 8007dd4:	2208      	movs	r2, #8
 8007dd6:	68fb      	ldr	r3, [r7, #12]
 8007dd8:	1a9b      	subs	r3, r3, r2
 8007dda:	60fb      	str	r3, [r7, #12]
	uxAddress &= ~( ( size_t ) portBYTE_ALIGNMENT_MASK );
 8007ddc:	68fb      	ldr	r3, [r7, #12]
 8007dde:	f023 0307 	bic.w	r3, r3, #7
 8007de2:	60fb      	str	r3, [r7, #12]
	pxEnd = ( void * ) uxAddress;
 8007de4:	68fb      	ldr	r3, [r7, #12]
 8007de6:	4a15      	ldr	r2, [pc, #84]	; (8007e3c <prvHeapInit+0xb4>)
 8007de8:	6013      	str	r3, [r2, #0]
	pxEnd->xBlockSize = 0;
 8007dea:	4b14      	ldr	r3, [pc, #80]	; (8007e3c <prvHeapInit+0xb4>)
 8007dec:	681b      	ldr	r3, [r3, #0]
 8007dee:	2200      	movs	r2, #0
 8007df0:	605a      	str	r2, [r3, #4]
	pxEnd->pxNextFreeBlock = NULL;
 8007df2:	4b12      	ldr	r3, [pc, #72]	; (8007e3c <prvHeapInit+0xb4>)
 8007df4:	681b      	ldr	r3, [r3, #0]
 8007df6:	2200      	movs	r2, #0
 8007df8:	601a      	str	r2, [r3, #0]

	/* To start with there is a single free block that is sized to take up the
	entire heap space, minus the space taken by pxEnd. */
	pxFirstFreeBlock = ( void * ) pucAlignedHeap;
 8007dfa:	687b      	ldr	r3, [r7, #4]
 8007dfc:	603b      	str	r3, [r7, #0]
	pxFirstFreeBlock->xBlockSize = uxAddress - ( size_t ) pxFirstFreeBlock;
 8007dfe:	683b      	ldr	r3, [r7, #0]
 8007e00:	68fa      	ldr	r2, [r7, #12]
 8007e02:	1ad2      	subs	r2, r2, r3
 8007e04:	683b      	ldr	r3, [r7, #0]
 8007e06:	605a      	str	r2, [r3, #4]
	pxFirstFreeBlock->pxNextFreeBlock = pxEnd;
 8007e08:	4b0c      	ldr	r3, [pc, #48]	; (8007e3c <prvHeapInit+0xb4>)
 8007e0a:	681a      	ldr	r2, [r3, #0]
 8007e0c:	683b      	ldr	r3, [r7, #0]
 8007e0e:	601a      	str	r2, [r3, #0]

	/* Only one block exists - and it covers the entire usable heap space. */
	xMinimumEverFreeBytesRemaining = pxFirstFreeBlock->xBlockSize;
 8007e10:	683b      	ldr	r3, [r7, #0]
 8007e12:	685b      	ldr	r3, [r3, #4]
 8007e14:	4a0a      	ldr	r2, [pc, #40]	; (8007e40 <prvHeapInit+0xb8>)
 8007e16:	6013      	str	r3, [r2, #0]
	xFreeBytesRemaining = pxFirstFreeBlock->xBlockSize;
 8007e18:	683b      	ldr	r3, [r7, #0]
 8007e1a:	685b      	ldr	r3, [r3, #4]
 8007e1c:	4a09      	ldr	r2, [pc, #36]	; (8007e44 <prvHeapInit+0xbc>)
 8007e1e:	6013      	str	r3, [r2, #0]

	/* Work out the position of the top bit in a size_t variable. */
	xBlockAllocatedBit = ( ( size_t ) 1 ) << ( ( sizeof( size_t ) * heapBITS_PER_BYTE ) - 1 );
 8007e20:	4b09      	ldr	r3, [pc, #36]	; (8007e48 <prvHeapInit+0xc0>)
 8007e22:	f04f 4200 	mov.w	r2, #2147483648	; 0x80000000
 8007e26:	601a      	str	r2, [r3, #0]
}
 8007e28:	bf00      	nop
 8007e2a:	3714      	adds	r7, #20
 8007e2c:	46bd      	mov	sp, r7
 8007e2e:	f85d 7b04 	ldr.w	r7, [sp], #4
 8007e32:	4770      	bx	lr
 8007e34:	20000424 	.word	0x20000424
 8007e38:	20004024 	.word	0x20004024
 8007e3c:	2000402c 	.word	0x2000402c
 8007e40:	20004034 	.word	0x20004034
 8007e44:	20004030 	.word	0x20004030
 8007e48:	20004038 	.word	0x20004038

08007e4c <prvInsertBlockIntoFreeList>:
/*-----------------------------------------------------------*/

static void prvInsertBlockIntoFreeList( BlockLink_t *pxBlockToInsert )
{
 8007e4c:	b480      	push	{r7}
 8007e4e:	b085      	sub	sp, #20
 8007e50:	af00      	add	r7, sp, #0
 8007e52:	6078      	str	r0, [r7, #4]
BlockLink_t *pxIterator;
uint8_t *puc;

	/* Iterate through the list until a block is found that has a higher address
	than the block being inserted. */
	for( pxIterator = &xStart; pxIterator->pxNextFreeBlock < pxBlockToInsert; pxIterator = pxIterator->pxNextFreeBlock )
 8007e54:	4b28      	ldr	r3, [pc, #160]	; (8007ef8 <prvInsertBlockIntoFreeList+0xac>)
 8007e56:	60fb      	str	r3, [r7, #12]
 8007e58:	e002      	b.n	8007e60 <prvInsertBlockIntoFreeList+0x14>
 8007e5a:	68fb      	ldr	r3, [r7, #12]
 8007e5c:	681b      	ldr	r3, [r3, #0]
 8007e5e:	60fb      	str	r3, [r7, #12]
 8007e60:	68fb      	ldr	r3, [r7, #12]
 8007e62:	681b      	ldr	r3, [r3, #0]
 8007e64:	687a      	ldr	r2, [r7, #4]
 8007e66:	429a      	cmp	r2, r3
 8007e68:	d8f7      	bhi.n	8007e5a <prvInsertBlockIntoFreeList+0xe>
		/* Nothing to do here, just iterate to the right position. */
	}

	/* Do the block being inserted, and the block it is being inserted after
	make a contiguous block of memory? */
	puc = ( uint8_t * ) pxIterator;
 8007e6a:	68fb      	ldr	r3, [r7, #12]
 8007e6c:	60bb      	str	r3, [r7, #8]
	if( ( puc + pxIterator->xBlockSize ) == ( uint8_t * ) pxBlockToInsert )
 8007e6e:	68fb      	ldr	r3, [r7, #12]
 8007e70:	685b      	ldr	r3, [r3, #4]
 8007e72:	68ba      	ldr	r2, [r7, #8]
 8007e74:	4413      	add	r3, r2
 8007e76:	687a      	ldr	r2, [r7, #4]
 8007e78:	429a      	cmp	r2, r3
 8007e7a:	d108      	bne.n	8007e8e <prvInsertBlockIntoFreeList+0x42>
	{
		pxIterator->xBlockSize += pxBlockToInsert->xBlockSize;
 8007e7c:	68fb      	ldr	r3, [r7, #12]
 8007e7e:	685a      	ldr	r2, [r3, #4]
 8007e80:	687b      	ldr	r3, [r7, #4]
 8007e82:	685b      	ldr	r3, [r3, #4]
 8007e84:	441a      	add	r2, r3
 8007e86:	68fb      	ldr	r3, [r7, #12]
 8007e88:	605a      	str	r2, [r3, #4]
		pxBlockToInsert = pxIterator;
 8007e8a:	68fb      	ldr	r3, [r7, #12]
 8007e8c:	607b      	str	r3, [r7, #4]
		mtCOVERAGE_TEST_MARKER();
	}

	/* Do the block being inserted, and the block it is being inserted before
	make a contiguous block of memory? */
	puc = ( uint8_t * ) pxBlockToInsert;
 8007e8e:	687b      	ldr	r3, [r7, #4]
 8007e90:	60bb      	str	r3, [r7, #8]
	if( ( puc + pxBlockToInsert->xBlockSize ) == ( uint8_t * ) pxIterator->pxNextFreeBlock )
 8007e92:	687b      	ldr	r3, [r7, #4]
 8007e94:	685b      	ldr	r3, [r3, #4]
 8007e96:	68ba      	ldr	r2, [r7, #8]
 8007e98:	441a      	add	r2, r3
 8007e9a:	68fb      	ldr	r3, [r7, #12]
 8007e9c:	681b      	ldr	r3, [r3, #0]
 8007e9e:	429a      	cmp	r2, r3
 8007ea0:	d118      	bne.n	8007ed4 <prvInsertBlockIntoFreeList+0x88>
	{
		if( pxIterator->pxNextFreeBlock != pxEnd )
 8007ea2:	68fb      	ldr	r3, [r7, #12]
 8007ea4:	681a      	ldr	r2, [r3, #0]
 8007ea6:	4b15      	ldr	r3, [pc, #84]	; (8007efc <prvInsertBlockIntoFreeList+0xb0>)
 8007ea8:	681b      	ldr	r3, [r3, #0]
 8007eaa:	429a      	cmp	r2, r3
 8007eac:	d00d      	beq.n	8007eca <prvInsertBlockIntoFreeList+0x7e>
		{
			/* Form one big block from the two blocks. */
			pxBlockToInsert->xBlockSize += pxIterator->pxNextFreeBlock->xBlockSize;
 8007eae:	687b      	ldr	r3, [r7, #4]
 8007eb0:	685a      	ldr	r2, [r3, #4]
 8007eb2:	68fb      	ldr	r3, [r7, #12]
 8007eb4:	681b      	ldr	r3, [r3, #0]
 8007eb6:	685b      	ldr	r3, [r3, #4]
 8007eb8:	441a      	add	r2, r3
 8007eba:	687b      	ldr	r3, [r7, #4]
 8007ebc:	605a      	str	r2, [r3, #4]
			pxBlockToInsert->pxNextFreeBlock = pxIterator->pxNextFreeBlock->pxNextFreeBlock;
 8007ebe:	68fb      	ldr	r3, [r7, #12]
 8007ec0:	681b      	ldr	r3, [r3, #0]
 8007ec2:	681a      	ldr	r2, [r3, #0]
 8007ec4:	687b      	ldr	r3, [r7, #4]
 8007ec6:	601a      	str	r2, [r3, #0]
 8007ec8:	e008      	b.n	8007edc <prvInsertBlockIntoFreeList+0x90>
		}
		else
		{
			pxBlockToInsert->pxNextFreeBlock = pxEnd;
 8007eca:	4b0c      	ldr	r3, [pc, #48]	; (8007efc <prvInsertBlockIntoFreeList+0xb0>)
 8007ecc:	681a      	ldr	r2, [r3, #0]
 8007ece:	687b      	ldr	r3, [r7, #4]
 8007ed0:	601a      	str	r2, [r3, #0]
 8007ed2:	e003      	b.n	8007edc <prvInsertBlockIntoFreeList+0x90>
		}
	}
	else
	{
		pxBlockToInsert->pxNextFreeBlock = pxIterator->pxNextFreeBlock;
 8007ed4:	68fb      	ldr	r3, [r7, #12]
 8007ed6:	681a      	ldr	r2, [r3, #0]
 8007ed8:	687b      	ldr	r3, [r7, #4]
 8007eda:	601a      	str	r2, [r3, #0]

	/* If the block being inserted plugged a gab, so was merged with the block
	before and the block after, then it's pxNextFreeBlock pointer will have
	already been set, and should not be set here as that would make it point
	to itself. */
	if( pxIterator != pxBlockToInsert )
 8007edc:	68fa      	ldr	r2, [r7, #12]
 8007ede:	687b      	ldr	r3, [r7, #4]
 8007ee0:	429a      	cmp	r2, r3
 8007ee2:	d002      	beq.n	8007eea <prvInsertBlockIntoFreeList+0x9e>
	{
		pxIterator->pxNextFreeBlock = pxBlockToInsert;
 8007ee4:	68fb      	ldr	r3, [r7, #12]
 8007ee6:	687a      	ldr	r2, [r7, #4]
 8007ee8:	601a      	str	r2, [r3, #0]
	}
	else
	{
		mtCOVERAGE_TEST_MARKER();
	}
}
 8007eea:	bf00      	nop
 8007eec:	3714      	adds	r7, #20
 8007eee:	46bd      	mov	sp, r7
 8007ef0:	f85d 7b04 	ldr.w	r7, [sp], #4
 8007ef4:	4770      	bx	lr
 8007ef6:	bf00      	nop
 8007ef8:	20004024 	.word	0x20004024
 8007efc:	2000402c 	.word	0x2000402c

08007f00 <__errno>:
 8007f00:	4b01      	ldr	r3, [pc, #4]	; (8007f08 <__errno+0x8>)
 8007f02:	6818      	ldr	r0, [r3, #0]
 8007f04:	4770      	bx	lr
 8007f06:	bf00      	nop
 8007f08:	20000010 	.word	0x20000010

08007f0c <__libc_init_array>:
 8007f0c:	b570      	push	{r4, r5, r6, lr}
 8007f0e:	4e0d      	ldr	r6, [pc, #52]	; (8007f44 <__libc_init_array+0x38>)
 8007f10:	4c0d      	ldr	r4, [pc, #52]	; (8007f48 <__libc_init_array+0x3c>)
 8007f12:	1ba4      	subs	r4, r4, r6
 8007f14:	10a4      	asrs	r4, r4, #2
 8007f16:	2500      	movs	r5, #0
 8007f18:	42a5      	cmp	r5, r4
 8007f1a:	d109      	bne.n	8007f30 <__libc_init_array+0x24>
 8007f1c:	4e0b      	ldr	r6, [pc, #44]	; (8007f4c <__libc_init_array+0x40>)
 8007f1e:	4c0c      	ldr	r4, [pc, #48]	; (8007f50 <__libc_init_array+0x44>)
 8007f20:	f002 f808 	bl	8009f34 <_init>
 8007f24:	1ba4      	subs	r4, r4, r6
 8007f26:	10a4      	asrs	r4, r4, #2
 8007f28:	2500      	movs	r5, #0
 8007f2a:	42a5      	cmp	r5, r4
 8007f2c:	d105      	bne.n	8007f3a <__libc_init_array+0x2e>
 8007f2e:	bd70      	pop	{r4, r5, r6, pc}
 8007f30:	f856 3025 	ldr.w	r3, [r6, r5, lsl #2]
 8007f34:	4798      	blx	r3
 8007f36:	3501      	adds	r5, #1
 8007f38:	e7ee      	b.n	8007f18 <__libc_init_array+0xc>
 8007f3a:	f856 3025 	ldr.w	r3, [r6, r5, lsl #2]
 8007f3e:	4798      	blx	r3
 8007f40:	3501      	adds	r5, #1
 8007f42:	e7f2      	b.n	8007f2a <__libc_init_array+0x1e>
 8007f44:	0800a200 	.word	0x0800a200
 8007f48:	0800a200 	.word	0x0800a200
 8007f4c:	0800a200 	.word	0x0800a200
 8007f50:	0800a204 	.word	0x0800a204

08007f54 <memset>:
 8007f54:	4402      	add	r2, r0
 8007f56:	4603      	mov	r3, r0
 8007f58:	4293      	cmp	r3, r2
 8007f5a:	d100      	bne.n	8007f5e <memset+0xa>
 8007f5c:	4770      	bx	lr
 8007f5e:	f803 1b01 	strb.w	r1, [r3], #1
 8007f62:	e7f9      	b.n	8007f58 <memset+0x4>

08007f64 <iprintf>:
 8007f64:	b40f      	push	{r0, r1, r2, r3}
 8007f66:	4b0a      	ldr	r3, [pc, #40]	; (8007f90 <iprintf+0x2c>)
 8007f68:	b513      	push	{r0, r1, r4, lr}
 8007f6a:	681c      	ldr	r4, [r3, #0]
 8007f6c:	b124      	cbz	r4, 8007f78 <iprintf+0x14>
 8007f6e:	69a3      	ldr	r3, [r4, #24]
 8007f70:	b913      	cbnz	r3, 8007f78 <iprintf+0x14>
 8007f72:	4620      	mov	r0, r4
 8007f74:	f000 fa22 	bl	80083bc <__sinit>
 8007f78:	ab05      	add	r3, sp, #20
 8007f7a:	9a04      	ldr	r2, [sp, #16]
 8007f7c:	68a1      	ldr	r1, [r4, #8]
 8007f7e:	9301      	str	r3, [sp, #4]
 8007f80:	4620      	mov	r0, r4
 8007f82:	f000 fbdb 	bl	800873c <_vfiprintf_r>
 8007f86:	b002      	add	sp, #8
 8007f88:	e8bd 4010 	ldmia.w	sp!, {r4, lr}
 8007f8c:	b004      	add	sp, #16
 8007f8e:	4770      	bx	lr
 8007f90:	20000010 	.word	0x20000010

08007f94 <_puts_r>:
 8007f94:	b570      	push	{r4, r5, r6, lr}
 8007f96:	460e      	mov	r6, r1
 8007f98:	4605      	mov	r5, r0
 8007f9a:	b118      	cbz	r0, 8007fa4 <_puts_r+0x10>
 8007f9c:	6983      	ldr	r3, [r0, #24]
 8007f9e:	b90b      	cbnz	r3, 8007fa4 <_puts_r+0x10>
 8007fa0:	f000 fa0c 	bl	80083bc <__sinit>
 8007fa4:	69ab      	ldr	r3, [r5, #24]
 8007fa6:	68ac      	ldr	r4, [r5, #8]
 8007fa8:	b913      	cbnz	r3, 8007fb0 <_puts_r+0x1c>
 8007faa:	4628      	mov	r0, r5
 8007fac:	f000 fa06 	bl	80083bc <__sinit>
 8007fb0:	4b23      	ldr	r3, [pc, #140]	; (8008040 <_puts_r+0xac>)
 8007fb2:	429c      	cmp	r4, r3
 8007fb4:	d117      	bne.n	8007fe6 <_puts_r+0x52>
 8007fb6:	686c      	ldr	r4, [r5, #4]
 8007fb8:	89a3      	ldrh	r3, [r4, #12]
 8007fba:	071b      	lsls	r3, r3, #28
 8007fbc:	d51d      	bpl.n	8007ffa <_puts_r+0x66>
 8007fbe:	6923      	ldr	r3, [r4, #16]
 8007fc0:	b1db      	cbz	r3, 8007ffa <_puts_r+0x66>
 8007fc2:	3e01      	subs	r6, #1
 8007fc4:	68a3      	ldr	r3, [r4, #8]
 8007fc6:	f816 1f01 	ldrb.w	r1, [r6, #1]!
 8007fca:	3b01      	subs	r3, #1
 8007fcc:	60a3      	str	r3, [r4, #8]
 8007fce:	b9e9      	cbnz	r1, 800800c <_puts_r+0x78>
 8007fd0:	2b00      	cmp	r3, #0
 8007fd2:	da2e      	bge.n	8008032 <_puts_r+0x9e>
 8007fd4:	4622      	mov	r2, r4
 8007fd6:	210a      	movs	r1, #10
 8007fd8:	4628      	mov	r0, r5
 8007fda:	f000 f83f 	bl	800805c <__swbuf_r>
 8007fde:	3001      	adds	r0, #1
 8007fe0:	d011      	beq.n	8008006 <_puts_r+0x72>
 8007fe2:	200a      	movs	r0, #10
 8007fe4:	e011      	b.n	800800a <_puts_r+0x76>
 8007fe6:	4b17      	ldr	r3, [pc, #92]	; (8008044 <_puts_r+0xb0>)
 8007fe8:	429c      	cmp	r4, r3
 8007fea:	d101      	bne.n	8007ff0 <_puts_r+0x5c>
 8007fec:	68ac      	ldr	r4, [r5, #8]
 8007fee:	e7e3      	b.n	8007fb8 <_puts_r+0x24>
 8007ff0:	4b15      	ldr	r3, [pc, #84]	; (8008048 <_puts_r+0xb4>)
 8007ff2:	429c      	cmp	r4, r3
 8007ff4:	bf08      	it	eq
 8007ff6:	68ec      	ldreq	r4, [r5, #12]
 8007ff8:	e7de      	b.n	8007fb8 <_puts_r+0x24>
 8007ffa:	4621      	mov	r1, r4
 8007ffc:	4628      	mov	r0, r5
 8007ffe:	f000 f87f 	bl	8008100 <__swsetup_r>
 8008002:	2800      	cmp	r0, #0
 8008004:	d0dd      	beq.n	8007fc2 <_puts_r+0x2e>
 8008006:	f04f 30ff 	mov.w	r0, #4294967295
 800800a:	bd70      	pop	{r4, r5, r6, pc}
 800800c:	2b00      	cmp	r3, #0
 800800e:	da04      	bge.n	800801a <_puts_r+0x86>
 8008010:	69a2      	ldr	r2, [r4, #24]
 8008012:	429a      	cmp	r2, r3
 8008014:	dc06      	bgt.n	8008024 <_puts_r+0x90>
 8008016:	290a      	cmp	r1, #10
 8008018:	d004      	beq.n	8008024 <_puts_r+0x90>
 800801a:	6823      	ldr	r3, [r4, #0]
 800801c:	1c5a      	adds	r2, r3, #1
 800801e:	6022      	str	r2, [r4, #0]
 8008020:	7019      	strb	r1, [r3, #0]
 8008022:	e7cf      	b.n	8007fc4 <_puts_r+0x30>
 8008024:	4622      	mov	r2, r4
 8008026:	4628      	mov	r0, r5
 8008028:	f000 f818 	bl	800805c <__swbuf_r>
 800802c:	3001      	adds	r0, #1
 800802e:	d1c9      	bne.n	8007fc4 <_puts_r+0x30>
 8008030:	e7e9      	b.n	8008006 <_puts_r+0x72>
 8008032:	6823      	ldr	r3, [r4, #0]
 8008034:	200a      	movs	r0, #10
 8008036:	1c5a      	adds	r2, r3, #1
 8008038:	6022      	str	r2, [r4, #0]
 800803a:	7018      	strb	r0, [r3, #0]
 800803c:	e7e5      	b.n	800800a <_puts_r+0x76>
 800803e:	bf00      	nop
 8008040:	0800a140 	.word	0x0800a140
 8008044:	0800a160 	.word	0x0800a160
 8008048:	0800a120 	.word	0x0800a120

0800804c <puts>:
 800804c:	4b02      	ldr	r3, [pc, #8]	; (8008058 <puts+0xc>)
 800804e:	4601      	mov	r1, r0
 8008050:	6818      	ldr	r0, [r3, #0]
 8008052:	f7ff bf9f 	b.w	8007f94 <_puts_r>
 8008056:	bf00      	nop
 8008058:	20000010 	.word	0x20000010

0800805c <__swbuf_r>:
 800805c:	b5f8      	push	{r3, r4, r5, r6, r7, lr}
 800805e:	460e      	mov	r6, r1
 8008060:	4614      	mov	r4, r2
 8008062:	4605      	mov	r5, r0
 8008064:	b118      	cbz	r0, 800806e <__swbuf_r+0x12>
 8008066:	6983      	ldr	r3, [r0, #24]
 8008068:	b90b      	cbnz	r3, 800806e <__swbuf_r+0x12>
 800806a:	f000 f9a7 	bl	80083bc <__sinit>
 800806e:	4b21      	ldr	r3, [pc, #132]	; (80080f4 <__swbuf_r+0x98>)
 8008070:	429c      	cmp	r4, r3
 8008072:	d12a      	bne.n	80080ca <__swbuf_r+0x6e>
 8008074:	686c      	ldr	r4, [r5, #4]
 8008076:	69a3      	ldr	r3, [r4, #24]
 8008078:	60a3      	str	r3, [r4, #8]
 800807a:	89a3      	ldrh	r3, [r4, #12]
 800807c:	071a      	lsls	r2, r3, #28
 800807e:	d52e      	bpl.n	80080de <__swbuf_r+0x82>
 8008080:	6923      	ldr	r3, [r4, #16]
 8008082:	b363      	cbz	r3, 80080de <__swbuf_r+0x82>
 8008084:	6923      	ldr	r3, [r4, #16]
 8008086:	6820      	ldr	r0, [r4, #0]
 8008088:	1ac0      	subs	r0, r0, r3
 800808a:	6963      	ldr	r3, [r4, #20]
 800808c:	b2f6      	uxtb	r6, r6
 800808e:	4283      	cmp	r3, r0
 8008090:	4637      	mov	r7, r6
 8008092:	dc04      	bgt.n	800809e <__swbuf_r+0x42>
 8008094:	4621      	mov	r1, r4
 8008096:	4628      	mov	r0, r5
 8008098:	f000 f926 	bl	80082e8 <_fflush_r>
 800809c:	bb28      	cbnz	r0, 80080ea <__swbuf_r+0x8e>
 800809e:	68a3      	ldr	r3, [r4, #8]
 80080a0:	3b01      	subs	r3, #1
 80080a2:	60a3      	str	r3, [r4, #8]
 80080a4:	6823      	ldr	r3, [r4, #0]
 80080a6:	1c5a      	adds	r2, r3, #1
 80080a8:	6022      	str	r2, [r4, #0]
 80080aa:	701e      	strb	r6, [r3, #0]
 80080ac:	6963      	ldr	r3, [r4, #20]
 80080ae:	3001      	adds	r0, #1
 80080b0:	4283      	cmp	r3, r0
 80080b2:	d004      	beq.n	80080be <__swbuf_r+0x62>
 80080b4:	89a3      	ldrh	r3, [r4, #12]
 80080b6:	07db      	lsls	r3, r3, #31
 80080b8:	d519      	bpl.n	80080ee <__swbuf_r+0x92>
 80080ba:	2e0a      	cmp	r6, #10
 80080bc:	d117      	bne.n	80080ee <__swbuf_r+0x92>
 80080be:	4621      	mov	r1, r4
 80080c0:	4628      	mov	r0, r5
 80080c2:	f000 f911 	bl	80082e8 <_fflush_r>
 80080c6:	b190      	cbz	r0, 80080ee <__swbuf_r+0x92>
 80080c8:	e00f      	b.n	80080ea <__swbuf_r+0x8e>
 80080ca:	4b0b      	ldr	r3, [pc, #44]	; (80080f8 <__swbuf_r+0x9c>)
 80080cc:	429c      	cmp	r4, r3
 80080ce:	d101      	bne.n	80080d4 <__swbuf_r+0x78>
 80080d0:	68ac      	ldr	r4, [r5, #8]
 80080d2:	e7d0      	b.n	8008076 <__swbuf_r+0x1a>
 80080d4:	4b09      	ldr	r3, [pc, #36]	; (80080fc <__swbuf_r+0xa0>)
 80080d6:	429c      	cmp	r4, r3
 80080d8:	bf08      	it	eq
 80080da:	68ec      	ldreq	r4, [r5, #12]
 80080dc:	e7cb      	b.n	8008076 <__swbuf_r+0x1a>
 80080de:	4621      	mov	r1, r4
 80080e0:	4628      	mov	r0, r5
 80080e2:	f000 f80d 	bl	8008100 <__swsetup_r>
 80080e6:	2800      	cmp	r0, #0
 80080e8:	d0cc      	beq.n	8008084 <__swbuf_r+0x28>
 80080ea:	f04f 37ff 	mov.w	r7, #4294967295
 80080ee:	4638      	mov	r0, r7
 80080f0:	bdf8      	pop	{r3, r4, r5, r6, r7, pc}
 80080f2:	bf00      	nop
 80080f4:	0800a140 	.word	0x0800a140
 80080f8:	0800a160 	.word	0x0800a160
 80080fc:	0800a120 	.word	0x0800a120

08008100 <__swsetup_r>:
 8008100:	4b32      	ldr	r3, [pc, #200]	; (80081cc <__swsetup_r+0xcc>)
 8008102:	b570      	push	{r4, r5, r6, lr}
 8008104:	681d      	ldr	r5, [r3, #0]
 8008106:	4606      	mov	r6, r0
 8008108:	460c      	mov	r4, r1
 800810a:	b125      	cbz	r5, 8008116 <__swsetup_r+0x16>
 800810c:	69ab      	ldr	r3, [r5, #24]
 800810e:	b913      	cbnz	r3, 8008116 <__swsetup_r+0x16>
 8008110:	4628      	mov	r0, r5
 8008112:	f000 f953 	bl	80083bc <__sinit>
 8008116:	4b2e      	ldr	r3, [pc, #184]	; (80081d0 <__swsetup_r+0xd0>)
 8008118:	429c      	cmp	r4, r3
 800811a:	d10f      	bne.n	800813c <__swsetup_r+0x3c>
 800811c:	686c      	ldr	r4, [r5, #4]
 800811e:	f9b4 300c 	ldrsh.w	r3, [r4, #12]
 8008122:	b29a      	uxth	r2, r3
 8008124:	0715      	lsls	r5, r2, #28
 8008126:	d42c      	bmi.n	8008182 <__swsetup_r+0x82>
 8008128:	06d0      	lsls	r0, r2, #27
 800812a:	d411      	bmi.n	8008150 <__swsetup_r+0x50>
 800812c:	2209      	movs	r2, #9
 800812e:	6032      	str	r2, [r6, #0]
 8008130:	f043 0340 	orr.w	r3, r3, #64	; 0x40
 8008134:	81a3      	strh	r3, [r4, #12]
 8008136:	f04f 30ff 	mov.w	r0, #4294967295
 800813a:	e03e      	b.n	80081ba <__swsetup_r+0xba>
 800813c:	4b25      	ldr	r3, [pc, #148]	; (80081d4 <__swsetup_r+0xd4>)
 800813e:	429c      	cmp	r4, r3
 8008140:	d101      	bne.n	8008146 <__swsetup_r+0x46>
 8008142:	68ac      	ldr	r4, [r5, #8]
 8008144:	e7eb      	b.n	800811e <__swsetup_r+0x1e>
 8008146:	4b24      	ldr	r3, [pc, #144]	; (80081d8 <__swsetup_r+0xd8>)
 8008148:	429c      	cmp	r4, r3
 800814a:	bf08      	it	eq
 800814c:	68ec      	ldreq	r4, [r5, #12]
 800814e:	e7e6      	b.n	800811e <__swsetup_r+0x1e>
 8008150:	0751      	lsls	r1, r2, #29
 8008152:	d512      	bpl.n	800817a <__swsetup_r+0x7a>
 8008154:	6b61      	ldr	r1, [r4, #52]	; 0x34
 8008156:	b141      	cbz	r1, 800816a <__swsetup_r+0x6a>
 8008158:	f104 0344 	add.w	r3, r4, #68	; 0x44
 800815c:	4299      	cmp	r1, r3
 800815e:	d002      	beq.n	8008166 <__swsetup_r+0x66>
 8008160:	4630      	mov	r0, r6
 8008162:	f000 fa19 	bl	8008598 <_free_r>
 8008166:	2300      	movs	r3, #0
 8008168:	6363      	str	r3, [r4, #52]	; 0x34
 800816a:	89a3      	ldrh	r3, [r4, #12]
 800816c:	f023 0324 	bic.w	r3, r3, #36	; 0x24
 8008170:	81a3      	strh	r3, [r4, #12]
 8008172:	2300      	movs	r3, #0
 8008174:	6063      	str	r3, [r4, #4]
 8008176:	6923      	ldr	r3, [r4, #16]
 8008178:	6023      	str	r3, [r4, #0]
 800817a:	89a3      	ldrh	r3, [r4, #12]
 800817c:	f043 0308 	orr.w	r3, r3, #8
 8008180:	81a3      	strh	r3, [r4, #12]
 8008182:	6923      	ldr	r3, [r4, #16]
 8008184:	b94b      	cbnz	r3, 800819a <__swsetup_r+0x9a>
 8008186:	89a3      	ldrh	r3, [r4, #12]
 8008188:	f403 7320 	and.w	r3, r3, #640	; 0x280
 800818c:	f5b3 7f00 	cmp.w	r3, #512	; 0x200
 8008190:	d003      	beq.n	800819a <__swsetup_r+0x9a>
 8008192:	4621      	mov	r1, r4
 8008194:	4630      	mov	r0, r6
 8008196:	f000 f9bf 	bl	8008518 <__smakebuf_r>
 800819a:	89a2      	ldrh	r2, [r4, #12]
 800819c:	f012 0301 	ands.w	r3, r2, #1
 80081a0:	d00c      	beq.n	80081bc <__swsetup_r+0xbc>
 80081a2:	2300      	movs	r3, #0
 80081a4:	60a3      	str	r3, [r4, #8]
 80081a6:	6963      	ldr	r3, [r4, #20]
 80081a8:	425b      	negs	r3, r3
 80081aa:	61a3      	str	r3, [r4, #24]
 80081ac:	6923      	ldr	r3, [r4, #16]
 80081ae:	b953      	cbnz	r3, 80081c6 <__swsetup_r+0xc6>
 80081b0:	f9b4 300c 	ldrsh.w	r3, [r4, #12]
 80081b4:	f013 0080 	ands.w	r0, r3, #128	; 0x80
 80081b8:	d1ba      	bne.n	8008130 <__swsetup_r+0x30>
 80081ba:	bd70      	pop	{r4, r5, r6, pc}
 80081bc:	0792      	lsls	r2, r2, #30
 80081be:	bf58      	it	pl
 80081c0:	6963      	ldrpl	r3, [r4, #20]
 80081c2:	60a3      	str	r3, [r4, #8]
 80081c4:	e7f2      	b.n	80081ac <__swsetup_r+0xac>
 80081c6:	2000      	movs	r0, #0
 80081c8:	e7f7      	b.n	80081ba <__swsetup_r+0xba>
 80081ca:	bf00      	nop
 80081cc:	20000010 	.word	0x20000010
 80081d0:	0800a140 	.word	0x0800a140
 80081d4:	0800a160 	.word	0x0800a160
 80081d8:	0800a120 	.word	0x0800a120

080081dc <__sflush_r>:
 80081dc:	898a      	ldrh	r2, [r1, #12]
 80081de:	e92d 41f0 	stmdb	sp!, {r4, r5, r6, r7, r8, lr}
 80081e2:	4605      	mov	r5, r0
 80081e4:	0710      	lsls	r0, r2, #28
 80081e6:	460c      	mov	r4, r1
 80081e8:	d458      	bmi.n	800829c <__sflush_r+0xc0>
 80081ea:	684b      	ldr	r3, [r1, #4]
 80081ec:	2b00      	cmp	r3, #0
 80081ee:	dc05      	bgt.n	80081fc <__sflush_r+0x20>
 80081f0:	6c0b      	ldr	r3, [r1, #64]	; 0x40
 80081f2:	2b00      	cmp	r3, #0
 80081f4:	dc02      	bgt.n	80081fc <__sflush_r+0x20>
 80081f6:	2000      	movs	r0, #0
 80081f8:	e8bd 81f0 	ldmia.w	sp!, {r4, r5, r6, r7, r8, pc}
 80081fc:	6ae6      	ldr	r6, [r4, #44]	; 0x2c
 80081fe:	2e00      	cmp	r6, #0
 8008200:	d0f9      	beq.n	80081f6 <__sflush_r+0x1a>
 8008202:	2300      	movs	r3, #0
 8008204:	f412 5280 	ands.w	r2, r2, #4096	; 0x1000
 8008208:	682f      	ldr	r7, [r5, #0]
 800820a:	6a21      	ldr	r1, [r4, #32]
 800820c:	602b      	str	r3, [r5, #0]
 800820e:	d032      	beq.n	8008276 <__sflush_r+0x9a>
 8008210:	6d60      	ldr	r0, [r4, #84]	; 0x54
 8008212:	89a3      	ldrh	r3, [r4, #12]
 8008214:	075a      	lsls	r2, r3, #29
 8008216:	d505      	bpl.n	8008224 <__sflush_r+0x48>
 8008218:	6863      	ldr	r3, [r4, #4]
 800821a:	1ac0      	subs	r0, r0, r3
 800821c:	6b63      	ldr	r3, [r4, #52]	; 0x34
 800821e:	b10b      	cbz	r3, 8008224 <__sflush_r+0x48>
 8008220:	6c23      	ldr	r3, [r4, #64]	; 0x40
 8008222:	1ac0      	subs	r0, r0, r3
 8008224:	2300      	movs	r3, #0
 8008226:	4602      	mov	r2, r0
 8008228:	6ae6      	ldr	r6, [r4, #44]	; 0x2c
 800822a:	6a21      	ldr	r1, [r4, #32]
 800822c:	4628      	mov	r0, r5
 800822e:	47b0      	blx	r6
 8008230:	1c43      	adds	r3, r0, #1
 8008232:	89a3      	ldrh	r3, [r4, #12]
 8008234:	d106      	bne.n	8008244 <__sflush_r+0x68>
 8008236:	6829      	ldr	r1, [r5, #0]
 8008238:	291d      	cmp	r1, #29
 800823a:	d848      	bhi.n	80082ce <__sflush_r+0xf2>
 800823c:	4a29      	ldr	r2, [pc, #164]	; (80082e4 <__sflush_r+0x108>)
 800823e:	40ca      	lsrs	r2, r1
 8008240:	07d6      	lsls	r6, r2, #31
 8008242:	d544      	bpl.n	80082ce <__sflush_r+0xf2>
 8008244:	2200      	movs	r2, #0
 8008246:	6062      	str	r2, [r4, #4]
 8008248:	04d9      	lsls	r1, r3, #19
 800824a:	6922      	ldr	r2, [r4, #16]
 800824c:	6022      	str	r2, [r4, #0]
 800824e:	d504      	bpl.n	800825a <__sflush_r+0x7e>
 8008250:	1c42      	adds	r2, r0, #1
 8008252:	d101      	bne.n	8008258 <__sflush_r+0x7c>
 8008254:	682b      	ldr	r3, [r5, #0]
 8008256:	b903      	cbnz	r3, 800825a <__sflush_r+0x7e>
 8008258:	6560      	str	r0, [r4, #84]	; 0x54
 800825a:	6b61      	ldr	r1, [r4, #52]	; 0x34
 800825c:	602f      	str	r7, [r5, #0]
 800825e:	2900      	cmp	r1, #0
 8008260:	d0c9      	beq.n	80081f6 <__sflush_r+0x1a>
 8008262:	f104 0344 	add.w	r3, r4, #68	; 0x44
 8008266:	4299      	cmp	r1, r3
 8008268:	d002      	beq.n	8008270 <__sflush_r+0x94>
 800826a:	4628      	mov	r0, r5
 800826c:	f000 f994 	bl	8008598 <_free_r>
 8008270:	2000      	movs	r0, #0
 8008272:	6360      	str	r0, [r4, #52]	; 0x34
 8008274:	e7c0      	b.n	80081f8 <__sflush_r+0x1c>
 8008276:	2301      	movs	r3, #1
 8008278:	4628      	mov	r0, r5
 800827a:	47b0      	blx	r6
 800827c:	1c41      	adds	r1, r0, #1
 800827e:	d1c8      	bne.n	8008212 <__sflush_r+0x36>
 8008280:	682b      	ldr	r3, [r5, #0]
 8008282:	2b00      	cmp	r3, #0
 8008284:	d0c5      	beq.n	8008212 <__sflush_r+0x36>
 8008286:	2b1d      	cmp	r3, #29
 8008288:	d001      	beq.n	800828e <__sflush_r+0xb2>
 800828a:	2b16      	cmp	r3, #22
 800828c:	d101      	bne.n	8008292 <__sflush_r+0xb6>
 800828e:	602f      	str	r7, [r5, #0]
 8008290:	e7b1      	b.n	80081f6 <__sflush_r+0x1a>
 8008292:	89a3      	ldrh	r3, [r4, #12]
 8008294:	f043 0340 	orr.w	r3, r3, #64	; 0x40
 8008298:	81a3      	strh	r3, [r4, #12]
 800829a:	e7ad      	b.n	80081f8 <__sflush_r+0x1c>
 800829c:	690f      	ldr	r7, [r1, #16]
 800829e:	2f00      	cmp	r7, #0
 80082a0:	d0a9      	beq.n	80081f6 <__sflush_r+0x1a>
 80082a2:	0793      	lsls	r3, r2, #30
 80082a4:	680e      	ldr	r6, [r1, #0]
 80082a6:	bf08      	it	eq
 80082a8:	694b      	ldreq	r3, [r1, #20]
 80082aa:	600f      	str	r7, [r1, #0]
 80082ac:	bf18      	it	ne
 80082ae:	2300      	movne	r3, #0
 80082b0:	eba6 0807 	sub.w	r8, r6, r7
 80082b4:	608b      	str	r3, [r1, #8]
 80082b6:	f1b8 0f00 	cmp.w	r8, #0
 80082ba:	dd9c      	ble.n	80081f6 <__sflush_r+0x1a>
 80082bc:	4643      	mov	r3, r8
 80082be:	463a      	mov	r2, r7
 80082c0:	6a21      	ldr	r1, [r4, #32]
 80082c2:	6aa6      	ldr	r6, [r4, #40]	; 0x28
 80082c4:	4628      	mov	r0, r5
 80082c6:	47b0      	blx	r6
 80082c8:	2800      	cmp	r0, #0
 80082ca:	dc06      	bgt.n	80082da <__sflush_r+0xfe>
 80082cc:	89a3      	ldrh	r3, [r4, #12]
 80082ce:	f043 0340 	orr.w	r3, r3, #64	; 0x40
 80082d2:	81a3      	strh	r3, [r4, #12]
 80082d4:	f04f 30ff 	mov.w	r0, #4294967295
 80082d8:	e78e      	b.n	80081f8 <__sflush_r+0x1c>
 80082da:	4407      	add	r7, r0
 80082dc:	eba8 0800 	sub.w	r8, r8, r0
 80082e0:	e7e9      	b.n	80082b6 <__sflush_r+0xda>
 80082e2:	bf00      	nop
 80082e4:	20400001 	.word	0x20400001

080082e8 <_fflush_r>:
 80082e8:	b538      	push	{r3, r4, r5, lr}
 80082ea:	690b      	ldr	r3, [r1, #16]
 80082ec:	4605      	mov	r5, r0
 80082ee:	460c      	mov	r4, r1
 80082f0:	b1db      	cbz	r3, 800832a <_fflush_r+0x42>
 80082f2:	b118      	cbz	r0, 80082fc <_fflush_r+0x14>
 80082f4:	6983      	ldr	r3, [r0, #24]
 80082f6:	b90b      	cbnz	r3, 80082fc <_fflush_r+0x14>
 80082f8:	f000 f860 	bl	80083bc <__sinit>
 80082fc:	4b0c      	ldr	r3, [pc, #48]	; (8008330 <_fflush_r+0x48>)
 80082fe:	429c      	cmp	r4, r3
 8008300:	d109      	bne.n	8008316 <_fflush_r+0x2e>
 8008302:	686c      	ldr	r4, [r5, #4]
 8008304:	f9b4 300c 	ldrsh.w	r3, [r4, #12]
 8008308:	b17b      	cbz	r3, 800832a <_fflush_r+0x42>
 800830a:	4621      	mov	r1, r4
 800830c:	4628      	mov	r0, r5
 800830e:	e8bd 4038 	ldmia.w	sp!, {r3, r4, r5, lr}
 8008312:	f7ff bf63 	b.w	80081dc <__sflush_r>
 8008316:	4b07      	ldr	r3, [pc, #28]	; (8008334 <_fflush_r+0x4c>)
 8008318:	429c      	cmp	r4, r3
 800831a:	d101      	bne.n	8008320 <_fflush_r+0x38>
 800831c:	68ac      	ldr	r4, [r5, #8]
 800831e:	e7f1      	b.n	8008304 <_fflush_r+0x1c>
 8008320:	4b05      	ldr	r3, [pc, #20]	; (8008338 <_fflush_r+0x50>)
 8008322:	429c      	cmp	r4, r3
 8008324:	bf08      	it	eq
 8008326:	68ec      	ldreq	r4, [r5, #12]
 8008328:	e7ec      	b.n	8008304 <_fflush_r+0x1c>
 800832a:	2000      	movs	r0, #0
 800832c:	bd38      	pop	{r3, r4, r5, pc}
 800832e:	bf00      	nop
 8008330:	0800a140 	.word	0x0800a140
 8008334:	0800a160 	.word	0x0800a160
 8008338:	0800a120 	.word	0x0800a120

0800833c <std>:
 800833c:	2300      	movs	r3, #0
 800833e:	b510      	push	{r4, lr}
 8008340:	4604      	mov	r4, r0
 8008342:	e9c0 3300 	strd	r3, r3, [r0]
 8008346:	6083      	str	r3, [r0, #8]
 8008348:	8181      	strh	r1, [r0, #12]
 800834a:	6643      	str	r3, [r0, #100]	; 0x64
 800834c:	81c2      	strh	r2, [r0, #14]
 800834e:	e9c0 3304 	strd	r3, r3, [r0, #16]
 8008352:	6183      	str	r3, [r0, #24]
 8008354:	4619      	mov	r1, r3
 8008356:	2208      	movs	r2, #8
 8008358:	305c      	adds	r0, #92	; 0x5c
 800835a:	f7ff fdfb 	bl	8007f54 <memset>
 800835e:	4b05      	ldr	r3, [pc, #20]	; (8008374 <std+0x38>)
 8008360:	6263      	str	r3, [r4, #36]	; 0x24
 8008362:	4b05      	ldr	r3, [pc, #20]	; (8008378 <std+0x3c>)
 8008364:	62a3      	str	r3, [r4, #40]	; 0x28
 8008366:	4b05      	ldr	r3, [pc, #20]	; (800837c <std+0x40>)
 8008368:	62e3      	str	r3, [r4, #44]	; 0x2c
 800836a:	4b05      	ldr	r3, [pc, #20]	; (8008380 <std+0x44>)
 800836c:	6224      	str	r4, [r4, #32]
 800836e:	6323      	str	r3, [r4, #48]	; 0x30
 8008370:	bd10      	pop	{r4, pc}
 8008372:	bf00      	nop
 8008374:	08008c99 	.word	0x08008c99
 8008378:	08008cbb 	.word	0x08008cbb
 800837c:	08008cf3 	.word	0x08008cf3
 8008380:	08008d17 	.word	0x08008d17

08008384 <_cleanup_r>:
 8008384:	4901      	ldr	r1, [pc, #4]	; (800838c <_cleanup_r+0x8>)
 8008386:	f000 b885 	b.w	8008494 <_fwalk_reent>
 800838a:	bf00      	nop
 800838c:	080082e9 	.word	0x080082e9

08008390 <__sfmoreglue>:
 8008390:	b570      	push	{r4, r5, r6, lr}
 8008392:	1e4a      	subs	r2, r1, #1
 8008394:	2568      	movs	r5, #104	; 0x68
 8008396:	4355      	muls	r5, r2
 8008398:	460e      	mov	r6, r1
 800839a:	f105 0174 	add.w	r1, r5, #116	; 0x74
 800839e:	f000 f949 	bl	8008634 <_malloc_r>
 80083a2:	4604      	mov	r4, r0
 80083a4:	b140      	cbz	r0, 80083b8 <__sfmoreglue+0x28>
 80083a6:	2100      	movs	r1, #0
 80083a8:	e9c0 1600 	strd	r1, r6, [r0]
 80083ac:	300c      	adds	r0, #12
 80083ae:	60a0      	str	r0, [r4, #8]
 80083b0:	f105 0268 	add.w	r2, r5, #104	; 0x68
 80083b4:	f7ff fdce 	bl	8007f54 <memset>
 80083b8:	4620      	mov	r0, r4
 80083ba:	bd70      	pop	{r4, r5, r6, pc}

080083bc <__sinit>:
 80083bc:	6983      	ldr	r3, [r0, #24]
 80083be:	b510      	push	{r4, lr}
 80083c0:	4604      	mov	r4, r0
 80083c2:	bb33      	cbnz	r3, 8008412 <__sinit+0x56>
 80083c4:	e9c0 3312 	strd	r3, r3, [r0, #72]	; 0x48
 80083c8:	6503      	str	r3, [r0, #80]	; 0x50
 80083ca:	4b12      	ldr	r3, [pc, #72]	; (8008414 <__sinit+0x58>)
 80083cc:	4a12      	ldr	r2, [pc, #72]	; (8008418 <__sinit+0x5c>)
 80083ce:	681b      	ldr	r3, [r3, #0]
 80083d0:	6282      	str	r2, [r0, #40]	; 0x28
 80083d2:	4298      	cmp	r0, r3
 80083d4:	bf04      	itt	eq
 80083d6:	2301      	moveq	r3, #1
 80083d8:	6183      	streq	r3, [r0, #24]
 80083da:	f000 f81f 	bl	800841c <__sfp>
 80083de:	6060      	str	r0, [r4, #4]
 80083e0:	4620      	mov	r0, r4
 80083e2:	f000 f81b 	bl	800841c <__sfp>
 80083e6:	60a0      	str	r0, [r4, #8]
 80083e8:	4620      	mov	r0, r4
 80083ea:	f000 f817 	bl	800841c <__sfp>
 80083ee:	2200      	movs	r2, #0
 80083f0:	60e0      	str	r0, [r4, #12]
 80083f2:	2104      	movs	r1, #4
 80083f4:	6860      	ldr	r0, [r4, #4]
 80083f6:	f7ff ffa1 	bl	800833c <std>
 80083fa:	2201      	movs	r2, #1
 80083fc:	2109      	movs	r1, #9
 80083fe:	68a0      	ldr	r0, [r4, #8]
 8008400:	f7ff ff9c 	bl	800833c <std>
 8008404:	2202      	movs	r2, #2
 8008406:	2112      	movs	r1, #18
 8008408:	68e0      	ldr	r0, [r4, #12]
 800840a:	f7ff ff97 	bl	800833c <std>
 800840e:	2301      	movs	r3, #1
 8008410:	61a3      	str	r3, [r4, #24]
 8008412:	bd10      	pop	{r4, pc}
 8008414:	0800a11c 	.word	0x0800a11c
 8008418:	08008385 	.word	0x08008385

0800841c <__sfp>:
 800841c:	b5f8      	push	{r3, r4, r5, r6, r7, lr}
 800841e:	4b1b      	ldr	r3, [pc, #108]	; (800848c <__sfp+0x70>)
 8008420:	681e      	ldr	r6, [r3, #0]
 8008422:	69b3      	ldr	r3, [r6, #24]
 8008424:	4607      	mov	r7, r0
 8008426:	b913      	cbnz	r3, 800842e <__sfp+0x12>
 8008428:	4630      	mov	r0, r6
 800842a:	f7ff ffc7 	bl	80083bc <__sinit>
 800842e:	3648      	adds	r6, #72	; 0x48
 8008430:	e9d6 3401 	ldrd	r3, r4, [r6, #4]
 8008434:	3b01      	subs	r3, #1
 8008436:	d503      	bpl.n	8008440 <__sfp+0x24>
 8008438:	6833      	ldr	r3, [r6, #0]
 800843a:	b133      	cbz	r3, 800844a <__sfp+0x2e>
 800843c:	6836      	ldr	r6, [r6, #0]
 800843e:	e7f7      	b.n	8008430 <__sfp+0x14>
 8008440:	f9b4 500c 	ldrsh.w	r5, [r4, #12]
 8008444:	b16d      	cbz	r5, 8008462 <__sfp+0x46>
 8008446:	3468      	adds	r4, #104	; 0x68
 8008448:	e7f4      	b.n	8008434 <__sfp+0x18>
 800844a:	2104      	movs	r1, #4
 800844c:	4638      	mov	r0, r7
 800844e:	f7ff ff9f 	bl	8008390 <__sfmoreglue>
 8008452:	6030      	str	r0, [r6, #0]
 8008454:	2800      	cmp	r0, #0
 8008456:	d1f1      	bne.n	800843c <__sfp+0x20>
 8008458:	230c      	movs	r3, #12
 800845a:	603b      	str	r3, [r7, #0]
 800845c:	4604      	mov	r4, r0
 800845e:	4620      	mov	r0, r4
 8008460:	bdf8      	pop	{r3, r4, r5, r6, r7, pc}
 8008462:	4b0b      	ldr	r3, [pc, #44]	; (8008490 <__sfp+0x74>)
 8008464:	6665      	str	r5, [r4, #100]	; 0x64
 8008466:	e9c4 5500 	strd	r5, r5, [r4]
 800846a:	60a5      	str	r5, [r4, #8]
 800846c:	e9c4 3503 	strd	r3, r5, [r4, #12]
 8008470:	e9c4 5505 	strd	r5, r5, [r4, #20]
 8008474:	2208      	movs	r2, #8
 8008476:	4629      	mov	r1, r5
 8008478:	f104 005c 	add.w	r0, r4, #92	; 0x5c
 800847c:	f7ff fd6a 	bl	8007f54 <memset>
 8008480:	e9c4 550d 	strd	r5, r5, [r4, #52]	; 0x34
 8008484:	e9c4 5512 	strd	r5, r5, [r4, #72]	; 0x48
 8008488:	e7e9      	b.n	800845e <__sfp+0x42>
 800848a:	bf00      	nop
 800848c:	0800a11c 	.word	0x0800a11c
 8008490:	ffff0001 	.word	0xffff0001

08008494 <_fwalk_reent>:
 8008494:	e92d 43f8 	stmdb	sp!, {r3, r4, r5, r6, r7, r8, r9, lr}
 8008498:	4680      	mov	r8, r0
 800849a:	4689      	mov	r9, r1
 800849c:	f100 0448 	add.w	r4, r0, #72	; 0x48
 80084a0:	2600      	movs	r6, #0
 80084a2:	b914      	cbnz	r4, 80084aa <_fwalk_reent+0x16>
 80084a4:	4630      	mov	r0, r6
 80084a6:	e8bd 83f8 	ldmia.w	sp!, {r3, r4, r5, r6, r7, r8, r9, pc}
 80084aa:	e9d4 7501 	ldrd	r7, r5, [r4, #4]
 80084ae:	3f01      	subs	r7, #1
 80084b0:	d501      	bpl.n	80084b6 <_fwalk_reent+0x22>
 80084b2:	6824      	ldr	r4, [r4, #0]
 80084b4:	e7f5      	b.n	80084a2 <_fwalk_reent+0xe>
 80084b6:	89ab      	ldrh	r3, [r5, #12]
 80084b8:	2b01      	cmp	r3, #1
 80084ba:	d907      	bls.n	80084cc <_fwalk_reent+0x38>
 80084bc:	f9b5 300e 	ldrsh.w	r3, [r5, #14]
 80084c0:	3301      	adds	r3, #1
 80084c2:	d003      	beq.n	80084cc <_fwalk_reent+0x38>
 80084c4:	4629      	mov	r1, r5
 80084c6:	4640      	mov	r0, r8
 80084c8:	47c8      	blx	r9
 80084ca:	4306      	orrs	r6, r0
 80084cc:	3568      	adds	r5, #104	; 0x68
 80084ce:	e7ee      	b.n	80084ae <_fwalk_reent+0x1a>

080084d0 <__swhatbuf_r>:
 80084d0:	b570      	push	{r4, r5, r6, lr}
 80084d2:	460e      	mov	r6, r1
 80084d4:	f9b1 100e 	ldrsh.w	r1, [r1, #14]
 80084d8:	2900      	cmp	r1, #0
 80084da:	b096      	sub	sp, #88	; 0x58
 80084dc:	4614      	mov	r4, r2
 80084de:	461d      	mov	r5, r3
 80084e0:	da07      	bge.n	80084f2 <__swhatbuf_r+0x22>
 80084e2:	2300      	movs	r3, #0
 80084e4:	602b      	str	r3, [r5, #0]
 80084e6:	89b3      	ldrh	r3, [r6, #12]
 80084e8:	061a      	lsls	r2, r3, #24
 80084ea:	d410      	bmi.n	800850e <__swhatbuf_r+0x3e>
 80084ec:	f44f 6380 	mov.w	r3, #1024	; 0x400
 80084f0:	e00e      	b.n	8008510 <__swhatbuf_r+0x40>
 80084f2:	466a      	mov	r2, sp
 80084f4:	f000 fc36 	bl	8008d64 <_fstat_r>
 80084f8:	2800      	cmp	r0, #0
 80084fa:	dbf2      	blt.n	80084e2 <__swhatbuf_r+0x12>
 80084fc:	9a01      	ldr	r2, [sp, #4]
 80084fe:	f402 4270 	and.w	r2, r2, #61440	; 0xf000
 8008502:	f5a2 5300 	sub.w	r3, r2, #8192	; 0x2000
 8008506:	425a      	negs	r2, r3
 8008508:	415a      	adcs	r2, r3
 800850a:	602a      	str	r2, [r5, #0]
 800850c:	e7ee      	b.n	80084ec <__swhatbuf_r+0x1c>
 800850e:	2340      	movs	r3, #64	; 0x40
 8008510:	2000      	movs	r0, #0
 8008512:	6023      	str	r3, [r4, #0]
 8008514:	b016      	add	sp, #88	; 0x58
 8008516:	bd70      	pop	{r4, r5, r6, pc}

08008518 <__smakebuf_r>:
 8008518:	898b      	ldrh	r3, [r1, #12]
 800851a:	b573      	push	{r0, r1, r4, r5, r6, lr}
 800851c:	079d      	lsls	r5, r3, #30
 800851e:	4606      	mov	r6, r0
 8008520:	460c      	mov	r4, r1
 8008522:	d507      	bpl.n	8008534 <__smakebuf_r+0x1c>
 8008524:	f104 0347 	add.w	r3, r4, #71	; 0x47
 8008528:	6023      	str	r3, [r4, #0]
 800852a:	6123      	str	r3, [r4, #16]
 800852c:	2301      	movs	r3, #1
 800852e:	6163      	str	r3, [r4, #20]
 8008530:	b002      	add	sp, #8
 8008532:	bd70      	pop	{r4, r5, r6, pc}
 8008534:	ab01      	add	r3, sp, #4
 8008536:	466a      	mov	r2, sp
 8008538:	f7ff ffca 	bl	80084d0 <__swhatbuf_r>
 800853c:	9900      	ldr	r1, [sp, #0]
 800853e:	4605      	mov	r5, r0
 8008540:	4630      	mov	r0, r6
 8008542:	f000 f877 	bl	8008634 <_malloc_r>
 8008546:	b948      	cbnz	r0, 800855c <__smakebuf_r+0x44>
 8008548:	f9b4 300c 	ldrsh.w	r3, [r4, #12]
 800854c:	059a      	lsls	r2, r3, #22
 800854e:	d4ef      	bmi.n	8008530 <__smakebuf_r+0x18>
 8008550:	f023 0303 	bic.w	r3, r3, #3
 8008554:	f043 0302 	orr.w	r3, r3, #2
 8008558:	81a3      	strh	r3, [r4, #12]
 800855a:	e7e3      	b.n	8008524 <__smakebuf_r+0xc>
 800855c:	4b0d      	ldr	r3, [pc, #52]	; (8008594 <__smakebuf_r+0x7c>)
 800855e:	62b3      	str	r3, [r6, #40]	; 0x28
 8008560:	89a3      	ldrh	r3, [r4, #12]
 8008562:	6020      	str	r0, [r4, #0]
 8008564:	f043 0380 	orr.w	r3, r3, #128	; 0x80
 8008568:	81a3      	strh	r3, [r4, #12]
 800856a:	9b00      	ldr	r3, [sp, #0]
 800856c:	6163      	str	r3, [r4, #20]
 800856e:	9b01      	ldr	r3, [sp, #4]
 8008570:	6120      	str	r0, [r4, #16]
 8008572:	b15b      	cbz	r3, 800858c <__smakebuf_r+0x74>
 8008574:	f9b4 100e 	ldrsh.w	r1, [r4, #14]
 8008578:	4630      	mov	r0, r6
 800857a:	f000 fc05 	bl	8008d88 <_isatty_r>
 800857e:	b128      	cbz	r0, 800858c <__smakebuf_r+0x74>
 8008580:	89a3      	ldrh	r3, [r4, #12]
 8008582:	f023 0303 	bic.w	r3, r3, #3
 8008586:	f043 0301 	orr.w	r3, r3, #1
 800858a:	81a3      	strh	r3, [r4, #12]
 800858c:	89a3      	ldrh	r3, [r4, #12]
 800858e:	431d      	orrs	r5, r3
 8008590:	81a5      	strh	r5, [r4, #12]
 8008592:	e7cd      	b.n	8008530 <__smakebuf_r+0x18>
 8008594:	08008385 	.word	0x08008385

08008598 <_free_r>:
 8008598:	b538      	push	{r3, r4, r5, lr}
 800859a:	4605      	mov	r5, r0
 800859c:	2900      	cmp	r1, #0
 800859e:	d045      	beq.n	800862c <_free_r+0x94>
 80085a0:	f851 3c04 	ldr.w	r3, [r1, #-4]
 80085a4:	1f0c      	subs	r4, r1, #4
 80085a6:	2b00      	cmp	r3, #0
 80085a8:	bfb8      	it	lt
 80085aa:	18e4      	addlt	r4, r4, r3
 80085ac:	f000 fc0e 	bl	8008dcc <__malloc_lock>
 80085b0:	4a1f      	ldr	r2, [pc, #124]	; (8008630 <_free_r+0x98>)
 80085b2:	6813      	ldr	r3, [r2, #0]
 80085b4:	4610      	mov	r0, r2
 80085b6:	b933      	cbnz	r3, 80085c6 <_free_r+0x2e>
 80085b8:	6063      	str	r3, [r4, #4]
 80085ba:	6014      	str	r4, [r2, #0]
 80085bc:	4628      	mov	r0, r5
 80085be:	e8bd 4038 	ldmia.w	sp!, {r3, r4, r5, lr}
 80085c2:	f000 bc04 	b.w	8008dce <__malloc_unlock>
 80085c6:	42a3      	cmp	r3, r4
 80085c8:	d90c      	bls.n	80085e4 <_free_r+0x4c>
 80085ca:	6821      	ldr	r1, [r4, #0]
 80085cc:	1862      	adds	r2, r4, r1
 80085ce:	4293      	cmp	r3, r2
 80085d0:	bf04      	itt	eq
 80085d2:	681a      	ldreq	r2, [r3, #0]
 80085d4:	685b      	ldreq	r3, [r3, #4]
 80085d6:	6063      	str	r3, [r4, #4]
 80085d8:	bf04      	itt	eq
 80085da:	1852      	addeq	r2, r2, r1
 80085dc:	6022      	streq	r2, [r4, #0]
 80085de:	6004      	str	r4, [r0, #0]
 80085e0:	e7ec      	b.n	80085bc <_free_r+0x24>
 80085e2:	4613      	mov	r3, r2
 80085e4:	685a      	ldr	r2, [r3, #4]
 80085e6:	b10a      	cbz	r2, 80085ec <_free_r+0x54>
 80085e8:	42a2      	cmp	r2, r4
 80085ea:	d9fa      	bls.n	80085e2 <_free_r+0x4a>
 80085ec:	6819      	ldr	r1, [r3, #0]
 80085ee:	1858      	adds	r0, r3, r1
 80085f0:	42a0      	cmp	r0, r4
 80085f2:	d10b      	bne.n	800860c <_free_r+0x74>
 80085f4:	6820      	ldr	r0, [r4, #0]
 80085f6:	4401      	add	r1, r0
 80085f8:	1858      	adds	r0, r3, r1
 80085fa:	4282      	cmp	r2, r0
 80085fc:	6019      	str	r1, [r3, #0]
 80085fe:	d1dd      	bne.n	80085bc <_free_r+0x24>
 8008600:	6810      	ldr	r0, [r2, #0]
 8008602:	6852      	ldr	r2, [r2, #4]
 8008604:	605a      	str	r2, [r3, #4]
 8008606:	4401      	add	r1, r0
 8008608:	6019      	str	r1, [r3, #0]
 800860a:	e7d7      	b.n	80085bc <_free_r+0x24>
 800860c:	d902      	bls.n	8008614 <_free_r+0x7c>
 800860e:	230c      	movs	r3, #12
 8008610:	602b      	str	r3, [r5, #0]
 8008612:	e7d3      	b.n	80085bc <_free_r+0x24>
 8008614:	6820      	ldr	r0, [r4, #0]
 8008616:	1821      	adds	r1, r4, r0
 8008618:	428a      	cmp	r2, r1
 800861a:	bf04      	itt	eq
 800861c:	6811      	ldreq	r1, [r2, #0]
 800861e:	6852      	ldreq	r2, [r2, #4]
 8008620:	6062      	str	r2, [r4, #4]
 8008622:	bf04      	itt	eq
 8008624:	1809      	addeq	r1, r1, r0
 8008626:	6021      	streq	r1, [r4, #0]
 8008628:	605c      	str	r4, [r3, #4]
 800862a:	e7c7      	b.n	80085bc <_free_r+0x24>
 800862c:	bd38      	pop	{r3, r4, r5, pc}
 800862e:	bf00      	nop
 8008630:	2000403c 	.word	0x2000403c

08008634 <_malloc_r>:
 8008634:	b570      	push	{r4, r5, r6, lr}
 8008636:	1ccd      	adds	r5, r1, #3
 8008638:	f025 0503 	bic.w	r5, r5, #3
 800863c:	3508      	adds	r5, #8
 800863e:	2d0c      	cmp	r5, #12
 8008640:	bf38      	it	cc
 8008642:	250c      	movcc	r5, #12
 8008644:	2d00      	cmp	r5, #0
 8008646:	4606      	mov	r6, r0
 8008648:	db01      	blt.n	800864e <_malloc_r+0x1a>
 800864a:	42a9      	cmp	r1, r5
 800864c:	d903      	bls.n	8008656 <_malloc_r+0x22>
 800864e:	230c      	movs	r3, #12
 8008650:	6033      	str	r3, [r6, #0]
 8008652:	2000      	movs	r0, #0
 8008654:	bd70      	pop	{r4, r5, r6, pc}
 8008656:	f000 fbb9 	bl	8008dcc <__malloc_lock>
 800865a:	4a21      	ldr	r2, [pc, #132]	; (80086e0 <_malloc_r+0xac>)
 800865c:	6814      	ldr	r4, [r2, #0]
 800865e:	4621      	mov	r1, r4
 8008660:	b991      	cbnz	r1, 8008688 <_malloc_r+0x54>
 8008662:	4c20      	ldr	r4, [pc, #128]	; (80086e4 <_malloc_r+0xb0>)
 8008664:	6823      	ldr	r3, [r4, #0]
 8008666:	b91b      	cbnz	r3, 8008670 <_malloc_r+0x3c>
 8008668:	4630      	mov	r0, r6
 800866a:	f000 fb05 	bl	8008c78 <_sbrk_r>
 800866e:	6020      	str	r0, [r4, #0]
 8008670:	4629      	mov	r1, r5
 8008672:	4630      	mov	r0, r6
 8008674:	f000 fb00 	bl	8008c78 <_sbrk_r>
 8008678:	1c43      	adds	r3, r0, #1
 800867a:	d124      	bne.n	80086c6 <_malloc_r+0x92>
 800867c:	230c      	movs	r3, #12
 800867e:	6033      	str	r3, [r6, #0]
 8008680:	4630      	mov	r0, r6
 8008682:	f000 fba4 	bl	8008dce <__malloc_unlock>
 8008686:	e7e4      	b.n	8008652 <_malloc_r+0x1e>
 8008688:	680b      	ldr	r3, [r1, #0]
 800868a:	1b5b      	subs	r3, r3, r5
 800868c:	d418      	bmi.n	80086c0 <_malloc_r+0x8c>
 800868e:	2b0b      	cmp	r3, #11
 8008690:	d90f      	bls.n	80086b2 <_malloc_r+0x7e>
 8008692:	600b      	str	r3, [r1, #0]
 8008694:	50cd      	str	r5, [r1, r3]
 8008696:	18cc      	adds	r4, r1, r3
 8008698:	4630      	mov	r0, r6
 800869a:	f000 fb98 	bl	8008dce <__malloc_unlock>
 800869e:	f104 000b 	add.w	r0, r4, #11
 80086a2:	1d23      	adds	r3, r4, #4
 80086a4:	f020 0007 	bic.w	r0, r0, #7
 80086a8:	1ac3      	subs	r3, r0, r3
 80086aa:	d0d3      	beq.n	8008654 <_malloc_r+0x20>
 80086ac:	425a      	negs	r2, r3
 80086ae:	50e2      	str	r2, [r4, r3]
 80086b0:	e7d0      	b.n	8008654 <_malloc_r+0x20>
 80086b2:	428c      	cmp	r4, r1
 80086b4:	684b      	ldr	r3, [r1, #4]
 80086b6:	bf16      	itet	ne
 80086b8:	6063      	strne	r3, [r4, #4]
 80086ba:	6013      	streq	r3, [r2, #0]
 80086bc:	460c      	movne	r4, r1
 80086be:	e7eb      	b.n	8008698 <_malloc_r+0x64>
 80086c0:	460c      	mov	r4, r1
 80086c2:	6849      	ldr	r1, [r1, #4]
 80086c4:	e7cc      	b.n	8008660 <_malloc_r+0x2c>
 80086c6:	1cc4      	adds	r4, r0, #3
 80086c8:	f024 0403 	bic.w	r4, r4, #3
 80086cc:	42a0      	cmp	r0, r4
 80086ce:	d005      	beq.n	80086dc <_malloc_r+0xa8>
 80086d0:	1a21      	subs	r1, r4, r0
 80086d2:	4630      	mov	r0, r6
 80086d4:	f000 fad0 	bl	8008c78 <_sbrk_r>
 80086d8:	3001      	adds	r0, #1
 80086da:	d0cf      	beq.n	800867c <_malloc_r+0x48>
 80086dc:	6025      	str	r5, [r4, #0]
 80086de:	e7db      	b.n	8008698 <_malloc_r+0x64>
 80086e0:	2000403c 	.word	0x2000403c
 80086e4:	20004040 	.word	0x20004040

080086e8 <__sfputc_r>:
 80086e8:	6893      	ldr	r3, [r2, #8]
 80086ea:	3b01      	subs	r3, #1
 80086ec:	2b00      	cmp	r3, #0
 80086ee:	b410      	push	{r4}
 80086f0:	6093      	str	r3, [r2, #8]
 80086f2:	da08      	bge.n	8008706 <__sfputc_r+0x1e>
 80086f4:	6994      	ldr	r4, [r2, #24]
 80086f6:	42a3      	cmp	r3, r4
 80086f8:	db01      	blt.n	80086fe <__sfputc_r+0x16>
 80086fa:	290a      	cmp	r1, #10
 80086fc:	d103      	bne.n	8008706 <__sfputc_r+0x1e>
 80086fe:	f85d 4b04 	ldr.w	r4, [sp], #4
 8008702:	f7ff bcab 	b.w	800805c <__swbuf_r>
 8008706:	6813      	ldr	r3, [r2, #0]
 8008708:	1c58      	adds	r0, r3, #1
 800870a:	6010      	str	r0, [r2, #0]
 800870c:	7019      	strb	r1, [r3, #0]
 800870e:	4608      	mov	r0, r1
 8008710:	f85d 4b04 	ldr.w	r4, [sp], #4
 8008714:	4770      	bx	lr

08008716 <__sfputs_r>:
 8008716:	b5f8      	push	{r3, r4, r5, r6, r7, lr}
 8008718:	4606      	mov	r6, r0
 800871a:	460f      	mov	r7, r1
 800871c:	4614      	mov	r4, r2
 800871e:	18d5      	adds	r5, r2, r3
 8008720:	42ac      	cmp	r4, r5
 8008722:	d101      	bne.n	8008728 <__sfputs_r+0x12>
 8008724:	2000      	movs	r0, #0
 8008726:	e007      	b.n	8008738 <__sfputs_r+0x22>
 8008728:	463a      	mov	r2, r7
 800872a:	f814 1b01 	ldrb.w	r1, [r4], #1
 800872e:	4630      	mov	r0, r6
 8008730:	f7ff ffda 	bl	80086e8 <__sfputc_r>
 8008734:	1c43      	adds	r3, r0, #1
 8008736:	d1f3      	bne.n	8008720 <__sfputs_r+0xa>
 8008738:	bdf8      	pop	{r3, r4, r5, r6, r7, pc}
	...

0800873c <_vfiprintf_r>:
 800873c:	e92d 4ff0 	stmdb	sp!, {r4, r5, r6, r7, r8, r9, sl, fp, lr}
 8008740:	460c      	mov	r4, r1
 8008742:	b09d      	sub	sp, #116	; 0x74
 8008744:	4617      	mov	r7, r2
 8008746:	461d      	mov	r5, r3
 8008748:	4606      	mov	r6, r0
 800874a:	b118      	cbz	r0, 8008754 <_vfiprintf_r+0x18>
 800874c:	6983      	ldr	r3, [r0, #24]
 800874e:	b90b      	cbnz	r3, 8008754 <_vfiprintf_r+0x18>
 8008750:	f7ff fe34 	bl	80083bc <__sinit>
 8008754:	4b7c      	ldr	r3, [pc, #496]	; (8008948 <_vfiprintf_r+0x20c>)
 8008756:	429c      	cmp	r4, r3
 8008758:	d158      	bne.n	800880c <_vfiprintf_r+0xd0>
 800875a:	6874      	ldr	r4, [r6, #4]
 800875c:	89a3      	ldrh	r3, [r4, #12]
 800875e:	0718      	lsls	r0, r3, #28
 8008760:	d55e      	bpl.n	8008820 <_vfiprintf_r+0xe4>
 8008762:	6923      	ldr	r3, [r4, #16]
 8008764:	2b00      	cmp	r3, #0
 8008766:	d05b      	beq.n	8008820 <_vfiprintf_r+0xe4>
 8008768:	2300      	movs	r3, #0
 800876a:	9309      	str	r3, [sp, #36]	; 0x24
 800876c:	2320      	movs	r3, #32
 800876e:	f88d 3029 	strb.w	r3, [sp, #41]	; 0x29
 8008772:	2330      	movs	r3, #48	; 0x30
 8008774:	f88d 302a 	strb.w	r3, [sp, #42]	; 0x2a
 8008778:	9503      	str	r5, [sp, #12]
 800877a:	f04f 0b01 	mov.w	fp, #1
 800877e:	46b8      	mov	r8, r7
 8008780:	4645      	mov	r5, r8
 8008782:	f815 3b01 	ldrb.w	r3, [r5], #1
 8008786:	b10b      	cbz	r3, 800878c <_vfiprintf_r+0x50>
 8008788:	2b25      	cmp	r3, #37	; 0x25
 800878a:	d154      	bne.n	8008836 <_vfiprintf_r+0xfa>
 800878c:	ebb8 0a07 	subs.w	sl, r8, r7
 8008790:	d00b      	beq.n	80087aa <_vfiprintf_r+0x6e>
 8008792:	4653      	mov	r3, sl
 8008794:	463a      	mov	r2, r7
 8008796:	4621      	mov	r1, r4
 8008798:	4630      	mov	r0, r6
 800879a:	f7ff ffbc 	bl	8008716 <__sfputs_r>
 800879e:	3001      	adds	r0, #1
 80087a0:	f000 80c2 	beq.w	8008928 <_vfiprintf_r+0x1ec>
 80087a4:	9b09      	ldr	r3, [sp, #36]	; 0x24
 80087a6:	4453      	add	r3, sl
 80087a8:	9309      	str	r3, [sp, #36]	; 0x24
 80087aa:	f898 3000 	ldrb.w	r3, [r8]
 80087ae:	2b00      	cmp	r3, #0
 80087b0:	f000 80ba 	beq.w	8008928 <_vfiprintf_r+0x1ec>
 80087b4:	2300      	movs	r3, #0
 80087b6:	f04f 32ff 	mov.w	r2, #4294967295
 80087ba:	e9cd 2305 	strd	r2, r3, [sp, #20]
 80087be:	9304      	str	r3, [sp, #16]
 80087c0:	9307      	str	r3, [sp, #28]
 80087c2:	f88d 3053 	strb.w	r3, [sp, #83]	; 0x53
 80087c6:	931a      	str	r3, [sp, #104]	; 0x68
 80087c8:	46a8      	mov	r8, r5
 80087ca:	2205      	movs	r2, #5
 80087cc:	f818 1b01 	ldrb.w	r1, [r8], #1
 80087d0:	485e      	ldr	r0, [pc, #376]	; (800894c <_vfiprintf_r+0x210>)
 80087d2:	f7f7 fd0d 	bl	80001f0 <memchr>
 80087d6:	9b04      	ldr	r3, [sp, #16]
 80087d8:	bb78      	cbnz	r0, 800883a <_vfiprintf_r+0xfe>
 80087da:	06d9      	lsls	r1, r3, #27
 80087dc:	bf44      	itt	mi
 80087de:	2220      	movmi	r2, #32
 80087e0:	f88d 2053 	strbmi.w	r2, [sp, #83]	; 0x53
 80087e4:	071a      	lsls	r2, r3, #28
 80087e6:	bf44      	itt	mi
 80087e8:	222b      	movmi	r2, #43	; 0x2b
 80087ea:	f88d 2053 	strbmi.w	r2, [sp, #83]	; 0x53
 80087ee:	782a      	ldrb	r2, [r5, #0]
 80087f0:	2a2a      	cmp	r2, #42	; 0x2a
 80087f2:	d02a      	beq.n	800884a <_vfiprintf_r+0x10e>
 80087f4:	9a07      	ldr	r2, [sp, #28]
 80087f6:	46a8      	mov	r8, r5
 80087f8:	2000      	movs	r0, #0
 80087fa:	250a      	movs	r5, #10
 80087fc:	4641      	mov	r1, r8
 80087fe:	f811 3b01 	ldrb.w	r3, [r1], #1
 8008802:	3b30      	subs	r3, #48	; 0x30
 8008804:	2b09      	cmp	r3, #9
 8008806:	d969      	bls.n	80088dc <_vfiprintf_r+0x1a0>
 8008808:	b360      	cbz	r0, 8008864 <_vfiprintf_r+0x128>
 800880a:	e024      	b.n	8008856 <_vfiprintf_r+0x11a>
 800880c:	4b50      	ldr	r3, [pc, #320]	; (8008950 <_vfiprintf_r+0x214>)
 800880e:	429c      	cmp	r4, r3
 8008810:	d101      	bne.n	8008816 <_vfiprintf_r+0xda>
 8008812:	68b4      	ldr	r4, [r6, #8]
 8008814:	e7a2      	b.n	800875c <_vfiprintf_r+0x20>
 8008816:	4b4f      	ldr	r3, [pc, #316]	; (8008954 <_vfiprintf_r+0x218>)
 8008818:	429c      	cmp	r4, r3
 800881a:	bf08      	it	eq
 800881c:	68f4      	ldreq	r4, [r6, #12]
 800881e:	e79d      	b.n	800875c <_vfiprintf_r+0x20>
 8008820:	4621      	mov	r1, r4
 8008822:	4630      	mov	r0, r6
 8008824:	f7ff fc6c 	bl	8008100 <__swsetup_r>
 8008828:	2800      	cmp	r0, #0
 800882a:	d09d      	beq.n	8008768 <_vfiprintf_r+0x2c>
 800882c:	f04f 30ff 	mov.w	r0, #4294967295
 8008830:	b01d      	add	sp, #116	; 0x74
 8008832:	e8bd 8ff0 	ldmia.w	sp!, {r4, r5, r6, r7, r8, r9, sl, fp, pc}
 8008836:	46a8      	mov	r8, r5
 8008838:	e7a2      	b.n	8008780 <_vfiprintf_r+0x44>
 800883a:	4a44      	ldr	r2, [pc, #272]	; (800894c <_vfiprintf_r+0x210>)
 800883c:	1a80      	subs	r0, r0, r2
 800883e:	fa0b f000 	lsl.w	r0, fp, r0
 8008842:	4318      	orrs	r0, r3
 8008844:	9004      	str	r0, [sp, #16]
 8008846:	4645      	mov	r5, r8
 8008848:	e7be      	b.n	80087c8 <_vfiprintf_r+0x8c>
 800884a:	9a03      	ldr	r2, [sp, #12]
 800884c:	1d11      	adds	r1, r2, #4
 800884e:	6812      	ldr	r2, [r2, #0]
 8008850:	9103      	str	r1, [sp, #12]
 8008852:	2a00      	cmp	r2, #0
 8008854:	db01      	blt.n	800885a <_vfiprintf_r+0x11e>
 8008856:	9207      	str	r2, [sp, #28]
 8008858:	e004      	b.n	8008864 <_vfiprintf_r+0x128>
 800885a:	4252      	negs	r2, r2
 800885c:	f043 0302 	orr.w	r3, r3, #2
 8008860:	9207      	str	r2, [sp, #28]
 8008862:	9304      	str	r3, [sp, #16]
 8008864:	f898 3000 	ldrb.w	r3, [r8]
 8008868:	2b2e      	cmp	r3, #46	; 0x2e
 800886a:	d10e      	bne.n	800888a <_vfiprintf_r+0x14e>
 800886c:	f898 3001 	ldrb.w	r3, [r8, #1]
 8008870:	2b2a      	cmp	r3, #42	; 0x2a
 8008872:	d138      	bne.n	80088e6 <_vfiprintf_r+0x1aa>
 8008874:	9b03      	ldr	r3, [sp, #12]
 8008876:	1d1a      	adds	r2, r3, #4
 8008878:	681b      	ldr	r3, [r3, #0]
 800887a:	9203      	str	r2, [sp, #12]
 800887c:	2b00      	cmp	r3, #0
 800887e:	bfb8      	it	lt
 8008880:	f04f 33ff 	movlt.w	r3, #4294967295
 8008884:	f108 0802 	add.w	r8, r8, #2
 8008888:	9305      	str	r3, [sp, #20]
 800888a:	4d33      	ldr	r5, [pc, #204]	; (8008958 <_vfiprintf_r+0x21c>)
 800888c:	f898 1000 	ldrb.w	r1, [r8]
 8008890:	2203      	movs	r2, #3
 8008892:	4628      	mov	r0, r5
 8008894:	f7f7 fcac 	bl	80001f0 <memchr>
 8008898:	b140      	cbz	r0, 80088ac <_vfiprintf_r+0x170>
 800889a:	2340      	movs	r3, #64	; 0x40
 800889c:	1b40      	subs	r0, r0, r5
 800889e:	fa03 f000 	lsl.w	r0, r3, r0
 80088a2:	9b04      	ldr	r3, [sp, #16]
 80088a4:	4303      	orrs	r3, r0
 80088a6:	f108 0801 	add.w	r8, r8, #1
 80088aa:	9304      	str	r3, [sp, #16]
 80088ac:	f898 1000 	ldrb.w	r1, [r8]
 80088b0:	482a      	ldr	r0, [pc, #168]	; (800895c <_vfiprintf_r+0x220>)
 80088b2:	f88d 1028 	strb.w	r1, [sp, #40]	; 0x28
 80088b6:	2206      	movs	r2, #6
 80088b8:	f108 0701 	add.w	r7, r8, #1
 80088bc:	f7f7 fc98 	bl	80001f0 <memchr>
 80088c0:	2800      	cmp	r0, #0
 80088c2:	d037      	beq.n	8008934 <_vfiprintf_r+0x1f8>
 80088c4:	4b26      	ldr	r3, [pc, #152]	; (8008960 <_vfiprintf_r+0x224>)
 80088c6:	bb1b      	cbnz	r3, 8008910 <_vfiprintf_r+0x1d4>
 80088c8:	9b03      	ldr	r3, [sp, #12]
 80088ca:	3307      	adds	r3, #7
 80088cc:	f023 0307 	bic.w	r3, r3, #7
 80088d0:	3308      	adds	r3, #8
 80088d2:	9303      	str	r3, [sp, #12]
 80088d4:	9b09      	ldr	r3, [sp, #36]	; 0x24
 80088d6:	444b      	add	r3, r9
 80088d8:	9309      	str	r3, [sp, #36]	; 0x24
 80088da:	e750      	b.n	800877e <_vfiprintf_r+0x42>
 80088dc:	fb05 3202 	mla	r2, r5, r2, r3
 80088e0:	2001      	movs	r0, #1
 80088e2:	4688      	mov	r8, r1
 80088e4:	e78a      	b.n	80087fc <_vfiprintf_r+0xc0>
 80088e6:	2300      	movs	r3, #0
 80088e8:	f108 0801 	add.w	r8, r8, #1
 80088ec:	9305      	str	r3, [sp, #20]
 80088ee:	4619      	mov	r1, r3
 80088f0:	250a      	movs	r5, #10
 80088f2:	4640      	mov	r0, r8
 80088f4:	f810 2b01 	ldrb.w	r2, [r0], #1
 80088f8:	3a30      	subs	r2, #48	; 0x30
 80088fa:	2a09      	cmp	r2, #9
 80088fc:	d903      	bls.n	8008906 <_vfiprintf_r+0x1ca>
 80088fe:	2b00      	cmp	r3, #0
 8008900:	d0c3      	beq.n	800888a <_vfiprintf_r+0x14e>
 8008902:	9105      	str	r1, [sp, #20]
 8008904:	e7c1      	b.n	800888a <_vfiprintf_r+0x14e>
 8008906:	fb05 2101 	mla	r1, r5, r1, r2
 800890a:	2301      	movs	r3, #1
 800890c:	4680      	mov	r8, r0
 800890e:	e7f0      	b.n	80088f2 <_vfiprintf_r+0x1b6>
 8008910:	ab03      	add	r3, sp, #12
 8008912:	9300      	str	r3, [sp, #0]
 8008914:	4622      	mov	r2, r4
 8008916:	4b13      	ldr	r3, [pc, #76]	; (8008964 <_vfiprintf_r+0x228>)
 8008918:	a904      	add	r1, sp, #16
 800891a:	4630      	mov	r0, r6
 800891c:	f3af 8000 	nop.w
 8008920:	f1b0 3fff 	cmp.w	r0, #4294967295
 8008924:	4681      	mov	r9, r0
 8008926:	d1d5      	bne.n	80088d4 <_vfiprintf_r+0x198>
 8008928:	89a3      	ldrh	r3, [r4, #12]
 800892a:	065b      	lsls	r3, r3, #25
 800892c:	f53f af7e 	bmi.w	800882c <_vfiprintf_r+0xf0>
 8008930:	9809      	ldr	r0, [sp, #36]	; 0x24
 8008932:	e77d      	b.n	8008830 <_vfiprintf_r+0xf4>
 8008934:	ab03      	add	r3, sp, #12
 8008936:	9300      	str	r3, [sp, #0]
 8008938:	4622      	mov	r2, r4
 800893a:	4b0a      	ldr	r3, [pc, #40]	; (8008964 <_vfiprintf_r+0x228>)
 800893c:	a904      	add	r1, sp, #16
 800893e:	4630      	mov	r0, r6
 8008940:	f000 f888 	bl	8008a54 <_printf_i>
 8008944:	e7ec      	b.n	8008920 <_vfiprintf_r+0x1e4>
 8008946:	bf00      	nop
 8008948:	0800a140 	.word	0x0800a140
 800894c:	0800a180 	.word	0x0800a180
 8008950:	0800a160 	.word	0x0800a160
 8008954:	0800a120 	.word	0x0800a120
 8008958:	0800a186 	.word	0x0800a186
 800895c:	0800a18a 	.word	0x0800a18a
 8008960:	00000000 	.word	0x00000000
 8008964:	08008717 	.word	0x08008717

08008968 <_printf_common>:
 8008968:	e92d 47f0 	stmdb	sp!, {r4, r5, r6, r7, r8, r9, sl, lr}
 800896c:	4691      	mov	r9, r2
 800896e:	461f      	mov	r7, r3
 8008970:	688a      	ldr	r2, [r1, #8]
 8008972:	690b      	ldr	r3, [r1, #16]
 8008974:	f8dd 8020 	ldr.w	r8, [sp, #32]
 8008978:	4293      	cmp	r3, r2
 800897a:	bfb8      	it	lt
 800897c:	4613      	movlt	r3, r2
 800897e:	f8c9 3000 	str.w	r3, [r9]
 8008982:	f891 2043 	ldrb.w	r2, [r1, #67]	; 0x43
 8008986:	4606      	mov	r6, r0
 8008988:	460c      	mov	r4, r1
 800898a:	b112      	cbz	r2, 8008992 <_printf_common+0x2a>
 800898c:	3301      	adds	r3, #1
 800898e:	f8c9 3000 	str.w	r3, [r9]
 8008992:	6823      	ldr	r3, [r4, #0]
 8008994:	0699      	lsls	r1, r3, #26
 8008996:	bf42      	ittt	mi
 8008998:	f8d9 3000 	ldrmi.w	r3, [r9]
 800899c:	3302      	addmi	r3, #2
 800899e:	f8c9 3000 	strmi.w	r3, [r9]
 80089a2:	6825      	ldr	r5, [r4, #0]
 80089a4:	f015 0506 	ands.w	r5, r5, #6
 80089a8:	d107      	bne.n	80089ba <_printf_common+0x52>
 80089aa:	f104 0a19 	add.w	sl, r4, #25
 80089ae:	68e3      	ldr	r3, [r4, #12]
 80089b0:	f8d9 2000 	ldr.w	r2, [r9]
 80089b4:	1a9b      	subs	r3, r3, r2
 80089b6:	42ab      	cmp	r3, r5
 80089b8:	dc28      	bgt.n	8008a0c <_printf_common+0xa4>
 80089ba:	f894 3043 	ldrb.w	r3, [r4, #67]	; 0x43
 80089be:	6822      	ldr	r2, [r4, #0]
 80089c0:	3300      	adds	r3, #0
 80089c2:	bf18      	it	ne
 80089c4:	2301      	movne	r3, #1
 80089c6:	0692      	lsls	r2, r2, #26
 80089c8:	d42d      	bmi.n	8008a26 <_printf_common+0xbe>
 80089ca:	f104 0243 	add.w	r2, r4, #67	; 0x43
 80089ce:	4639      	mov	r1, r7
 80089d0:	4630      	mov	r0, r6
 80089d2:	47c0      	blx	r8
 80089d4:	3001      	adds	r0, #1
 80089d6:	d020      	beq.n	8008a1a <_printf_common+0xb2>
 80089d8:	6823      	ldr	r3, [r4, #0]
 80089da:	68e5      	ldr	r5, [r4, #12]
 80089dc:	f8d9 2000 	ldr.w	r2, [r9]
 80089e0:	f003 0306 	and.w	r3, r3, #6
 80089e4:	2b04      	cmp	r3, #4
 80089e6:	bf08      	it	eq
 80089e8:	1aad      	subeq	r5, r5, r2
 80089ea:	68a3      	ldr	r3, [r4, #8]
 80089ec:	6922      	ldr	r2, [r4, #16]
 80089ee:	bf0c      	ite	eq
 80089f0:	ea25 75e5 	biceq.w	r5, r5, r5, asr #31
 80089f4:	2500      	movne	r5, #0
 80089f6:	4293      	cmp	r3, r2
 80089f8:	bfc4      	itt	gt
 80089fa:	1a9b      	subgt	r3, r3, r2
 80089fc:	18ed      	addgt	r5, r5, r3
 80089fe:	f04f 0900 	mov.w	r9, #0
 8008a02:	341a      	adds	r4, #26
 8008a04:	454d      	cmp	r5, r9
 8008a06:	d11a      	bne.n	8008a3e <_printf_common+0xd6>
 8008a08:	2000      	movs	r0, #0
 8008a0a:	e008      	b.n	8008a1e <_printf_common+0xb6>
 8008a0c:	2301      	movs	r3, #1
 8008a0e:	4652      	mov	r2, sl
 8008a10:	4639      	mov	r1, r7
 8008a12:	4630      	mov	r0, r6
 8008a14:	47c0      	blx	r8
 8008a16:	3001      	adds	r0, #1
 8008a18:	d103      	bne.n	8008a22 <_printf_common+0xba>
 8008a1a:	f04f 30ff 	mov.w	r0, #4294967295
 8008a1e:	e8bd 87f0 	ldmia.w	sp!, {r4, r5, r6, r7, r8, r9, sl, pc}
 8008a22:	3501      	adds	r5, #1
 8008a24:	e7c3      	b.n	80089ae <_printf_common+0x46>
 8008a26:	18e1      	adds	r1, r4, r3
 8008a28:	1c5a      	adds	r2, r3, #1
 8008a2a:	2030      	movs	r0, #48	; 0x30
 8008a2c:	f881 0043 	strb.w	r0, [r1, #67]	; 0x43
 8008a30:	4422      	add	r2, r4
 8008a32:	f894 1045 	ldrb.w	r1, [r4, #69]	; 0x45
 8008a36:	f882 1043 	strb.w	r1, [r2, #67]	; 0x43
 8008a3a:	3302      	adds	r3, #2
 8008a3c:	e7c5      	b.n	80089ca <_printf_common+0x62>
 8008a3e:	2301      	movs	r3, #1
 8008a40:	4622      	mov	r2, r4
 8008a42:	4639      	mov	r1, r7
 8008a44:	4630      	mov	r0, r6
 8008a46:	47c0      	blx	r8
 8008a48:	3001      	adds	r0, #1
 8008a4a:	d0e6      	beq.n	8008a1a <_printf_common+0xb2>
 8008a4c:	f109 0901 	add.w	r9, r9, #1
 8008a50:	e7d8      	b.n	8008a04 <_printf_common+0x9c>
	...

08008a54 <_printf_i>:
 8008a54:	e92d 43f0 	stmdb	sp!, {r4, r5, r6, r7, r8, r9, lr}
 8008a58:	f101 0c43 	add.w	ip, r1, #67	; 0x43
 8008a5c:	460c      	mov	r4, r1
 8008a5e:	7e09      	ldrb	r1, [r1, #24]
 8008a60:	b085      	sub	sp, #20
 8008a62:	296e      	cmp	r1, #110	; 0x6e
 8008a64:	4617      	mov	r7, r2
 8008a66:	4606      	mov	r6, r0
 8008a68:	4698      	mov	r8, r3
 8008a6a:	9a0c      	ldr	r2, [sp, #48]	; 0x30
 8008a6c:	f000 80b3 	beq.w	8008bd6 <_printf_i+0x182>
 8008a70:	d822      	bhi.n	8008ab8 <_printf_i+0x64>
 8008a72:	2963      	cmp	r1, #99	; 0x63
 8008a74:	d036      	beq.n	8008ae4 <_printf_i+0x90>
 8008a76:	d80a      	bhi.n	8008a8e <_printf_i+0x3a>
 8008a78:	2900      	cmp	r1, #0
 8008a7a:	f000 80b9 	beq.w	8008bf0 <_printf_i+0x19c>
 8008a7e:	2958      	cmp	r1, #88	; 0x58
 8008a80:	f000 8083 	beq.w	8008b8a <_printf_i+0x136>
 8008a84:	f104 0542 	add.w	r5, r4, #66	; 0x42
 8008a88:	f884 1042 	strb.w	r1, [r4, #66]	; 0x42
 8008a8c:	e032      	b.n	8008af4 <_printf_i+0xa0>
 8008a8e:	2964      	cmp	r1, #100	; 0x64
 8008a90:	d001      	beq.n	8008a96 <_printf_i+0x42>
 8008a92:	2969      	cmp	r1, #105	; 0x69
 8008a94:	d1f6      	bne.n	8008a84 <_printf_i+0x30>
 8008a96:	6820      	ldr	r0, [r4, #0]
 8008a98:	6813      	ldr	r3, [r2, #0]
 8008a9a:	0605      	lsls	r5, r0, #24
 8008a9c:	f103 0104 	add.w	r1, r3, #4
 8008aa0:	d52a      	bpl.n	8008af8 <_printf_i+0xa4>
 8008aa2:	681b      	ldr	r3, [r3, #0]
 8008aa4:	6011      	str	r1, [r2, #0]
 8008aa6:	2b00      	cmp	r3, #0
 8008aa8:	da03      	bge.n	8008ab2 <_printf_i+0x5e>
 8008aaa:	222d      	movs	r2, #45	; 0x2d
 8008aac:	425b      	negs	r3, r3
 8008aae:	f884 2043 	strb.w	r2, [r4, #67]	; 0x43
 8008ab2:	486f      	ldr	r0, [pc, #444]	; (8008c70 <_printf_i+0x21c>)
 8008ab4:	220a      	movs	r2, #10
 8008ab6:	e039      	b.n	8008b2c <_printf_i+0xd8>
 8008ab8:	2973      	cmp	r1, #115	; 0x73
 8008aba:	f000 809d 	beq.w	8008bf8 <_printf_i+0x1a4>
 8008abe:	d808      	bhi.n	8008ad2 <_printf_i+0x7e>
 8008ac0:	296f      	cmp	r1, #111	; 0x6f
 8008ac2:	d020      	beq.n	8008b06 <_printf_i+0xb2>
 8008ac4:	2970      	cmp	r1, #112	; 0x70
 8008ac6:	d1dd      	bne.n	8008a84 <_printf_i+0x30>
 8008ac8:	6823      	ldr	r3, [r4, #0]
 8008aca:	f043 0320 	orr.w	r3, r3, #32
 8008ace:	6023      	str	r3, [r4, #0]
 8008ad0:	e003      	b.n	8008ada <_printf_i+0x86>
 8008ad2:	2975      	cmp	r1, #117	; 0x75
 8008ad4:	d017      	beq.n	8008b06 <_printf_i+0xb2>
 8008ad6:	2978      	cmp	r1, #120	; 0x78
 8008ad8:	d1d4      	bne.n	8008a84 <_printf_i+0x30>
 8008ada:	2378      	movs	r3, #120	; 0x78
 8008adc:	f884 3045 	strb.w	r3, [r4, #69]	; 0x45
 8008ae0:	4864      	ldr	r0, [pc, #400]	; (8008c74 <_printf_i+0x220>)
 8008ae2:	e055      	b.n	8008b90 <_printf_i+0x13c>
 8008ae4:	6813      	ldr	r3, [r2, #0]
 8008ae6:	1d19      	adds	r1, r3, #4
 8008ae8:	681b      	ldr	r3, [r3, #0]
 8008aea:	6011      	str	r1, [r2, #0]
 8008aec:	f104 0542 	add.w	r5, r4, #66	; 0x42
 8008af0:	f884 3042 	strb.w	r3, [r4, #66]	; 0x42
 8008af4:	2301      	movs	r3, #1
 8008af6:	e08c      	b.n	8008c12 <_printf_i+0x1be>
 8008af8:	681b      	ldr	r3, [r3, #0]
 8008afa:	6011      	str	r1, [r2, #0]
 8008afc:	f010 0f40 	tst.w	r0, #64	; 0x40
 8008b00:	bf18      	it	ne
 8008b02:	b21b      	sxthne	r3, r3
 8008b04:	e7cf      	b.n	8008aa6 <_printf_i+0x52>
 8008b06:	6813      	ldr	r3, [r2, #0]
 8008b08:	6825      	ldr	r5, [r4, #0]
 8008b0a:	1d18      	adds	r0, r3, #4
 8008b0c:	6010      	str	r0, [r2, #0]
 8008b0e:	0628      	lsls	r0, r5, #24
 8008b10:	d501      	bpl.n	8008b16 <_printf_i+0xc2>
 8008b12:	681b      	ldr	r3, [r3, #0]
 8008b14:	e002      	b.n	8008b1c <_printf_i+0xc8>
 8008b16:	0668      	lsls	r0, r5, #25
 8008b18:	d5fb      	bpl.n	8008b12 <_printf_i+0xbe>
 8008b1a:	881b      	ldrh	r3, [r3, #0]
 8008b1c:	4854      	ldr	r0, [pc, #336]	; (8008c70 <_printf_i+0x21c>)
 8008b1e:	296f      	cmp	r1, #111	; 0x6f
 8008b20:	bf14      	ite	ne
 8008b22:	220a      	movne	r2, #10
 8008b24:	2208      	moveq	r2, #8
 8008b26:	2100      	movs	r1, #0
 8008b28:	f884 1043 	strb.w	r1, [r4, #67]	; 0x43
 8008b2c:	6865      	ldr	r5, [r4, #4]
 8008b2e:	60a5      	str	r5, [r4, #8]
 8008b30:	2d00      	cmp	r5, #0
 8008b32:	f2c0 8095 	blt.w	8008c60 <_printf_i+0x20c>
 8008b36:	6821      	ldr	r1, [r4, #0]
 8008b38:	f021 0104 	bic.w	r1, r1, #4
 8008b3c:	6021      	str	r1, [r4, #0]
 8008b3e:	2b00      	cmp	r3, #0
 8008b40:	d13d      	bne.n	8008bbe <_printf_i+0x16a>
 8008b42:	2d00      	cmp	r5, #0
 8008b44:	f040 808e 	bne.w	8008c64 <_printf_i+0x210>
 8008b48:	4665      	mov	r5, ip
 8008b4a:	2a08      	cmp	r2, #8
 8008b4c:	d10b      	bne.n	8008b66 <_printf_i+0x112>
 8008b4e:	6823      	ldr	r3, [r4, #0]
 8008b50:	07db      	lsls	r3, r3, #31
 8008b52:	d508      	bpl.n	8008b66 <_printf_i+0x112>
 8008b54:	6923      	ldr	r3, [r4, #16]
 8008b56:	6862      	ldr	r2, [r4, #4]
 8008b58:	429a      	cmp	r2, r3
 8008b5a:	bfde      	ittt	le
 8008b5c:	2330      	movle	r3, #48	; 0x30
 8008b5e:	f805 3c01 	strble.w	r3, [r5, #-1]
 8008b62:	f105 35ff 	addle.w	r5, r5, #4294967295
 8008b66:	ebac 0305 	sub.w	r3, ip, r5
 8008b6a:	6123      	str	r3, [r4, #16]
 8008b6c:	f8cd 8000 	str.w	r8, [sp]
 8008b70:	463b      	mov	r3, r7
 8008b72:	aa03      	add	r2, sp, #12
 8008b74:	4621      	mov	r1, r4
 8008b76:	4630      	mov	r0, r6
 8008b78:	f7ff fef6 	bl	8008968 <_printf_common>
 8008b7c:	3001      	adds	r0, #1
 8008b7e:	d14d      	bne.n	8008c1c <_printf_i+0x1c8>
 8008b80:	f04f 30ff 	mov.w	r0, #4294967295
 8008b84:	b005      	add	sp, #20
 8008b86:	e8bd 83f0 	ldmia.w	sp!, {r4, r5, r6, r7, r8, r9, pc}
 8008b8a:	4839      	ldr	r0, [pc, #228]	; (8008c70 <_printf_i+0x21c>)
 8008b8c:	f884 1045 	strb.w	r1, [r4, #69]	; 0x45
 8008b90:	6813      	ldr	r3, [r2, #0]
 8008b92:	6821      	ldr	r1, [r4, #0]
 8008b94:	1d1d      	adds	r5, r3, #4
 8008b96:	681b      	ldr	r3, [r3, #0]
 8008b98:	6015      	str	r5, [r2, #0]
 8008b9a:	060a      	lsls	r2, r1, #24
 8008b9c:	d50b      	bpl.n	8008bb6 <_printf_i+0x162>
 8008b9e:	07ca      	lsls	r2, r1, #31
 8008ba0:	bf44      	itt	mi
 8008ba2:	f041 0120 	orrmi.w	r1, r1, #32
 8008ba6:	6021      	strmi	r1, [r4, #0]
 8008ba8:	b91b      	cbnz	r3, 8008bb2 <_printf_i+0x15e>
 8008baa:	6822      	ldr	r2, [r4, #0]
 8008bac:	f022 0220 	bic.w	r2, r2, #32
 8008bb0:	6022      	str	r2, [r4, #0]
 8008bb2:	2210      	movs	r2, #16
 8008bb4:	e7b7      	b.n	8008b26 <_printf_i+0xd2>
 8008bb6:	064d      	lsls	r5, r1, #25
 8008bb8:	bf48      	it	mi
 8008bba:	b29b      	uxthmi	r3, r3
 8008bbc:	e7ef      	b.n	8008b9e <_printf_i+0x14a>
 8008bbe:	4665      	mov	r5, ip
 8008bc0:	fbb3 f1f2 	udiv	r1, r3, r2
 8008bc4:	fb02 3311 	mls	r3, r2, r1, r3
 8008bc8:	5cc3      	ldrb	r3, [r0, r3]
 8008bca:	f805 3d01 	strb.w	r3, [r5, #-1]!
 8008bce:	460b      	mov	r3, r1
 8008bd0:	2900      	cmp	r1, #0
 8008bd2:	d1f5      	bne.n	8008bc0 <_printf_i+0x16c>
 8008bd4:	e7b9      	b.n	8008b4a <_printf_i+0xf6>
 8008bd6:	6813      	ldr	r3, [r2, #0]
 8008bd8:	6825      	ldr	r5, [r4, #0]
 8008bda:	6961      	ldr	r1, [r4, #20]
 8008bdc:	1d18      	adds	r0, r3, #4
 8008bde:	6010      	str	r0, [r2, #0]
 8008be0:	0628      	lsls	r0, r5, #24
 8008be2:	681b      	ldr	r3, [r3, #0]
 8008be4:	d501      	bpl.n	8008bea <_printf_i+0x196>
 8008be6:	6019      	str	r1, [r3, #0]
 8008be8:	e002      	b.n	8008bf0 <_printf_i+0x19c>
 8008bea:	066a      	lsls	r2, r5, #25
 8008bec:	d5fb      	bpl.n	8008be6 <_printf_i+0x192>
 8008bee:	8019      	strh	r1, [r3, #0]
 8008bf0:	2300      	movs	r3, #0
 8008bf2:	6123      	str	r3, [r4, #16]
 8008bf4:	4665      	mov	r5, ip
 8008bf6:	e7b9      	b.n	8008b6c <_printf_i+0x118>
 8008bf8:	6813      	ldr	r3, [r2, #0]
 8008bfa:	1d19      	adds	r1, r3, #4
 8008bfc:	6011      	str	r1, [r2, #0]
 8008bfe:	681d      	ldr	r5, [r3, #0]
 8008c00:	6862      	ldr	r2, [r4, #4]
 8008c02:	2100      	movs	r1, #0
 8008c04:	4628      	mov	r0, r5
 8008c06:	f7f7 faf3 	bl	80001f0 <memchr>
 8008c0a:	b108      	cbz	r0, 8008c10 <_printf_i+0x1bc>
 8008c0c:	1b40      	subs	r0, r0, r5
 8008c0e:	6060      	str	r0, [r4, #4]
 8008c10:	6863      	ldr	r3, [r4, #4]
 8008c12:	6123      	str	r3, [r4, #16]
 8008c14:	2300      	movs	r3, #0
 8008c16:	f884 3043 	strb.w	r3, [r4, #67]	; 0x43
 8008c1a:	e7a7      	b.n	8008b6c <_printf_i+0x118>
 8008c1c:	6923      	ldr	r3, [r4, #16]
 8008c1e:	462a      	mov	r2, r5
 8008c20:	4639      	mov	r1, r7
 8008c22:	4630      	mov	r0, r6
 8008c24:	47c0      	blx	r8
 8008c26:	3001      	adds	r0, #1
 8008c28:	d0aa      	beq.n	8008b80 <_printf_i+0x12c>
 8008c2a:	6823      	ldr	r3, [r4, #0]
 8008c2c:	079b      	lsls	r3, r3, #30
 8008c2e:	d413      	bmi.n	8008c58 <_printf_i+0x204>
 8008c30:	68e0      	ldr	r0, [r4, #12]
 8008c32:	9b03      	ldr	r3, [sp, #12]
 8008c34:	4298      	cmp	r0, r3
 8008c36:	bfb8      	it	lt
 8008c38:	4618      	movlt	r0, r3
 8008c3a:	e7a3      	b.n	8008b84 <_printf_i+0x130>
 8008c3c:	2301      	movs	r3, #1
 8008c3e:	464a      	mov	r2, r9
 8008c40:	4639      	mov	r1, r7
 8008c42:	4630      	mov	r0, r6
 8008c44:	47c0      	blx	r8
 8008c46:	3001      	adds	r0, #1
 8008c48:	d09a      	beq.n	8008b80 <_printf_i+0x12c>
 8008c4a:	3501      	adds	r5, #1
 8008c4c:	68e3      	ldr	r3, [r4, #12]
 8008c4e:	9a03      	ldr	r2, [sp, #12]
 8008c50:	1a9b      	subs	r3, r3, r2
 8008c52:	42ab      	cmp	r3, r5
 8008c54:	dcf2      	bgt.n	8008c3c <_printf_i+0x1e8>
 8008c56:	e7eb      	b.n	8008c30 <_printf_i+0x1dc>
 8008c58:	2500      	movs	r5, #0
 8008c5a:	f104 0919 	add.w	r9, r4, #25
 8008c5e:	e7f5      	b.n	8008c4c <_printf_i+0x1f8>
 8008c60:	2b00      	cmp	r3, #0
 8008c62:	d1ac      	bne.n	8008bbe <_printf_i+0x16a>
 8008c64:	7803      	ldrb	r3, [r0, #0]
 8008c66:	f884 3042 	strb.w	r3, [r4, #66]	; 0x42
 8008c6a:	f104 0542 	add.w	r5, r4, #66	; 0x42
 8008c6e:	e76c      	b.n	8008b4a <_printf_i+0xf6>
 8008c70:	0800a191 	.word	0x0800a191
 8008c74:	0800a1a2 	.word	0x0800a1a2

08008c78 <_sbrk_r>:
 8008c78:	b538      	push	{r3, r4, r5, lr}
 8008c7a:	4c06      	ldr	r4, [pc, #24]	; (8008c94 <_sbrk_r+0x1c>)
 8008c7c:	2300      	movs	r3, #0
 8008c7e:	4605      	mov	r5, r0
 8008c80:	4608      	mov	r0, r1
 8008c82:	6023      	str	r3, [r4, #0]
 8008c84:	f7fa f82e 	bl	8002ce4 <_sbrk>
 8008c88:	1c43      	adds	r3, r0, #1
 8008c8a:	d102      	bne.n	8008c92 <_sbrk_r+0x1a>
 8008c8c:	6823      	ldr	r3, [r4, #0]
 8008c8e:	b103      	cbz	r3, 8008c92 <_sbrk_r+0x1a>
 8008c90:	602b      	str	r3, [r5, #0]
 8008c92:	bd38      	pop	{r3, r4, r5, pc}
 8008c94:	20004478 	.word	0x20004478

08008c98 <__sread>:
 8008c98:	b510      	push	{r4, lr}
 8008c9a:	460c      	mov	r4, r1
 8008c9c:	f9b1 100e 	ldrsh.w	r1, [r1, #14]
 8008ca0:	f000 f896 	bl	8008dd0 <_read_r>
 8008ca4:	2800      	cmp	r0, #0
 8008ca6:	bfab      	itete	ge
 8008ca8:	6d63      	ldrge	r3, [r4, #84]	; 0x54
 8008caa:	89a3      	ldrhlt	r3, [r4, #12]
 8008cac:	181b      	addge	r3, r3, r0
 8008cae:	f423 5380 	biclt.w	r3, r3, #4096	; 0x1000
 8008cb2:	bfac      	ite	ge
 8008cb4:	6563      	strge	r3, [r4, #84]	; 0x54
 8008cb6:	81a3      	strhlt	r3, [r4, #12]
 8008cb8:	bd10      	pop	{r4, pc}

08008cba <__swrite>:
 8008cba:	e92d 41f0 	stmdb	sp!, {r4, r5, r6, r7, r8, lr}
 8008cbe:	461f      	mov	r7, r3
 8008cc0:	898b      	ldrh	r3, [r1, #12]
 8008cc2:	05db      	lsls	r3, r3, #23
 8008cc4:	4605      	mov	r5, r0
 8008cc6:	460c      	mov	r4, r1
 8008cc8:	4616      	mov	r6, r2
 8008cca:	d505      	bpl.n	8008cd8 <__swrite+0x1e>
 8008ccc:	2302      	movs	r3, #2
 8008cce:	2200      	movs	r2, #0
 8008cd0:	f9b1 100e 	ldrsh.w	r1, [r1, #14]
 8008cd4:	f000 f868 	bl	8008da8 <_lseek_r>
 8008cd8:	89a3      	ldrh	r3, [r4, #12]
 8008cda:	f9b4 100e 	ldrsh.w	r1, [r4, #14]
 8008cde:	f423 5380 	bic.w	r3, r3, #4096	; 0x1000
 8008ce2:	81a3      	strh	r3, [r4, #12]
 8008ce4:	4632      	mov	r2, r6
 8008ce6:	463b      	mov	r3, r7
 8008ce8:	4628      	mov	r0, r5
 8008cea:	e8bd 41f0 	ldmia.w	sp!, {r4, r5, r6, r7, r8, lr}
 8008cee:	f000 b817 	b.w	8008d20 <_write_r>

08008cf2 <__sseek>:
 8008cf2:	b510      	push	{r4, lr}
 8008cf4:	460c      	mov	r4, r1
 8008cf6:	f9b1 100e 	ldrsh.w	r1, [r1, #14]
 8008cfa:	f000 f855 	bl	8008da8 <_lseek_r>
 8008cfe:	1c43      	adds	r3, r0, #1
 8008d00:	89a3      	ldrh	r3, [r4, #12]
 8008d02:	bf15      	itete	ne
 8008d04:	6560      	strne	r0, [r4, #84]	; 0x54
 8008d06:	f423 5380 	biceq.w	r3, r3, #4096	; 0x1000
 8008d0a:	f443 5380 	orrne.w	r3, r3, #4096	; 0x1000
 8008d0e:	81a3      	strheq	r3, [r4, #12]
 8008d10:	bf18      	it	ne
 8008d12:	81a3      	strhne	r3, [r4, #12]
 8008d14:	bd10      	pop	{r4, pc}

08008d16 <__sclose>:
 8008d16:	f9b1 100e 	ldrsh.w	r1, [r1, #14]
 8008d1a:	f000 b813 	b.w	8008d44 <_close_r>
	...

08008d20 <_write_r>:
 8008d20:	b538      	push	{r3, r4, r5, lr}
 8008d22:	4c07      	ldr	r4, [pc, #28]	; (8008d40 <_write_r+0x20>)
 8008d24:	4605      	mov	r5, r0
 8008d26:	4608      	mov	r0, r1
 8008d28:	4611      	mov	r1, r2
 8008d2a:	2200      	movs	r2, #0
 8008d2c:	6022      	str	r2, [r4, #0]
 8008d2e:	461a      	mov	r2, r3
 8008d30:	f7f9 ff87 	bl	8002c42 <_write>
 8008d34:	1c43      	adds	r3, r0, #1
 8008d36:	d102      	bne.n	8008d3e <_write_r+0x1e>
 8008d38:	6823      	ldr	r3, [r4, #0]
 8008d3a:	b103      	cbz	r3, 8008d3e <_write_r+0x1e>
 8008d3c:	602b      	str	r3, [r5, #0]
 8008d3e:	bd38      	pop	{r3, r4, r5, pc}
 8008d40:	20004478 	.word	0x20004478

08008d44 <_close_r>:
 8008d44:	b538      	push	{r3, r4, r5, lr}
 8008d46:	4c06      	ldr	r4, [pc, #24]	; (8008d60 <_close_r+0x1c>)
 8008d48:	2300      	movs	r3, #0
 8008d4a:	4605      	mov	r5, r0
 8008d4c:	4608      	mov	r0, r1
 8008d4e:	6023      	str	r3, [r4, #0]
 8008d50:	f7f9 ff93 	bl	8002c7a <_close>
 8008d54:	1c43      	adds	r3, r0, #1
 8008d56:	d102      	bne.n	8008d5e <_close_r+0x1a>
 8008d58:	6823      	ldr	r3, [r4, #0]
 8008d5a:	b103      	cbz	r3, 8008d5e <_close_r+0x1a>
 8008d5c:	602b      	str	r3, [r5, #0]
 8008d5e:	bd38      	pop	{r3, r4, r5, pc}
 8008d60:	20004478 	.word	0x20004478

08008d64 <_fstat_r>:
 8008d64:	b538      	push	{r3, r4, r5, lr}
 8008d66:	4c07      	ldr	r4, [pc, #28]	; (8008d84 <_fstat_r+0x20>)
 8008d68:	2300      	movs	r3, #0
 8008d6a:	4605      	mov	r5, r0
 8008d6c:	4608      	mov	r0, r1
 8008d6e:	4611      	mov	r1, r2
 8008d70:	6023      	str	r3, [r4, #0]
 8008d72:	f7f9 ff8e 	bl	8002c92 <_fstat>
 8008d76:	1c43      	adds	r3, r0, #1
 8008d78:	d102      	bne.n	8008d80 <_fstat_r+0x1c>
 8008d7a:	6823      	ldr	r3, [r4, #0]
 8008d7c:	b103      	cbz	r3, 8008d80 <_fstat_r+0x1c>
 8008d7e:	602b      	str	r3, [r5, #0]
 8008d80:	bd38      	pop	{r3, r4, r5, pc}
 8008d82:	bf00      	nop
 8008d84:	20004478 	.word	0x20004478

08008d88 <_isatty_r>:
 8008d88:	b538      	push	{r3, r4, r5, lr}
 8008d8a:	4c06      	ldr	r4, [pc, #24]	; (8008da4 <_isatty_r+0x1c>)
 8008d8c:	2300      	movs	r3, #0
 8008d8e:	4605      	mov	r5, r0
 8008d90:	4608      	mov	r0, r1
 8008d92:	6023      	str	r3, [r4, #0]
 8008d94:	f7f9 ff8d 	bl	8002cb2 <_isatty>
 8008d98:	1c43      	adds	r3, r0, #1
 8008d9a:	d102      	bne.n	8008da2 <_isatty_r+0x1a>
 8008d9c:	6823      	ldr	r3, [r4, #0]
 8008d9e:	b103      	cbz	r3, 8008da2 <_isatty_r+0x1a>
 8008da0:	602b      	str	r3, [r5, #0]
 8008da2:	bd38      	pop	{r3, r4, r5, pc}
 8008da4:	20004478 	.word	0x20004478

08008da8 <_lseek_r>:
 8008da8:	b538      	push	{r3, r4, r5, lr}
 8008daa:	4c07      	ldr	r4, [pc, #28]	; (8008dc8 <_lseek_r+0x20>)
 8008dac:	4605      	mov	r5, r0
 8008dae:	4608      	mov	r0, r1
 8008db0:	4611      	mov	r1, r2
 8008db2:	2200      	movs	r2, #0
 8008db4:	6022      	str	r2, [r4, #0]
 8008db6:	461a      	mov	r2, r3
 8008db8:	f7f9 ff86 	bl	8002cc8 <_lseek>
 8008dbc:	1c43      	adds	r3, r0, #1
 8008dbe:	d102      	bne.n	8008dc6 <_lseek_r+0x1e>
 8008dc0:	6823      	ldr	r3, [r4, #0]
 8008dc2:	b103      	cbz	r3, 8008dc6 <_lseek_r+0x1e>
 8008dc4:	602b      	str	r3, [r5, #0]
 8008dc6:	bd38      	pop	{r3, r4, r5, pc}
 8008dc8:	20004478 	.word	0x20004478

08008dcc <__malloc_lock>:
 8008dcc:	4770      	bx	lr

08008dce <__malloc_unlock>:
 8008dce:	4770      	bx	lr

08008dd0 <_read_r>:
 8008dd0:	b538      	push	{r3, r4, r5, lr}
 8008dd2:	4c07      	ldr	r4, [pc, #28]	; (8008df0 <_read_r+0x20>)
 8008dd4:	4605      	mov	r5, r0
 8008dd6:	4608      	mov	r0, r1
 8008dd8:	4611      	mov	r1, r2
 8008dda:	2200      	movs	r2, #0
 8008ddc:	6022      	str	r2, [r4, #0]
 8008dde:	461a      	mov	r2, r3
 8008de0:	f7f9 ff12 	bl	8002c08 <_read>
 8008de4:	1c43      	adds	r3, r0, #1
 8008de6:	d102      	bne.n	8008dee <_read_r+0x1e>
 8008de8:	6823      	ldr	r3, [r4, #0]
 8008dea:	b103      	cbz	r3, 8008dee <_read_r+0x1e>
 8008dec:	602b      	str	r3, [r5, #0]
 8008dee:	bd38      	pop	{r3, r4, r5, pc}
 8008df0:	20004478 	.word	0x20004478

08008df4 <round>:
 8008df4:	b5f8      	push	{r3, r4, r5, r6, r7, lr}
 8008df6:	ec57 6b10 	vmov	r6, r7, d0
 8008dfa:	f3c7 500a 	ubfx	r0, r7, #20, #11
 8008dfe:	f2a0 34ff 	subw	r4, r0, #1023	; 0x3ff
 8008e02:	2c13      	cmp	r4, #19
 8008e04:	463b      	mov	r3, r7
 8008e06:	463d      	mov	r5, r7
 8008e08:	dc17      	bgt.n	8008e3a <round+0x46>
 8008e0a:	2c00      	cmp	r4, #0
 8008e0c:	da09      	bge.n	8008e22 <round+0x2e>
 8008e0e:	3401      	adds	r4, #1
 8008e10:	f007 4300 	and.w	r3, r7, #2147483648	; 0x80000000
 8008e14:	d103      	bne.n	8008e1e <round+0x2a>
 8008e16:	f043 537f 	orr.w	r3, r3, #1069547520	; 0x3fc00000
 8008e1a:	f443 1340 	orr.w	r3, r3, #3145728	; 0x300000
 8008e1e:	2100      	movs	r1, #0
 8008e20:	e02c      	b.n	8008e7c <round+0x88>
 8008e22:	4a18      	ldr	r2, [pc, #96]	; (8008e84 <round+0x90>)
 8008e24:	4122      	asrs	r2, r4
 8008e26:	4217      	tst	r7, r2
 8008e28:	d100      	bne.n	8008e2c <round+0x38>
 8008e2a:	b19e      	cbz	r6, 8008e54 <round+0x60>
 8008e2c:	f44f 2300 	mov.w	r3, #524288	; 0x80000
 8008e30:	4123      	asrs	r3, r4
 8008e32:	442b      	add	r3, r5
 8008e34:	ea23 0302 	bic.w	r3, r3, r2
 8008e38:	e7f1      	b.n	8008e1e <round+0x2a>
 8008e3a:	2c33      	cmp	r4, #51	; 0x33
 8008e3c:	dd0d      	ble.n	8008e5a <round+0x66>
 8008e3e:	f5b4 6f80 	cmp.w	r4, #1024	; 0x400
 8008e42:	d107      	bne.n	8008e54 <round+0x60>
 8008e44:	4630      	mov	r0, r6
 8008e46:	4639      	mov	r1, r7
 8008e48:	ee10 2a10 	vmov	r2, s0
 8008e4c:	f7f7 fa26 	bl	800029c <__adddf3>
 8008e50:	4606      	mov	r6, r0
 8008e52:	460f      	mov	r7, r1
 8008e54:	ec47 6b10 	vmov	d0, r6, r7
 8008e58:	bdf8      	pop	{r3, r4, r5, r6, r7, pc}
 8008e5a:	f2a0 4213 	subw	r2, r0, #1043	; 0x413
 8008e5e:	f04f 30ff 	mov.w	r0, #4294967295
 8008e62:	40d0      	lsrs	r0, r2
 8008e64:	4206      	tst	r6, r0
 8008e66:	d0f5      	beq.n	8008e54 <round+0x60>
 8008e68:	2201      	movs	r2, #1
 8008e6a:	f1c4 0433 	rsb	r4, r4, #51	; 0x33
 8008e6e:	fa02 f404 	lsl.w	r4, r2, r4
 8008e72:	1931      	adds	r1, r6, r4
 8008e74:	bf28      	it	cs
 8008e76:	189b      	addcs	r3, r3, r2
 8008e78:	ea21 0100 	bic.w	r1, r1, r0
 8008e7c:	461f      	mov	r7, r3
 8008e7e:	460e      	mov	r6, r1
 8008e80:	e7e8      	b.n	8008e54 <round+0x60>
 8008e82:	bf00      	nop
 8008e84:	000fffff 	.word	0x000fffff

08008e88 <pow>:
 8008e88:	e92d 4ff0 	stmdb	sp!, {r4, r5, r6, r7, r8, r9, sl, fp, lr}
 8008e8c:	ed2d 8b04 	vpush	{d8-d9}
 8008e90:	f8df 92d0 	ldr.w	r9, [pc, #720]	; 8009164 <pow+0x2dc>
 8008e94:	b08d      	sub	sp, #52	; 0x34
 8008e96:	ec57 6b10 	vmov	r6, r7, d0
 8008e9a:	ec55 4b11 	vmov	r4, r5, d1
 8008e9e:	f000 f963 	bl	8009168 <__ieee754_pow>
 8008ea2:	f999 3000 	ldrsb.w	r3, [r9]
 8008ea6:	9300      	str	r3, [sp, #0]
 8008ea8:	3301      	adds	r3, #1
 8008eaa:	eeb0 8a40 	vmov.f32	s16, s0
 8008eae:	eef0 8a60 	vmov.f32	s17, s1
 8008eb2:	46c8      	mov	r8, r9
 8008eb4:	d05f      	beq.n	8008f76 <pow+0xee>
 8008eb6:	4622      	mov	r2, r4
 8008eb8:	462b      	mov	r3, r5
 8008eba:	4620      	mov	r0, r4
 8008ebc:	4629      	mov	r1, r5
 8008ebe:	f7f7 fe3d 	bl	8000b3c <__aeabi_dcmpun>
 8008ec2:	4683      	mov	fp, r0
 8008ec4:	2800      	cmp	r0, #0
 8008ec6:	d156      	bne.n	8008f76 <pow+0xee>
 8008ec8:	4632      	mov	r2, r6
 8008eca:	463b      	mov	r3, r7
 8008ecc:	4630      	mov	r0, r6
 8008ece:	4639      	mov	r1, r7
 8008ed0:	f7f7 fe34 	bl	8000b3c <__aeabi_dcmpun>
 8008ed4:	9001      	str	r0, [sp, #4]
 8008ed6:	b1e8      	cbz	r0, 8008f14 <pow+0x8c>
 8008ed8:	2200      	movs	r2, #0
 8008eda:	2300      	movs	r3, #0
 8008edc:	4620      	mov	r0, r4
 8008ede:	4629      	mov	r1, r5
 8008ee0:	f7f7 fdfa 	bl	8000ad8 <__aeabi_dcmpeq>
 8008ee4:	2800      	cmp	r0, #0
 8008ee6:	d046      	beq.n	8008f76 <pow+0xee>
 8008ee8:	2301      	movs	r3, #1
 8008eea:	9302      	str	r3, [sp, #8]
 8008eec:	4b96      	ldr	r3, [pc, #600]	; (8009148 <pow+0x2c0>)
 8008eee:	9303      	str	r3, [sp, #12]
 8008ef0:	4b96      	ldr	r3, [pc, #600]	; (800914c <pow+0x2c4>)
 8008ef2:	f8cd b028 	str.w	fp, [sp, #40]	; 0x28
 8008ef6:	2200      	movs	r2, #0
 8008ef8:	e9cd 2308 	strd	r2, r3, [sp, #32]
 8008efc:	9b00      	ldr	r3, [sp, #0]
 8008efe:	2b02      	cmp	r3, #2
 8008f00:	e9cd 6704 	strd	r6, r7, [sp, #16]
 8008f04:	e9cd 4506 	strd	r4, r5, [sp, #24]
 8008f08:	d033      	beq.n	8008f72 <pow+0xea>
 8008f0a:	a802      	add	r0, sp, #8
 8008f0c:	f000 fefb 	bl	8009d06 <matherr>
 8008f10:	bb48      	cbnz	r0, 8008f66 <pow+0xde>
 8008f12:	e05d      	b.n	8008fd0 <pow+0x148>
 8008f14:	f04f 0a00 	mov.w	sl, #0
 8008f18:	f04f 0b00 	mov.w	fp, #0
 8008f1c:	4652      	mov	r2, sl
 8008f1e:	465b      	mov	r3, fp
 8008f20:	4630      	mov	r0, r6
 8008f22:	4639      	mov	r1, r7
 8008f24:	f7f7 fdd8 	bl	8000ad8 <__aeabi_dcmpeq>
 8008f28:	ec4b ab19 	vmov	d9, sl, fp
 8008f2c:	2800      	cmp	r0, #0
 8008f2e:	d054      	beq.n	8008fda <pow+0x152>
 8008f30:	4652      	mov	r2, sl
 8008f32:	465b      	mov	r3, fp
 8008f34:	4620      	mov	r0, r4
 8008f36:	4629      	mov	r1, r5
 8008f38:	f7f7 fdce 	bl	8000ad8 <__aeabi_dcmpeq>
 8008f3c:	4680      	mov	r8, r0
 8008f3e:	b318      	cbz	r0, 8008f88 <pow+0x100>
 8008f40:	2301      	movs	r3, #1
 8008f42:	9302      	str	r3, [sp, #8]
 8008f44:	4b80      	ldr	r3, [pc, #512]	; (8009148 <pow+0x2c0>)
 8008f46:	9303      	str	r3, [sp, #12]
 8008f48:	9b01      	ldr	r3, [sp, #4]
 8008f4a:	930a      	str	r3, [sp, #40]	; 0x28
 8008f4c:	9b00      	ldr	r3, [sp, #0]
 8008f4e:	e9cd 6704 	strd	r6, r7, [sp, #16]
 8008f52:	e9cd 4506 	strd	r4, r5, [sp, #24]
 8008f56:	e9cd ab08 	strd	sl, fp, [sp, #32]
 8008f5a:	2b00      	cmp	r3, #0
 8008f5c:	d0d5      	beq.n	8008f0a <pow+0x82>
 8008f5e:	4b7b      	ldr	r3, [pc, #492]	; (800914c <pow+0x2c4>)
 8008f60:	2200      	movs	r2, #0
 8008f62:	e9cd 2308 	strd	r2, r3, [sp, #32]
 8008f66:	9b0a      	ldr	r3, [sp, #40]	; 0x28
 8008f68:	b11b      	cbz	r3, 8008f72 <pow+0xea>
 8008f6a:	f7fe ffc9 	bl	8007f00 <__errno>
 8008f6e:	9b0a      	ldr	r3, [sp, #40]	; 0x28
 8008f70:	6003      	str	r3, [r0, #0]
 8008f72:	ed9d 8b08 	vldr	d8, [sp, #32]
 8008f76:	eeb0 0a48 	vmov.f32	s0, s16
 8008f7a:	eef0 0a68 	vmov.f32	s1, s17
 8008f7e:	b00d      	add	sp, #52	; 0x34
 8008f80:	ecbd 8b04 	vpop	{d8-d9}
 8008f84:	e8bd 8ff0 	ldmia.w	sp!, {r4, r5, r6, r7, r8, r9, sl, fp, pc}
 8008f88:	ec45 4b10 	vmov	d0, r4, r5
 8008f8c:	f000 feb3 	bl	8009cf6 <finite>
 8008f90:	2800      	cmp	r0, #0
 8008f92:	d0f0      	beq.n	8008f76 <pow+0xee>
 8008f94:	4652      	mov	r2, sl
 8008f96:	465b      	mov	r3, fp
 8008f98:	4620      	mov	r0, r4
 8008f9a:	4629      	mov	r1, r5
 8008f9c:	f7f7 fda6 	bl	8000aec <__aeabi_dcmplt>
 8008fa0:	2800      	cmp	r0, #0
 8008fa2:	d0e8      	beq.n	8008f76 <pow+0xee>
 8008fa4:	2301      	movs	r3, #1
 8008fa6:	9302      	str	r3, [sp, #8]
 8008fa8:	4b67      	ldr	r3, [pc, #412]	; (8009148 <pow+0x2c0>)
 8008faa:	9303      	str	r3, [sp, #12]
 8008fac:	f999 3000 	ldrsb.w	r3, [r9]
 8008fb0:	f8cd 8028 	str.w	r8, [sp, #40]	; 0x28
 8008fb4:	e9cd 6704 	strd	r6, r7, [sp, #16]
 8008fb8:	e9cd 4506 	strd	r4, r5, [sp, #24]
 8008fbc:	b913      	cbnz	r3, 8008fc4 <pow+0x13c>
 8008fbe:	e9cd ab08 	strd	sl, fp, [sp, #32]
 8008fc2:	e7a2      	b.n	8008f0a <pow+0x82>
 8008fc4:	4962      	ldr	r1, [pc, #392]	; (8009150 <pow+0x2c8>)
 8008fc6:	2000      	movs	r0, #0
 8008fc8:	e9cd 0108 	strd	r0, r1, [sp, #32]
 8008fcc:	2b02      	cmp	r3, #2
 8008fce:	d19c      	bne.n	8008f0a <pow+0x82>
 8008fd0:	f7fe ff96 	bl	8007f00 <__errno>
 8008fd4:	2321      	movs	r3, #33	; 0x21
 8008fd6:	6003      	str	r3, [r0, #0]
 8008fd8:	e7c5      	b.n	8008f66 <pow+0xde>
 8008fda:	eeb0 0a48 	vmov.f32	s0, s16
 8008fde:	eef0 0a68 	vmov.f32	s1, s17
 8008fe2:	f000 fe88 	bl	8009cf6 <finite>
 8008fe6:	9000      	str	r0, [sp, #0]
 8008fe8:	2800      	cmp	r0, #0
 8008fea:	f040 8081 	bne.w	80090f0 <pow+0x268>
 8008fee:	ec47 6b10 	vmov	d0, r6, r7
 8008ff2:	f000 fe80 	bl	8009cf6 <finite>
 8008ff6:	2800      	cmp	r0, #0
 8008ff8:	d07a      	beq.n	80090f0 <pow+0x268>
 8008ffa:	ec45 4b10 	vmov	d0, r4, r5
 8008ffe:	f000 fe7a 	bl	8009cf6 <finite>
 8009002:	2800      	cmp	r0, #0
 8009004:	d074      	beq.n	80090f0 <pow+0x268>
 8009006:	ec53 2b18 	vmov	r2, r3, d8
 800900a:	ee18 0a10 	vmov	r0, s16
 800900e:	4619      	mov	r1, r3
 8009010:	f7f7 fd94 	bl	8000b3c <__aeabi_dcmpun>
 8009014:	f999 9000 	ldrsb.w	r9, [r9]
 8009018:	4b4b      	ldr	r3, [pc, #300]	; (8009148 <pow+0x2c0>)
 800901a:	b1b0      	cbz	r0, 800904a <pow+0x1c2>
 800901c:	2201      	movs	r2, #1
 800901e:	e9cd 2302 	strd	r2, r3, [sp, #8]
 8009022:	9b00      	ldr	r3, [sp, #0]
 8009024:	930a      	str	r3, [sp, #40]	; 0x28
 8009026:	e9cd 6704 	strd	r6, r7, [sp, #16]
 800902a:	e9cd 4506 	strd	r4, r5, [sp, #24]
 800902e:	f1b9 0f00 	cmp.w	r9, #0
 8009032:	d0c4      	beq.n	8008fbe <pow+0x136>
 8009034:	4652      	mov	r2, sl
 8009036:	465b      	mov	r3, fp
 8009038:	4650      	mov	r0, sl
 800903a:	4659      	mov	r1, fp
 800903c:	f7f7 fc0e 	bl	800085c <__aeabi_ddiv>
 8009040:	f1b9 0f02 	cmp.w	r9, #2
 8009044:	e9cd 0108 	strd	r0, r1, [sp, #32]
 8009048:	e7c1      	b.n	8008fce <pow+0x146>
 800904a:	2203      	movs	r2, #3
 800904c:	e9cd 2302 	strd	r2, r3, [sp, #8]
 8009050:	900a      	str	r0, [sp, #40]	; 0x28
 8009052:	4629      	mov	r1, r5
 8009054:	4620      	mov	r0, r4
 8009056:	2200      	movs	r2, #0
 8009058:	4b3e      	ldr	r3, [pc, #248]	; (8009154 <pow+0x2cc>)
 800905a:	e9cd 4506 	strd	r4, r5, [sp, #24]
 800905e:	e9cd 6704 	strd	r6, r7, [sp, #16]
 8009062:	f7f7 fad1 	bl	8000608 <__aeabi_dmul>
 8009066:	4604      	mov	r4, r0
 8009068:	460d      	mov	r5, r1
 800906a:	f1b9 0f00 	cmp.w	r9, #0
 800906e:	d124      	bne.n	80090ba <pow+0x232>
 8009070:	4b39      	ldr	r3, [pc, #228]	; (8009158 <pow+0x2d0>)
 8009072:	f04f 4260 	mov.w	r2, #3758096384	; 0xe0000000
 8009076:	e9cd 2308 	strd	r2, r3, [sp, #32]
 800907a:	4630      	mov	r0, r6
 800907c:	4652      	mov	r2, sl
 800907e:	465b      	mov	r3, fp
 8009080:	4639      	mov	r1, r7
 8009082:	f7f7 fd33 	bl	8000aec <__aeabi_dcmplt>
 8009086:	2800      	cmp	r0, #0
 8009088:	d056      	beq.n	8009138 <pow+0x2b0>
 800908a:	ec45 4b10 	vmov	d0, r4, r5
 800908e:	f000 fe47 	bl	8009d20 <rint>
 8009092:	4622      	mov	r2, r4
 8009094:	462b      	mov	r3, r5
 8009096:	ec51 0b10 	vmov	r0, r1, d0
 800909a:	f7f7 fd1d 	bl	8000ad8 <__aeabi_dcmpeq>
 800909e:	b920      	cbnz	r0, 80090aa <pow+0x222>
 80090a0:	4b2e      	ldr	r3, [pc, #184]	; (800915c <pow+0x2d4>)
 80090a2:	f04f 4260 	mov.w	r2, #3758096384	; 0xe0000000
 80090a6:	e9cd 2308 	strd	r2, r3, [sp, #32]
 80090aa:	f998 3000 	ldrsb.w	r3, [r8]
 80090ae:	2b02      	cmp	r3, #2
 80090b0:	d142      	bne.n	8009138 <pow+0x2b0>
 80090b2:	f7fe ff25 	bl	8007f00 <__errno>
 80090b6:	2322      	movs	r3, #34	; 0x22
 80090b8:	e78d      	b.n	8008fd6 <pow+0x14e>
 80090ba:	4b29      	ldr	r3, [pc, #164]	; (8009160 <pow+0x2d8>)
 80090bc:	2200      	movs	r2, #0
 80090be:	e9cd 2308 	strd	r2, r3, [sp, #32]
 80090c2:	4630      	mov	r0, r6
 80090c4:	4652      	mov	r2, sl
 80090c6:	465b      	mov	r3, fp
 80090c8:	4639      	mov	r1, r7
 80090ca:	f7f7 fd0f 	bl	8000aec <__aeabi_dcmplt>
 80090ce:	2800      	cmp	r0, #0
 80090d0:	d0eb      	beq.n	80090aa <pow+0x222>
 80090d2:	ec45 4b10 	vmov	d0, r4, r5
 80090d6:	f000 fe23 	bl	8009d20 <rint>
 80090da:	4622      	mov	r2, r4
 80090dc:	462b      	mov	r3, r5
 80090de:	ec51 0b10 	vmov	r0, r1, d0
 80090e2:	f7f7 fcf9 	bl	8000ad8 <__aeabi_dcmpeq>
 80090e6:	2800      	cmp	r0, #0
 80090e8:	d1df      	bne.n	80090aa <pow+0x222>
 80090ea:	2200      	movs	r2, #0
 80090ec:	4b18      	ldr	r3, [pc, #96]	; (8009150 <pow+0x2c8>)
 80090ee:	e7da      	b.n	80090a6 <pow+0x21e>
 80090f0:	2200      	movs	r2, #0
 80090f2:	2300      	movs	r3, #0
 80090f4:	ec51 0b18 	vmov	r0, r1, d8
 80090f8:	f7f7 fcee 	bl	8000ad8 <__aeabi_dcmpeq>
 80090fc:	2800      	cmp	r0, #0
 80090fe:	f43f af3a 	beq.w	8008f76 <pow+0xee>
 8009102:	ec47 6b10 	vmov	d0, r6, r7
 8009106:	f000 fdf6 	bl	8009cf6 <finite>
 800910a:	2800      	cmp	r0, #0
 800910c:	f43f af33 	beq.w	8008f76 <pow+0xee>
 8009110:	ec45 4b10 	vmov	d0, r4, r5
 8009114:	f000 fdef 	bl	8009cf6 <finite>
 8009118:	2800      	cmp	r0, #0
 800911a:	f43f af2c 	beq.w	8008f76 <pow+0xee>
 800911e:	2304      	movs	r3, #4
 8009120:	9302      	str	r3, [sp, #8]
 8009122:	4b09      	ldr	r3, [pc, #36]	; (8009148 <pow+0x2c0>)
 8009124:	9303      	str	r3, [sp, #12]
 8009126:	2300      	movs	r3, #0
 8009128:	930a      	str	r3, [sp, #40]	; 0x28
 800912a:	e9cd 6704 	strd	r6, r7, [sp, #16]
 800912e:	e9cd 4506 	strd	r4, r5, [sp, #24]
 8009132:	ed8d 9b08 	vstr	d9, [sp, #32]
 8009136:	e7b8      	b.n	80090aa <pow+0x222>
 8009138:	a802      	add	r0, sp, #8
 800913a:	f000 fde4 	bl	8009d06 <matherr>
 800913e:	2800      	cmp	r0, #0
 8009140:	f47f af11 	bne.w	8008f66 <pow+0xde>
 8009144:	e7b5      	b.n	80090b2 <pow+0x22a>
 8009146:	bf00      	nop
 8009148:	0800a1b3 	.word	0x0800a1b3
 800914c:	3ff00000 	.word	0x3ff00000
 8009150:	fff00000 	.word	0xfff00000
 8009154:	3fe00000 	.word	0x3fe00000
 8009158:	47efffff 	.word	0x47efffff
 800915c:	c7efffff 	.word	0xc7efffff
 8009160:	7ff00000 	.word	0x7ff00000
 8009164:	20000074 	.word	0x20000074

08009168 <__ieee754_pow>:
 8009168:	e92d 4ff0 	stmdb	sp!, {r4, r5, r6, r7, r8, r9, sl, fp, lr}
 800916c:	b091      	sub	sp, #68	; 0x44
 800916e:	ed8d 1b00 	vstr	d1, [sp]
 8009172:	e9dd 2900 	ldrd	r2, r9, [sp]
 8009176:	f029 4800 	bic.w	r8, r9, #2147483648	; 0x80000000
 800917a:	ea58 0302 	orrs.w	r3, r8, r2
 800917e:	ec57 6b10 	vmov	r6, r7, d0
 8009182:	f000 84be 	beq.w	8009b02 <__ieee754_pow+0x99a>
 8009186:	4b7a      	ldr	r3, [pc, #488]	; (8009370 <__ieee754_pow+0x208>)
 8009188:	f027 4400 	bic.w	r4, r7, #2147483648	; 0x80000000
 800918c:	429c      	cmp	r4, r3
 800918e:	463d      	mov	r5, r7
 8009190:	ee10 aa10 	vmov	sl, s0
 8009194:	dc09      	bgt.n	80091aa <__ieee754_pow+0x42>
 8009196:	d103      	bne.n	80091a0 <__ieee754_pow+0x38>
 8009198:	b93e      	cbnz	r6, 80091aa <__ieee754_pow+0x42>
 800919a:	45a0      	cmp	r8, r4
 800919c:	dc0d      	bgt.n	80091ba <__ieee754_pow+0x52>
 800919e:	e001      	b.n	80091a4 <__ieee754_pow+0x3c>
 80091a0:	4598      	cmp	r8, r3
 80091a2:	dc02      	bgt.n	80091aa <__ieee754_pow+0x42>
 80091a4:	4598      	cmp	r8, r3
 80091a6:	d10e      	bne.n	80091c6 <__ieee754_pow+0x5e>
 80091a8:	b16a      	cbz	r2, 80091c6 <__ieee754_pow+0x5e>
 80091aa:	f104 4440 	add.w	r4, r4, #3221225472	; 0xc0000000
 80091ae:	f504 1480 	add.w	r4, r4, #1048576	; 0x100000
 80091b2:	ea54 030a 	orrs.w	r3, r4, sl
 80091b6:	f000 84a4 	beq.w	8009b02 <__ieee754_pow+0x99a>
 80091ba:	486e      	ldr	r0, [pc, #440]	; (8009374 <__ieee754_pow+0x20c>)
 80091bc:	b011      	add	sp, #68	; 0x44
 80091be:	e8bd 4ff0 	ldmia.w	sp!, {r4, r5, r6, r7, r8, r9, sl, fp, lr}
 80091c2:	f000 bda5 	b.w	8009d10 <nan>
 80091c6:	2d00      	cmp	r5, #0
 80091c8:	da53      	bge.n	8009272 <__ieee754_pow+0x10a>
 80091ca:	4b6b      	ldr	r3, [pc, #428]	; (8009378 <__ieee754_pow+0x210>)
 80091cc:	4598      	cmp	r8, r3
 80091ce:	dc4d      	bgt.n	800926c <__ieee754_pow+0x104>
 80091d0:	f1a3 7354 	sub.w	r3, r3, #55574528	; 0x3500000
 80091d4:	4598      	cmp	r8, r3
 80091d6:	dd4c      	ble.n	8009272 <__ieee754_pow+0x10a>
 80091d8:	ea4f 5328 	mov.w	r3, r8, asr #20
 80091dc:	f2a3 33ff 	subw	r3, r3, #1023	; 0x3ff
 80091e0:	2b14      	cmp	r3, #20
 80091e2:	dd26      	ble.n	8009232 <__ieee754_pow+0xca>
 80091e4:	f1c3 0334 	rsb	r3, r3, #52	; 0x34
 80091e8:	fa22 f103 	lsr.w	r1, r2, r3
 80091ec:	fa01 f303 	lsl.w	r3, r1, r3
 80091f0:	4293      	cmp	r3, r2
 80091f2:	d13e      	bne.n	8009272 <__ieee754_pow+0x10a>
 80091f4:	f001 0101 	and.w	r1, r1, #1
 80091f8:	f1c1 0b02 	rsb	fp, r1, #2
 80091fc:	2a00      	cmp	r2, #0
 80091fe:	d15b      	bne.n	80092b8 <__ieee754_pow+0x150>
 8009200:	4b5b      	ldr	r3, [pc, #364]	; (8009370 <__ieee754_pow+0x208>)
 8009202:	4598      	cmp	r8, r3
 8009204:	d124      	bne.n	8009250 <__ieee754_pow+0xe8>
 8009206:	f104 4340 	add.w	r3, r4, #3221225472	; 0xc0000000
 800920a:	f503 1380 	add.w	r3, r3, #1048576	; 0x100000
 800920e:	ea53 030a 	orrs.w	r3, r3, sl
 8009212:	f000 8476 	beq.w	8009b02 <__ieee754_pow+0x99a>
 8009216:	4b59      	ldr	r3, [pc, #356]	; (800937c <__ieee754_pow+0x214>)
 8009218:	429c      	cmp	r4, r3
 800921a:	dd2d      	ble.n	8009278 <__ieee754_pow+0x110>
 800921c:	f1b9 0f00 	cmp.w	r9, #0
 8009220:	f280 8473 	bge.w	8009b0a <__ieee754_pow+0x9a2>
 8009224:	2000      	movs	r0, #0
 8009226:	2100      	movs	r1, #0
 8009228:	ec41 0b10 	vmov	d0, r0, r1
 800922c:	b011      	add	sp, #68	; 0x44
 800922e:	e8bd 8ff0 	ldmia.w	sp!, {r4, r5, r6, r7, r8, r9, sl, fp, pc}
 8009232:	2a00      	cmp	r2, #0
 8009234:	d13e      	bne.n	80092b4 <__ieee754_pow+0x14c>
 8009236:	f1c3 0314 	rsb	r3, r3, #20
 800923a:	fa48 f103 	asr.w	r1, r8, r3
 800923e:	fa01 f303 	lsl.w	r3, r1, r3
 8009242:	4543      	cmp	r3, r8
 8009244:	f040 8469 	bne.w	8009b1a <__ieee754_pow+0x9b2>
 8009248:	f001 0101 	and.w	r1, r1, #1
 800924c:	f1c1 0b02 	rsb	fp, r1, #2
 8009250:	4b4b      	ldr	r3, [pc, #300]	; (8009380 <__ieee754_pow+0x218>)
 8009252:	4598      	cmp	r8, r3
 8009254:	d118      	bne.n	8009288 <__ieee754_pow+0x120>
 8009256:	f1b9 0f00 	cmp.w	r9, #0
 800925a:	f280 845a 	bge.w	8009b12 <__ieee754_pow+0x9aa>
 800925e:	4948      	ldr	r1, [pc, #288]	; (8009380 <__ieee754_pow+0x218>)
 8009260:	4632      	mov	r2, r6
 8009262:	463b      	mov	r3, r7
 8009264:	2000      	movs	r0, #0
 8009266:	f7f7 faf9 	bl	800085c <__aeabi_ddiv>
 800926a:	e7dd      	b.n	8009228 <__ieee754_pow+0xc0>
 800926c:	f04f 0b02 	mov.w	fp, #2
 8009270:	e7c4      	b.n	80091fc <__ieee754_pow+0x94>
 8009272:	f04f 0b00 	mov.w	fp, #0
 8009276:	e7c1      	b.n	80091fc <__ieee754_pow+0x94>
 8009278:	f1b9 0f00 	cmp.w	r9, #0
 800927c:	dad2      	bge.n	8009224 <__ieee754_pow+0xbc>
 800927e:	e9dd 0300 	ldrd	r0, r3, [sp]
 8009282:	f103 4100 	add.w	r1, r3, #2147483648	; 0x80000000
 8009286:	e7cf      	b.n	8009228 <__ieee754_pow+0xc0>
 8009288:	f1b9 4f80 	cmp.w	r9, #1073741824	; 0x40000000
 800928c:	d106      	bne.n	800929c <__ieee754_pow+0x134>
 800928e:	4632      	mov	r2, r6
 8009290:	463b      	mov	r3, r7
 8009292:	4610      	mov	r0, r2
 8009294:	4619      	mov	r1, r3
 8009296:	f7f7 f9b7 	bl	8000608 <__aeabi_dmul>
 800929a:	e7c5      	b.n	8009228 <__ieee754_pow+0xc0>
 800929c:	4b39      	ldr	r3, [pc, #228]	; (8009384 <__ieee754_pow+0x21c>)
 800929e:	4599      	cmp	r9, r3
 80092a0:	d10a      	bne.n	80092b8 <__ieee754_pow+0x150>
 80092a2:	2d00      	cmp	r5, #0
 80092a4:	db08      	blt.n	80092b8 <__ieee754_pow+0x150>
 80092a6:	ec47 6b10 	vmov	d0, r6, r7
 80092aa:	b011      	add	sp, #68	; 0x44
 80092ac:	e8bd 4ff0 	ldmia.w	sp!, {r4, r5, r6, r7, r8, r9, sl, fp, lr}
 80092b0:	f000 bc68 	b.w	8009b84 <__ieee754_sqrt>
 80092b4:	f04f 0b00 	mov.w	fp, #0
 80092b8:	ec47 6b10 	vmov	d0, r6, r7
 80092bc:	f000 fd12 	bl	8009ce4 <fabs>
 80092c0:	ec51 0b10 	vmov	r0, r1, d0
 80092c4:	f1ba 0f00 	cmp.w	sl, #0
 80092c8:	d127      	bne.n	800931a <__ieee754_pow+0x1b2>
 80092ca:	b124      	cbz	r4, 80092d6 <__ieee754_pow+0x16e>
 80092cc:	4b2c      	ldr	r3, [pc, #176]	; (8009380 <__ieee754_pow+0x218>)
 80092ce:	f025 4240 	bic.w	r2, r5, #3221225472	; 0xc0000000
 80092d2:	429a      	cmp	r2, r3
 80092d4:	d121      	bne.n	800931a <__ieee754_pow+0x1b2>
 80092d6:	f1b9 0f00 	cmp.w	r9, #0
 80092da:	da05      	bge.n	80092e8 <__ieee754_pow+0x180>
 80092dc:	4602      	mov	r2, r0
 80092de:	460b      	mov	r3, r1
 80092e0:	2000      	movs	r0, #0
 80092e2:	4927      	ldr	r1, [pc, #156]	; (8009380 <__ieee754_pow+0x218>)
 80092e4:	f7f7 faba 	bl	800085c <__aeabi_ddiv>
 80092e8:	2d00      	cmp	r5, #0
 80092ea:	da9d      	bge.n	8009228 <__ieee754_pow+0xc0>
 80092ec:	f104 4440 	add.w	r4, r4, #3221225472	; 0xc0000000
 80092f0:	f504 1480 	add.w	r4, r4, #1048576	; 0x100000
 80092f4:	ea54 030b 	orrs.w	r3, r4, fp
 80092f8:	d108      	bne.n	800930c <__ieee754_pow+0x1a4>
 80092fa:	4602      	mov	r2, r0
 80092fc:	460b      	mov	r3, r1
 80092fe:	4610      	mov	r0, r2
 8009300:	4619      	mov	r1, r3
 8009302:	f7f6 ffc9 	bl	8000298 <__aeabi_dsub>
 8009306:	4602      	mov	r2, r0
 8009308:	460b      	mov	r3, r1
 800930a:	e7ac      	b.n	8009266 <__ieee754_pow+0xfe>
 800930c:	f1bb 0f01 	cmp.w	fp, #1
 8009310:	d18a      	bne.n	8009228 <__ieee754_pow+0xc0>
 8009312:	f101 4300 	add.w	r3, r1, #2147483648	; 0x80000000
 8009316:	4619      	mov	r1, r3
 8009318:	e786      	b.n	8009228 <__ieee754_pow+0xc0>
 800931a:	0fed      	lsrs	r5, r5, #31
 800931c:	1e6b      	subs	r3, r5, #1
 800931e:	930d      	str	r3, [sp, #52]	; 0x34
 8009320:	ea5b 0303 	orrs.w	r3, fp, r3
 8009324:	d102      	bne.n	800932c <__ieee754_pow+0x1c4>
 8009326:	4632      	mov	r2, r6
 8009328:	463b      	mov	r3, r7
 800932a:	e7e8      	b.n	80092fe <__ieee754_pow+0x196>
 800932c:	4b16      	ldr	r3, [pc, #88]	; (8009388 <__ieee754_pow+0x220>)
 800932e:	4598      	cmp	r8, r3
 8009330:	f340 80fe 	ble.w	8009530 <__ieee754_pow+0x3c8>
 8009334:	f103 7304 	add.w	r3, r3, #34603008	; 0x2100000
 8009338:	4598      	cmp	r8, r3
 800933a:	dd0a      	ble.n	8009352 <__ieee754_pow+0x1ea>
 800933c:	4b0f      	ldr	r3, [pc, #60]	; (800937c <__ieee754_pow+0x214>)
 800933e:	429c      	cmp	r4, r3
 8009340:	dc0d      	bgt.n	800935e <__ieee754_pow+0x1f6>
 8009342:	f1b9 0f00 	cmp.w	r9, #0
 8009346:	f6bf af6d 	bge.w	8009224 <__ieee754_pow+0xbc>
 800934a:	a307      	add	r3, pc, #28	; (adr r3, 8009368 <__ieee754_pow+0x200>)
 800934c:	e9d3 2300 	ldrd	r2, r3, [r3]
 8009350:	e79f      	b.n	8009292 <__ieee754_pow+0x12a>
 8009352:	4b0e      	ldr	r3, [pc, #56]	; (800938c <__ieee754_pow+0x224>)
 8009354:	429c      	cmp	r4, r3
 8009356:	ddf4      	ble.n	8009342 <__ieee754_pow+0x1da>
 8009358:	4b09      	ldr	r3, [pc, #36]	; (8009380 <__ieee754_pow+0x218>)
 800935a:	429c      	cmp	r4, r3
 800935c:	dd18      	ble.n	8009390 <__ieee754_pow+0x228>
 800935e:	f1b9 0f00 	cmp.w	r9, #0
 8009362:	dcf2      	bgt.n	800934a <__ieee754_pow+0x1e2>
 8009364:	e75e      	b.n	8009224 <__ieee754_pow+0xbc>
 8009366:	bf00      	nop
 8009368:	8800759c 	.word	0x8800759c
 800936c:	7e37e43c 	.word	0x7e37e43c
 8009370:	7ff00000 	.word	0x7ff00000
 8009374:	0800a185 	.word	0x0800a185
 8009378:	433fffff 	.word	0x433fffff
 800937c:	3fefffff 	.word	0x3fefffff
 8009380:	3ff00000 	.word	0x3ff00000
 8009384:	3fe00000 	.word	0x3fe00000
 8009388:	41e00000 	.word	0x41e00000
 800938c:	3feffffe 	.word	0x3feffffe
 8009390:	2200      	movs	r2, #0
 8009392:	4b63      	ldr	r3, [pc, #396]	; (8009520 <__ieee754_pow+0x3b8>)
 8009394:	f7f6 ff80 	bl	8000298 <__aeabi_dsub>
 8009398:	a355      	add	r3, pc, #340	; (adr r3, 80094f0 <__ieee754_pow+0x388>)
 800939a:	e9d3 2300 	ldrd	r2, r3, [r3]
 800939e:	4604      	mov	r4, r0
 80093a0:	460d      	mov	r5, r1
 80093a2:	f7f7 f931 	bl	8000608 <__aeabi_dmul>
 80093a6:	a354      	add	r3, pc, #336	; (adr r3, 80094f8 <__ieee754_pow+0x390>)
 80093a8:	e9d3 2300 	ldrd	r2, r3, [r3]
 80093ac:	4606      	mov	r6, r0
 80093ae:	460f      	mov	r7, r1
 80093b0:	4620      	mov	r0, r4
 80093b2:	4629      	mov	r1, r5
 80093b4:	f7f7 f928 	bl	8000608 <__aeabi_dmul>
 80093b8:	2200      	movs	r2, #0
 80093ba:	e9cd 0102 	strd	r0, r1, [sp, #8]
 80093be:	4b59      	ldr	r3, [pc, #356]	; (8009524 <__ieee754_pow+0x3bc>)
 80093c0:	4620      	mov	r0, r4
 80093c2:	4629      	mov	r1, r5
 80093c4:	f7f7 f920 	bl	8000608 <__aeabi_dmul>
 80093c8:	4602      	mov	r2, r0
 80093ca:	460b      	mov	r3, r1
 80093cc:	a14c      	add	r1, pc, #304	; (adr r1, 8009500 <__ieee754_pow+0x398>)
 80093ce:	e9d1 0100 	ldrd	r0, r1, [r1]
 80093d2:	f7f6 ff61 	bl	8000298 <__aeabi_dsub>
 80093d6:	4622      	mov	r2, r4
 80093d8:	462b      	mov	r3, r5
 80093da:	f7f7 f915 	bl	8000608 <__aeabi_dmul>
 80093de:	4602      	mov	r2, r0
 80093e0:	460b      	mov	r3, r1
 80093e2:	2000      	movs	r0, #0
 80093e4:	4950      	ldr	r1, [pc, #320]	; (8009528 <__ieee754_pow+0x3c0>)
 80093e6:	f7f6 ff57 	bl	8000298 <__aeabi_dsub>
 80093ea:	4622      	mov	r2, r4
 80093ec:	462b      	mov	r3, r5
 80093ee:	4680      	mov	r8, r0
 80093f0:	4689      	mov	r9, r1
 80093f2:	4620      	mov	r0, r4
 80093f4:	4629      	mov	r1, r5
 80093f6:	f7f7 f907 	bl	8000608 <__aeabi_dmul>
 80093fa:	4602      	mov	r2, r0
 80093fc:	460b      	mov	r3, r1
 80093fe:	4640      	mov	r0, r8
 8009400:	4649      	mov	r1, r9
 8009402:	f7f7 f901 	bl	8000608 <__aeabi_dmul>
 8009406:	a340      	add	r3, pc, #256	; (adr r3, 8009508 <__ieee754_pow+0x3a0>)
 8009408:	e9d3 2300 	ldrd	r2, r3, [r3]
 800940c:	f7f7 f8fc 	bl	8000608 <__aeabi_dmul>
 8009410:	4602      	mov	r2, r0
 8009412:	460b      	mov	r3, r1
 8009414:	e9dd 0102 	ldrd	r0, r1, [sp, #8]
 8009418:	f7f6 ff3e 	bl	8000298 <__aeabi_dsub>
 800941c:	4602      	mov	r2, r0
 800941e:	460b      	mov	r3, r1
 8009420:	4604      	mov	r4, r0
 8009422:	460d      	mov	r5, r1
 8009424:	4630      	mov	r0, r6
 8009426:	4639      	mov	r1, r7
 8009428:	f7f6 ff38 	bl	800029c <__adddf3>
 800942c:	2000      	movs	r0, #0
 800942e:	e9cd 0104 	strd	r0, r1, [sp, #16]
 8009432:	4632      	mov	r2, r6
 8009434:	463b      	mov	r3, r7
 8009436:	f7f6 ff2f 	bl	8000298 <__aeabi_dsub>
 800943a:	4602      	mov	r2, r0
 800943c:	460b      	mov	r3, r1
 800943e:	4620      	mov	r0, r4
 8009440:	4629      	mov	r1, r5
 8009442:	f7f6 ff29 	bl	8000298 <__aeabi_dsub>
 8009446:	9a0d      	ldr	r2, [sp, #52]	; 0x34
 8009448:	f10b 33ff 	add.w	r3, fp, #4294967295
 800944c:	4313      	orrs	r3, r2
 800944e:	4606      	mov	r6, r0
 8009450:	460f      	mov	r7, r1
 8009452:	f040 81eb 	bne.w	800982c <__ieee754_pow+0x6c4>
 8009456:	ed9f 7b2e 	vldr	d7, [pc, #184]	; 8009510 <__ieee754_pow+0x3a8>
 800945a:	e9dd 4500 	ldrd	r4, r5, [sp]
 800945e:	2400      	movs	r4, #0
 8009460:	4622      	mov	r2, r4
 8009462:	462b      	mov	r3, r5
 8009464:	e9dd 0100 	ldrd	r0, r1, [sp]
 8009468:	ed8d 7b02 	vstr	d7, [sp, #8]
 800946c:	f7f6 ff14 	bl	8000298 <__aeabi_dsub>
 8009470:	e9dd 2304 	ldrd	r2, r3, [sp, #16]
 8009474:	f7f7 f8c8 	bl	8000608 <__aeabi_dmul>
 8009478:	e9dd 2300 	ldrd	r2, r3, [sp]
 800947c:	4680      	mov	r8, r0
 800947e:	4689      	mov	r9, r1
 8009480:	4630      	mov	r0, r6
 8009482:	4639      	mov	r1, r7
 8009484:	f7f7 f8c0 	bl	8000608 <__aeabi_dmul>
 8009488:	4602      	mov	r2, r0
 800948a:	460b      	mov	r3, r1
 800948c:	4640      	mov	r0, r8
 800948e:	4649      	mov	r1, r9
 8009490:	f7f6 ff04 	bl	800029c <__adddf3>
 8009494:	4622      	mov	r2, r4
 8009496:	462b      	mov	r3, r5
 8009498:	4680      	mov	r8, r0
 800949a:	4689      	mov	r9, r1
 800949c:	e9dd 0104 	ldrd	r0, r1, [sp, #16]
 80094a0:	f7f7 f8b2 	bl	8000608 <__aeabi_dmul>
 80094a4:	460b      	mov	r3, r1
 80094a6:	4604      	mov	r4, r0
 80094a8:	460d      	mov	r5, r1
 80094aa:	4602      	mov	r2, r0
 80094ac:	4649      	mov	r1, r9
 80094ae:	4640      	mov	r0, r8
 80094b0:	e9cd 4500 	strd	r4, r5, [sp]
 80094b4:	f7f6 fef2 	bl	800029c <__adddf3>
 80094b8:	4b1c      	ldr	r3, [pc, #112]	; (800952c <__ieee754_pow+0x3c4>)
 80094ba:	4299      	cmp	r1, r3
 80094bc:	4606      	mov	r6, r0
 80094be:	460f      	mov	r7, r1
 80094c0:	468b      	mov	fp, r1
 80094c2:	f340 82f7 	ble.w	8009ab4 <__ieee754_pow+0x94c>
 80094c6:	f101 433f 	add.w	r3, r1, #3204448256	; 0xbf000000
 80094ca:	f503 03e0 	add.w	r3, r3, #7340032	; 0x700000
 80094ce:	4303      	orrs	r3, r0
 80094d0:	f000 81ea 	beq.w	80098a8 <__ieee754_pow+0x740>
 80094d4:	a310      	add	r3, pc, #64	; (adr r3, 8009518 <__ieee754_pow+0x3b0>)
 80094d6:	e9d3 2300 	ldrd	r2, r3, [r3]
 80094da:	e9dd 0102 	ldrd	r0, r1, [sp, #8]
 80094de:	f7f7 f893 	bl	8000608 <__aeabi_dmul>
 80094e2:	a30d      	add	r3, pc, #52	; (adr r3, 8009518 <__ieee754_pow+0x3b0>)
 80094e4:	e9d3 2300 	ldrd	r2, r3, [r3]
 80094e8:	e6d5      	b.n	8009296 <__ieee754_pow+0x12e>
 80094ea:	bf00      	nop
 80094ec:	f3af 8000 	nop.w
 80094f0:	60000000 	.word	0x60000000
 80094f4:	3ff71547 	.word	0x3ff71547
 80094f8:	f85ddf44 	.word	0xf85ddf44
 80094fc:	3e54ae0b 	.word	0x3e54ae0b
 8009500:	55555555 	.word	0x55555555
 8009504:	3fd55555 	.word	0x3fd55555
 8009508:	652b82fe 	.word	0x652b82fe
 800950c:	3ff71547 	.word	0x3ff71547
 8009510:	00000000 	.word	0x00000000
 8009514:	bff00000 	.word	0xbff00000
 8009518:	8800759c 	.word	0x8800759c
 800951c:	7e37e43c 	.word	0x7e37e43c
 8009520:	3ff00000 	.word	0x3ff00000
 8009524:	3fd00000 	.word	0x3fd00000
 8009528:	3fe00000 	.word	0x3fe00000
 800952c:	408fffff 	.word	0x408fffff
 8009530:	f5b4 1f80 	cmp.w	r4, #1048576	; 0x100000
 8009534:	f04f 0200 	mov.w	r2, #0
 8009538:	da05      	bge.n	8009546 <__ieee754_pow+0x3de>
 800953a:	4bd3      	ldr	r3, [pc, #844]	; (8009888 <__ieee754_pow+0x720>)
 800953c:	f7f7 f864 	bl	8000608 <__aeabi_dmul>
 8009540:	f06f 0234 	mvn.w	r2, #52	; 0x34
 8009544:	460c      	mov	r4, r1
 8009546:	1523      	asrs	r3, r4, #20
 8009548:	f2a3 33ff 	subw	r3, r3, #1023	; 0x3ff
 800954c:	4413      	add	r3, r2
 800954e:	9309      	str	r3, [sp, #36]	; 0x24
 8009550:	4bce      	ldr	r3, [pc, #824]	; (800988c <__ieee754_pow+0x724>)
 8009552:	f3c4 0413 	ubfx	r4, r4, #0, #20
 8009556:	f044 557f 	orr.w	r5, r4, #1069547520	; 0x3fc00000
 800955a:	429c      	cmp	r4, r3
 800955c:	f445 1540 	orr.w	r5, r5, #3145728	; 0x300000
 8009560:	dd08      	ble.n	8009574 <__ieee754_pow+0x40c>
 8009562:	4bcb      	ldr	r3, [pc, #812]	; (8009890 <__ieee754_pow+0x728>)
 8009564:	429c      	cmp	r4, r3
 8009566:	f340 815e 	ble.w	8009826 <__ieee754_pow+0x6be>
 800956a:	9b09      	ldr	r3, [sp, #36]	; 0x24
 800956c:	3301      	adds	r3, #1
 800956e:	9309      	str	r3, [sp, #36]	; 0x24
 8009570:	f5a5 1580 	sub.w	r5, r5, #1048576	; 0x100000
 8009574:	f04f 0a00 	mov.w	sl, #0
 8009578:	ea4f 03ca 	mov.w	r3, sl, lsl #3
 800957c:	930c      	str	r3, [sp, #48]	; 0x30
 800957e:	9a0c      	ldr	r2, [sp, #48]	; 0x30
 8009580:	4bc4      	ldr	r3, [pc, #784]	; (8009894 <__ieee754_pow+0x72c>)
 8009582:	4413      	add	r3, r2
 8009584:	ed93 7b00 	vldr	d7, [r3]
 8009588:	4629      	mov	r1, r5
 800958a:	ec53 2b17 	vmov	r2, r3, d7
 800958e:	ed8d 7b06 	vstr	d7, [sp, #24]
 8009592:	e9cd 010a 	strd	r0, r1, [sp, #40]	; 0x28
 8009596:	f7f6 fe7f 	bl	8000298 <__aeabi_dsub>
 800959a:	e9dd 230a 	ldrd	r2, r3, [sp, #40]	; 0x28
 800959e:	4606      	mov	r6, r0
 80095a0:	460f      	mov	r7, r1
 80095a2:	e9dd 0106 	ldrd	r0, r1, [sp, #24]
 80095a6:	f7f6 fe79 	bl	800029c <__adddf3>
 80095aa:	4602      	mov	r2, r0
 80095ac:	460b      	mov	r3, r1
 80095ae:	2000      	movs	r0, #0
 80095b0:	49b9      	ldr	r1, [pc, #740]	; (8009898 <__ieee754_pow+0x730>)
 80095b2:	f7f7 f953 	bl	800085c <__aeabi_ddiv>
 80095b6:	e9cd 010e 	strd	r0, r1, [sp, #56]	; 0x38
 80095ba:	4602      	mov	r2, r0
 80095bc:	460b      	mov	r3, r1
 80095be:	4630      	mov	r0, r6
 80095c0:	4639      	mov	r1, r7
 80095c2:	f7f7 f821 	bl	8000608 <__aeabi_dmul>
 80095c6:	e9cd 0104 	strd	r0, r1, [sp, #16]
 80095ca:	e9dd 3404 	ldrd	r3, r4, [sp, #16]
 80095ce:	e9cd 3402 	strd	r3, r4, [sp, #8]
 80095d2:	2300      	movs	r3, #0
 80095d4:	9302      	str	r3, [sp, #8]
 80095d6:	e9dd 8902 	ldrd	r8, r9, [sp, #8]
 80095da:	106d      	asrs	r5, r5, #1
 80095dc:	f045 5500 	orr.w	r5, r5, #536870912	; 0x20000000
 80095e0:	f505 2500 	add.w	r5, r5, #524288	; 0x80000
 80095e4:	2200      	movs	r2, #0
 80095e6:	eb05 438a 	add.w	r3, r5, sl, lsl #18
 80095ea:	4640      	mov	r0, r8
 80095ec:	4649      	mov	r1, r9
 80095ee:	4614      	mov	r4, r2
 80095f0:	461d      	mov	r5, r3
 80095f2:	f7f7 f809 	bl	8000608 <__aeabi_dmul>
 80095f6:	4602      	mov	r2, r0
 80095f8:	460b      	mov	r3, r1
 80095fa:	4630      	mov	r0, r6
 80095fc:	4639      	mov	r1, r7
 80095fe:	f7f6 fe4b 	bl	8000298 <__aeabi_dsub>
 8009602:	e9dd 2306 	ldrd	r2, r3, [sp, #24]
 8009606:	4606      	mov	r6, r0
 8009608:	460f      	mov	r7, r1
 800960a:	4620      	mov	r0, r4
 800960c:	4629      	mov	r1, r5
 800960e:	f7f6 fe43 	bl	8000298 <__aeabi_dsub>
 8009612:	4602      	mov	r2, r0
 8009614:	460b      	mov	r3, r1
 8009616:	e9dd 010a 	ldrd	r0, r1, [sp, #40]	; 0x28
 800961a:	f7f6 fe3d 	bl	8000298 <__aeabi_dsub>
 800961e:	4642      	mov	r2, r8
 8009620:	464b      	mov	r3, r9
 8009622:	f7f6 fff1 	bl	8000608 <__aeabi_dmul>
 8009626:	4602      	mov	r2, r0
 8009628:	460b      	mov	r3, r1
 800962a:	4630      	mov	r0, r6
 800962c:	4639      	mov	r1, r7
 800962e:	f7f6 fe33 	bl	8000298 <__aeabi_dsub>
 8009632:	e9dd 230e 	ldrd	r2, r3, [sp, #56]	; 0x38
 8009636:	f7f6 ffe7 	bl	8000608 <__aeabi_dmul>
 800963a:	e9dd 2304 	ldrd	r2, r3, [sp, #16]
 800963e:	e9cd 0106 	strd	r0, r1, [sp, #24]
 8009642:	4610      	mov	r0, r2
 8009644:	4619      	mov	r1, r3
 8009646:	f7f6 ffdf 	bl	8000608 <__aeabi_dmul>
 800964a:	a37b      	add	r3, pc, #492	; (adr r3, 8009838 <__ieee754_pow+0x6d0>)
 800964c:	e9d3 2300 	ldrd	r2, r3, [r3]
 8009650:	4604      	mov	r4, r0
 8009652:	460d      	mov	r5, r1
 8009654:	f7f6 ffd8 	bl	8000608 <__aeabi_dmul>
 8009658:	a379      	add	r3, pc, #484	; (adr r3, 8009840 <__ieee754_pow+0x6d8>)
 800965a:	e9d3 2300 	ldrd	r2, r3, [r3]
 800965e:	f7f6 fe1d 	bl	800029c <__adddf3>
 8009662:	4622      	mov	r2, r4
 8009664:	462b      	mov	r3, r5
 8009666:	f7f6 ffcf 	bl	8000608 <__aeabi_dmul>
 800966a:	a377      	add	r3, pc, #476	; (adr r3, 8009848 <__ieee754_pow+0x6e0>)
 800966c:	e9d3 2300 	ldrd	r2, r3, [r3]
 8009670:	f7f6 fe14 	bl	800029c <__adddf3>
 8009674:	4622      	mov	r2, r4
 8009676:	462b      	mov	r3, r5
 8009678:	f7f6 ffc6 	bl	8000608 <__aeabi_dmul>
 800967c:	a374      	add	r3, pc, #464	; (adr r3, 8009850 <__ieee754_pow+0x6e8>)
 800967e:	e9d3 2300 	ldrd	r2, r3, [r3]
 8009682:	f7f6 fe0b 	bl	800029c <__adddf3>
 8009686:	4622      	mov	r2, r4
 8009688:	462b      	mov	r3, r5
 800968a:	f7f6 ffbd 	bl	8000608 <__aeabi_dmul>
 800968e:	a372      	add	r3, pc, #456	; (adr r3, 8009858 <__ieee754_pow+0x6f0>)
 8009690:	e9d3 2300 	ldrd	r2, r3, [r3]
 8009694:	f7f6 fe02 	bl	800029c <__adddf3>
 8009698:	4622      	mov	r2, r4
 800969a:	462b      	mov	r3, r5
 800969c:	f7f6 ffb4 	bl	8000608 <__aeabi_dmul>
 80096a0:	a36f      	add	r3, pc, #444	; (adr r3, 8009860 <__ieee754_pow+0x6f8>)
 80096a2:	e9d3 2300 	ldrd	r2, r3, [r3]
 80096a6:	f7f6 fdf9 	bl	800029c <__adddf3>
 80096aa:	4622      	mov	r2, r4
 80096ac:	4606      	mov	r6, r0
 80096ae:	460f      	mov	r7, r1
 80096b0:	462b      	mov	r3, r5
 80096b2:	4620      	mov	r0, r4
 80096b4:	4629      	mov	r1, r5
 80096b6:	f7f6 ffa7 	bl	8000608 <__aeabi_dmul>
 80096ba:	4602      	mov	r2, r0
 80096bc:	460b      	mov	r3, r1
 80096be:	4630      	mov	r0, r6
 80096c0:	4639      	mov	r1, r7
 80096c2:	f7f6 ffa1 	bl	8000608 <__aeabi_dmul>
 80096c6:	4642      	mov	r2, r8
 80096c8:	4604      	mov	r4, r0
 80096ca:	460d      	mov	r5, r1
 80096cc:	464b      	mov	r3, r9
 80096ce:	e9dd 0104 	ldrd	r0, r1, [sp, #16]
 80096d2:	f7f6 fde3 	bl	800029c <__adddf3>
 80096d6:	e9dd 2306 	ldrd	r2, r3, [sp, #24]
 80096da:	f7f6 ff95 	bl	8000608 <__aeabi_dmul>
 80096de:	4622      	mov	r2, r4
 80096e0:	462b      	mov	r3, r5
 80096e2:	f7f6 fddb 	bl	800029c <__adddf3>
 80096e6:	4642      	mov	r2, r8
 80096e8:	4606      	mov	r6, r0
 80096ea:	460f      	mov	r7, r1
 80096ec:	464b      	mov	r3, r9
 80096ee:	4640      	mov	r0, r8
 80096f0:	4649      	mov	r1, r9
 80096f2:	f7f6 ff89 	bl	8000608 <__aeabi_dmul>
 80096f6:	2200      	movs	r2, #0
 80096f8:	4b68      	ldr	r3, [pc, #416]	; (800989c <__ieee754_pow+0x734>)
 80096fa:	e9cd 010a 	strd	r0, r1, [sp, #40]	; 0x28
 80096fe:	f7f6 fdcd 	bl	800029c <__adddf3>
 8009702:	4632      	mov	r2, r6
 8009704:	463b      	mov	r3, r7
 8009706:	f7f6 fdc9 	bl	800029c <__adddf3>
 800970a:	9802      	ldr	r0, [sp, #8]
 800970c:	460d      	mov	r5, r1
 800970e:	4604      	mov	r4, r0
 8009710:	4602      	mov	r2, r0
 8009712:	460b      	mov	r3, r1
 8009714:	4640      	mov	r0, r8
 8009716:	4649      	mov	r1, r9
 8009718:	f7f6 ff76 	bl	8000608 <__aeabi_dmul>
 800971c:	2200      	movs	r2, #0
 800971e:	4680      	mov	r8, r0
 8009720:	4689      	mov	r9, r1
 8009722:	4b5e      	ldr	r3, [pc, #376]	; (800989c <__ieee754_pow+0x734>)
 8009724:	4620      	mov	r0, r4
 8009726:	4629      	mov	r1, r5
 8009728:	f7f6 fdb6 	bl	8000298 <__aeabi_dsub>
 800972c:	e9dd 230a 	ldrd	r2, r3, [sp, #40]	; 0x28
 8009730:	f7f6 fdb2 	bl	8000298 <__aeabi_dsub>
 8009734:	4602      	mov	r2, r0
 8009736:	460b      	mov	r3, r1
 8009738:	4630      	mov	r0, r6
 800973a:	4639      	mov	r1, r7
 800973c:	f7f6 fdac 	bl	8000298 <__aeabi_dsub>
 8009740:	e9dd 2304 	ldrd	r2, r3, [sp, #16]
 8009744:	f7f6 ff60 	bl	8000608 <__aeabi_dmul>
 8009748:	4622      	mov	r2, r4
 800974a:	4606      	mov	r6, r0
 800974c:	460f      	mov	r7, r1
 800974e:	462b      	mov	r3, r5
 8009750:	e9dd 0106 	ldrd	r0, r1, [sp, #24]
 8009754:	f7f6 ff58 	bl	8000608 <__aeabi_dmul>
 8009758:	4602      	mov	r2, r0
 800975a:	460b      	mov	r3, r1
 800975c:	4630      	mov	r0, r6
 800975e:	4639      	mov	r1, r7
 8009760:	f7f6 fd9c 	bl	800029c <__adddf3>
 8009764:	4606      	mov	r6, r0
 8009766:	460f      	mov	r7, r1
 8009768:	4602      	mov	r2, r0
 800976a:	460b      	mov	r3, r1
 800976c:	4640      	mov	r0, r8
 800976e:	4649      	mov	r1, r9
 8009770:	f7f6 fd94 	bl	800029c <__adddf3>
 8009774:	9802      	ldr	r0, [sp, #8]
 8009776:	a33c      	add	r3, pc, #240	; (adr r3, 8009868 <__ieee754_pow+0x700>)
 8009778:	e9d3 2300 	ldrd	r2, r3, [r3]
 800977c:	4604      	mov	r4, r0
 800977e:	460d      	mov	r5, r1
 8009780:	f7f6 ff42 	bl	8000608 <__aeabi_dmul>
 8009784:	4642      	mov	r2, r8
 8009786:	e9cd 0106 	strd	r0, r1, [sp, #24]
 800978a:	464b      	mov	r3, r9
 800978c:	4620      	mov	r0, r4
 800978e:	4629      	mov	r1, r5
 8009790:	f7f6 fd82 	bl	8000298 <__aeabi_dsub>
 8009794:	4602      	mov	r2, r0
 8009796:	460b      	mov	r3, r1
 8009798:	4630      	mov	r0, r6
 800979a:	4639      	mov	r1, r7
 800979c:	f7f6 fd7c 	bl	8000298 <__aeabi_dsub>
 80097a0:	a333      	add	r3, pc, #204	; (adr r3, 8009870 <__ieee754_pow+0x708>)
 80097a2:	e9d3 2300 	ldrd	r2, r3, [r3]
 80097a6:	f7f6 ff2f 	bl	8000608 <__aeabi_dmul>
 80097aa:	a333      	add	r3, pc, #204	; (adr r3, 8009878 <__ieee754_pow+0x710>)
 80097ac:	e9d3 2300 	ldrd	r2, r3, [r3]
 80097b0:	4606      	mov	r6, r0
 80097b2:	460f      	mov	r7, r1
 80097b4:	4620      	mov	r0, r4
 80097b6:	4629      	mov	r1, r5
 80097b8:	f7f6 ff26 	bl	8000608 <__aeabi_dmul>
 80097bc:	4602      	mov	r2, r0
 80097be:	460b      	mov	r3, r1
 80097c0:	4630      	mov	r0, r6
 80097c2:	4639      	mov	r1, r7
 80097c4:	f7f6 fd6a 	bl	800029c <__adddf3>
 80097c8:	9a0c      	ldr	r2, [sp, #48]	; 0x30
 80097ca:	4b35      	ldr	r3, [pc, #212]	; (80098a0 <__ieee754_pow+0x738>)
 80097cc:	4413      	add	r3, r2
 80097ce:	e9d3 2300 	ldrd	r2, r3, [r3]
 80097d2:	f7f6 fd63 	bl	800029c <__adddf3>
 80097d6:	4604      	mov	r4, r0
 80097d8:	9809      	ldr	r0, [sp, #36]	; 0x24
 80097da:	460d      	mov	r5, r1
 80097dc:	f7f6 feaa 	bl	8000534 <__aeabi_i2d>
 80097e0:	9a0c      	ldr	r2, [sp, #48]	; 0x30
 80097e2:	4b30      	ldr	r3, [pc, #192]	; (80098a4 <__ieee754_pow+0x73c>)
 80097e4:	4413      	add	r3, r2
 80097e6:	e9d3 8900 	ldrd	r8, r9, [r3]
 80097ea:	4606      	mov	r6, r0
 80097ec:	460f      	mov	r7, r1
 80097ee:	4622      	mov	r2, r4
 80097f0:	462b      	mov	r3, r5
 80097f2:	e9dd 0106 	ldrd	r0, r1, [sp, #24]
 80097f6:	f7f6 fd51 	bl	800029c <__adddf3>
 80097fa:	4642      	mov	r2, r8
 80097fc:	464b      	mov	r3, r9
 80097fe:	f7f6 fd4d 	bl	800029c <__adddf3>
 8009802:	4632      	mov	r2, r6
 8009804:	463b      	mov	r3, r7
 8009806:	f7f6 fd49 	bl	800029c <__adddf3>
 800980a:	9802      	ldr	r0, [sp, #8]
 800980c:	4632      	mov	r2, r6
 800980e:	463b      	mov	r3, r7
 8009810:	e9cd 0104 	strd	r0, r1, [sp, #16]
 8009814:	f7f6 fd40 	bl	8000298 <__aeabi_dsub>
 8009818:	4642      	mov	r2, r8
 800981a:	464b      	mov	r3, r9
 800981c:	f7f6 fd3c 	bl	8000298 <__aeabi_dsub>
 8009820:	e9dd 2306 	ldrd	r2, r3, [sp, #24]
 8009824:	e607      	b.n	8009436 <__ieee754_pow+0x2ce>
 8009826:	f04f 0a01 	mov.w	sl, #1
 800982a:	e6a5      	b.n	8009578 <__ieee754_pow+0x410>
 800982c:	ed9f 7b14 	vldr	d7, [pc, #80]	; 8009880 <__ieee754_pow+0x718>
 8009830:	e613      	b.n	800945a <__ieee754_pow+0x2f2>
 8009832:	bf00      	nop
 8009834:	f3af 8000 	nop.w
 8009838:	4a454eef 	.word	0x4a454eef
 800983c:	3fca7e28 	.word	0x3fca7e28
 8009840:	93c9db65 	.word	0x93c9db65
 8009844:	3fcd864a 	.word	0x3fcd864a
 8009848:	a91d4101 	.word	0xa91d4101
 800984c:	3fd17460 	.word	0x3fd17460
 8009850:	518f264d 	.word	0x518f264d
 8009854:	3fd55555 	.word	0x3fd55555
 8009858:	db6fabff 	.word	0xdb6fabff
 800985c:	3fdb6db6 	.word	0x3fdb6db6
 8009860:	33333303 	.word	0x33333303
 8009864:	3fe33333 	.word	0x3fe33333
 8009868:	e0000000 	.word	0xe0000000
 800986c:	3feec709 	.word	0x3feec709
 8009870:	dc3a03fd 	.word	0xdc3a03fd
 8009874:	3feec709 	.word	0x3feec709
 8009878:	145b01f5 	.word	0x145b01f5
 800987c:	be3e2fe0 	.word	0xbe3e2fe0
 8009880:	00000000 	.word	0x00000000
 8009884:	3ff00000 	.word	0x3ff00000
 8009888:	43400000 	.word	0x43400000
 800988c:	0003988e 	.word	0x0003988e
 8009890:	000bb679 	.word	0x000bb679
 8009894:	0800a1b8 	.word	0x0800a1b8
 8009898:	3ff00000 	.word	0x3ff00000
 800989c:	40080000 	.word	0x40080000
 80098a0:	0800a1d8 	.word	0x0800a1d8
 80098a4:	0800a1c8 	.word	0x0800a1c8
 80098a8:	a3b4      	add	r3, pc, #720	; (adr r3, 8009b7c <__ieee754_pow+0xa14>)
 80098aa:	e9d3 2300 	ldrd	r2, r3, [r3]
 80098ae:	4640      	mov	r0, r8
 80098b0:	4649      	mov	r1, r9
 80098b2:	f7f6 fcf3 	bl	800029c <__adddf3>
 80098b6:	4622      	mov	r2, r4
 80098b8:	e9cd 0104 	strd	r0, r1, [sp, #16]
 80098bc:	462b      	mov	r3, r5
 80098be:	4630      	mov	r0, r6
 80098c0:	4639      	mov	r1, r7
 80098c2:	f7f6 fce9 	bl	8000298 <__aeabi_dsub>
 80098c6:	4602      	mov	r2, r0
 80098c8:	460b      	mov	r3, r1
 80098ca:	e9dd 0104 	ldrd	r0, r1, [sp, #16]
 80098ce:	f7f7 f92b 	bl	8000b28 <__aeabi_dcmpgt>
 80098d2:	2800      	cmp	r0, #0
 80098d4:	f47f adfe 	bne.w	80094d4 <__ieee754_pow+0x36c>
 80098d8:	4aa3      	ldr	r2, [pc, #652]	; (8009b68 <__ieee754_pow+0xa00>)
 80098da:	f02b 4300 	bic.w	r3, fp, #2147483648	; 0x80000000
 80098de:	4293      	cmp	r3, r2
 80098e0:	f340 810a 	ble.w	8009af8 <__ieee754_pow+0x990>
 80098e4:	151b      	asrs	r3, r3, #20
 80098e6:	f44f 1a80 	mov.w	sl, #1048576	; 0x100000
 80098ea:	f2a3 33fe 	subw	r3, r3, #1022	; 0x3fe
 80098ee:	fa4a f303 	asr.w	r3, sl, r3
 80098f2:	445b      	add	r3, fp
 80098f4:	f3c3 520a 	ubfx	r2, r3, #20, #11
 80098f8:	4e9c      	ldr	r6, [pc, #624]	; (8009b6c <__ieee754_pow+0xa04>)
 80098fa:	f2a2 32ff 	subw	r2, r2, #1023	; 0x3ff
 80098fe:	4116      	asrs	r6, r2
 8009900:	f3c3 0a13 	ubfx	sl, r3, #0, #20
 8009904:	2000      	movs	r0, #0
 8009906:	ea23 0106 	bic.w	r1, r3, r6
 800990a:	f1c2 0214 	rsb	r2, r2, #20
 800990e:	f44a 1a80 	orr.w	sl, sl, #1048576	; 0x100000
 8009912:	fa4a fa02 	asr.w	sl, sl, r2
 8009916:	f1bb 0f00 	cmp.w	fp, #0
 800991a:	4602      	mov	r2, r0
 800991c:	460b      	mov	r3, r1
 800991e:	4620      	mov	r0, r4
 8009920:	4629      	mov	r1, r5
 8009922:	bfb8      	it	lt
 8009924:	f1ca 0a00 	rsblt	sl, sl, #0
 8009928:	f7f6 fcb6 	bl	8000298 <__aeabi_dsub>
 800992c:	e9cd 0100 	strd	r0, r1, [sp]
 8009930:	4642      	mov	r2, r8
 8009932:	464b      	mov	r3, r9
 8009934:	e9dd 0100 	ldrd	r0, r1, [sp]
 8009938:	f7f6 fcb0 	bl	800029c <__adddf3>
 800993c:	2000      	movs	r0, #0
 800993e:	a378      	add	r3, pc, #480	; (adr r3, 8009b20 <__ieee754_pow+0x9b8>)
 8009940:	e9d3 2300 	ldrd	r2, r3, [r3]
 8009944:	4604      	mov	r4, r0
 8009946:	460d      	mov	r5, r1
 8009948:	f7f6 fe5e 	bl	8000608 <__aeabi_dmul>
 800994c:	e9dd 2300 	ldrd	r2, r3, [sp]
 8009950:	4606      	mov	r6, r0
 8009952:	460f      	mov	r7, r1
 8009954:	4620      	mov	r0, r4
 8009956:	4629      	mov	r1, r5
 8009958:	f7f6 fc9e 	bl	8000298 <__aeabi_dsub>
 800995c:	4602      	mov	r2, r0
 800995e:	460b      	mov	r3, r1
 8009960:	4640      	mov	r0, r8
 8009962:	4649      	mov	r1, r9
 8009964:	f7f6 fc98 	bl	8000298 <__aeabi_dsub>
 8009968:	a36f      	add	r3, pc, #444	; (adr r3, 8009b28 <__ieee754_pow+0x9c0>)
 800996a:	e9d3 2300 	ldrd	r2, r3, [r3]
 800996e:	f7f6 fe4b 	bl	8000608 <__aeabi_dmul>
 8009972:	a36f      	add	r3, pc, #444	; (adr r3, 8009b30 <__ieee754_pow+0x9c8>)
 8009974:	e9d3 2300 	ldrd	r2, r3, [r3]
 8009978:	4680      	mov	r8, r0
 800997a:	4689      	mov	r9, r1
 800997c:	4620      	mov	r0, r4
 800997e:	4629      	mov	r1, r5
 8009980:	f7f6 fe42 	bl	8000608 <__aeabi_dmul>
 8009984:	4602      	mov	r2, r0
 8009986:	460b      	mov	r3, r1
 8009988:	4640      	mov	r0, r8
 800998a:	4649      	mov	r1, r9
 800998c:	f7f6 fc86 	bl	800029c <__adddf3>
 8009990:	4604      	mov	r4, r0
 8009992:	460d      	mov	r5, r1
 8009994:	4602      	mov	r2, r0
 8009996:	460b      	mov	r3, r1
 8009998:	4630      	mov	r0, r6
 800999a:	4639      	mov	r1, r7
 800999c:	f7f6 fc7e 	bl	800029c <__adddf3>
 80099a0:	4632      	mov	r2, r6
 80099a2:	463b      	mov	r3, r7
 80099a4:	4680      	mov	r8, r0
 80099a6:	4689      	mov	r9, r1
 80099a8:	f7f6 fc76 	bl	8000298 <__aeabi_dsub>
 80099ac:	4602      	mov	r2, r0
 80099ae:	460b      	mov	r3, r1
 80099b0:	4620      	mov	r0, r4
 80099b2:	4629      	mov	r1, r5
 80099b4:	f7f6 fc70 	bl	8000298 <__aeabi_dsub>
 80099b8:	4642      	mov	r2, r8
 80099ba:	4606      	mov	r6, r0
 80099bc:	460f      	mov	r7, r1
 80099be:	464b      	mov	r3, r9
 80099c0:	4640      	mov	r0, r8
 80099c2:	4649      	mov	r1, r9
 80099c4:	f7f6 fe20 	bl	8000608 <__aeabi_dmul>
 80099c8:	a35b      	add	r3, pc, #364	; (adr r3, 8009b38 <__ieee754_pow+0x9d0>)
 80099ca:	e9d3 2300 	ldrd	r2, r3, [r3]
 80099ce:	4604      	mov	r4, r0
 80099d0:	460d      	mov	r5, r1
 80099d2:	f7f6 fe19 	bl	8000608 <__aeabi_dmul>
 80099d6:	a35a      	add	r3, pc, #360	; (adr r3, 8009b40 <__ieee754_pow+0x9d8>)
 80099d8:	e9d3 2300 	ldrd	r2, r3, [r3]
 80099dc:	f7f6 fc5c 	bl	8000298 <__aeabi_dsub>
 80099e0:	4622      	mov	r2, r4
 80099e2:	462b      	mov	r3, r5
 80099e4:	f7f6 fe10 	bl	8000608 <__aeabi_dmul>
 80099e8:	a357      	add	r3, pc, #348	; (adr r3, 8009b48 <__ieee754_pow+0x9e0>)
 80099ea:	e9d3 2300 	ldrd	r2, r3, [r3]
 80099ee:	f7f6 fc55 	bl	800029c <__adddf3>
 80099f2:	4622      	mov	r2, r4
 80099f4:	462b      	mov	r3, r5
 80099f6:	f7f6 fe07 	bl	8000608 <__aeabi_dmul>
 80099fa:	a355      	add	r3, pc, #340	; (adr r3, 8009b50 <__ieee754_pow+0x9e8>)
 80099fc:	e9d3 2300 	ldrd	r2, r3, [r3]
 8009a00:	f7f6 fc4a 	bl	8000298 <__aeabi_dsub>
 8009a04:	4622      	mov	r2, r4
 8009a06:	462b      	mov	r3, r5
 8009a08:	f7f6 fdfe 	bl	8000608 <__aeabi_dmul>
 8009a0c:	a352      	add	r3, pc, #328	; (adr r3, 8009b58 <__ieee754_pow+0x9f0>)
 8009a0e:	e9d3 2300 	ldrd	r2, r3, [r3]
 8009a12:	f7f6 fc43 	bl	800029c <__adddf3>
 8009a16:	4622      	mov	r2, r4
 8009a18:	462b      	mov	r3, r5
 8009a1a:	f7f6 fdf5 	bl	8000608 <__aeabi_dmul>
 8009a1e:	4602      	mov	r2, r0
 8009a20:	460b      	mov	r3, r1
 8009a22:	4640      	mov	r0, r8
 8009a24:	4649      	mov	r1, r9
 8009a26:	f7f6 fc37 	bl	8000298 <__aeabi_dsub>
 8009a2a:	4604      	mov	r4, r0
 8009a2c:	460d      	mov	r5, r1
 8009a2e:	4602      	mov	r2, r0
 8009a30:	460b      	mov	r3, r1
 8009a32:	4640      	mov	r0, r8
 8009a34:	4649      	mov	r1, r9
 8009a36:	f7f6 fde7 	bl	8000608 <__aeabi_dmul>
 8009a3a:	2200      	movs	r2, #0
 8009a3c:	e9cd 0100 	strd	r0, r1, [sp]
 8009a40:	f04f 4380 	mov.w	r3, #1073741824	; 0x40000000
 8009a44:	4620      	mov	r0, r4
 8009a46:	4629      	mov	r1, r5
 8009a48:	f7f6 fc26 	bl	8000298 <__aeabi_dsub>
 8009a4c:	4602      	mov	r2, r0
 8009a4e:	460b      	mov	r3, r1
 8009a50:	e9dd 0100 	ldrd	r0, r1, [sp]
 8009a54:	f7f6 ff02 	bl	800085c <__aeabi_ddiv>
 8009a58:	4632      	mov	r2, r6
 8009a5a:	4604      	mov	r4, r0
 8009a5c:	460d      	mov	r5, r1
 8009a5e:	463b      	mov	r3, r7
 8009a60:	4640      	mov	r0, r8
 8009a62:	4649      	mov	r1, r9
 8009a64:	f7f6 fdd0 	bl	8000608 <__aeabi_dmul>
 8009a68:	4632      	mov	r2, r6
 8009a6a:	463b      	mov	r3, r7
 8009a6c:	f7f6 fc16 	bl	800029c <__adddf3>
 8009a70:	4602      	mov	r2, r0
 8009a72:	460b      	mov	r3, r1
 8009a74:	4620      	mov	r0, r4
 8009a76:	4629      	mov	r1, r5
 8009a78:	f7f6 fc0e 	bl	8000298 <__aeabi_dsub>
 8009a7c:	4642      	mov	r2, r8
 8009a7e:	464b      	mov	r3, r9
 8009a80:	f7f6 fc0a 	bl	8000298 <__aeabi_dsub>
 8009a84:	4602      	mov	r2, r0
 8009a86:	460b      	mov	r3, r1
 8009a88:	2000      	movs	r0, #0
 8009a8a:	4939      	ldr	r1, [pc, #228]	; (8009b70 <__ieee754_pow+0xa08>)
 8009a8c:	f7f6 fc04 	bl	8000298 <__aeabi_dsub>
 8009a90:	eb01 540a 	add.w	r4, r1, sl, lsl #20
 8009a94:	f5b4 1f80 	cmp.w	r4, #1048576	; 0x100000
 8009a98:	4602      	mov	r2, r0
 8009a9a:	460b      	mov	r3, r1
 8009a9c:	da2f      	bge.n	8009afe <__ieee754_pow+0x996>
 8009a9e:	4650      	mov	r0, sl
 8009aa0:	ec43 2b10 	vmov	d0, r2, r3
 8009aa4:	f000 f9c0 	bl	8009e28 <scalbn>
 8009aa8:	ec51 0b10 	vmov	r0, r1, d0
 8009aac:	e9dd 2302 	ldrd	r2, r3, [sp, #8]
 8009ab0:	f7ff bbf1 	b.w	8009296 <__ieee754_pow+0x12e>
 8009ab4:	4b2f      	ldr	r3, [pc, #188]	; (8009b74 <__ieee754_pow+0xa0c>)
 8009ab6:	f021 4600 	bic.w	r6, r1, #2147483648	; 0x80000000
 8009aba:	429e      	cmp	r6, r3
 8009abc:	f77f af0c 	ble.w	80098d8 <__ieee754_pow+0x770>
 8009ac0:	4b2d      	ldr	r3, [pc, #180]	; (8009b78 <__ieee754_pow+0xa10>)
 8009ac2:	440b      	add	r3, r1
 8009ac4:	4303      	orrs	r3, r0
 8009ac6:	d00b      	beq.n	8009ae0 <__ieee754_pow+0x978>
 8009ac8:	a325      	add	r3, pc, #148	; (adr r3, 8009b60 <__ieee754_pow+0x9f8>)
 8009aca:	e9d3 2300 	ldrd	r2, r3, [r3]
 8009ace:	e9dd 0102 	ldrd	r0, r1, [sp, #8]
 8009ad2:	f7f6 fd99 	bl	8000608 <__aeabi_dmul>
 8009ad6:	a322      	add	r3, pc, #136	; (adr r3, 8009b60 <__ieee754_pow+0x9f8>)
 8009ad8:	e9d3 2300 	ldrd	r2, r3, [r3]
 8009adc:	f7ff bbdb 	b.w	8009296 <__ieee754_pow+0x12e>
 8009ae0:	4622      	mov	r2, r4
 8009ae2:	462b      	mov	r3, r5
 8009ae4:	f7f6 fbd8 	bl	8000298 <__aeabi_dsub>
 8009ae8:	4642      	mov	r2, r8
 8009aea:	464b      	mov	r3, r9
 8009aec:	f7f7 f812 	bl	8000b14 <__aeabi_dcmpge>
 8009af0:	2800      	cmp	r0, #0
 8009af2:	f43f aef1 	beq.w	80098d8 <__ieee754_pow+0x770>
 8009af6:	e7e7      	b.n	8009ac8 <__ieee754_pow+0x960>
 8009af8:	f04f 0a00 	mov.w	sl, #0
 8009afc:	e718      	b.n	8009930 <__ieee754_pow+0x7c8>
 8009afe:	4621      	mov	r1, r4
 8009b00:	e7d4      	b.n	8009aac <__ieee754_pow+0x944>
 8009b02:	2000      	movs	r0, #0
 8009b04:	491a      	ldr	r1, [pc, #104]	; (8009b70 <__ieee754_pow+0xa08>)
 8009b06:	f7ff bb8f 	b.w	8009228 <__ieee754_pow+0xc0>
 8009b0a:	e9dd 0100 	ldrd	r0, r1, [sp]
 8009b0e:	f7ff bb8b 	b.w	8009228 <__ieee754_pow+0xc0>
 8009b12:	4630      	mov	r0, r6
 8009b14:	4639      	mov	r1, r7
 8009b16:	f7ff bb87 	b.w	8009228 <__ieee754_pow+0xc0>
 8009b1a:	4693      	mov	fp, r2
 8009b1c:	f7ff bb98 	b.w	8009250 <__ieee754_pow+0xe8>
 8009b20:	00000000 	.word	0x00000000
 8009b24:	3fe62e43 	.word	0x3fe62e43
 8009b28:	fefa39ef 	.word	0xfefa39ef
 8009b2c:	3fe62e42 	.word	0x3fe62e42
 8009b30:	0ca86c39 	.word	0x0ca86c39
 8009b34:	be205c61 	.word	0xbe205c61
 8009b38:	72bea4d0 	.word	0x72bea4d0
 8009b3c:	3e663769 	.word	0x3e663769
 8009b40:	c5d26bf1 	.word	0xc5d26bf1
 8009b44:	3ebbbd41 	.word	0x3ebbbd41
 8009b48:	af25de2c 	.word	0xaf25de2c
 8009b4c:	3f11566a 	.word	0x3f11566a
 8009b50:	16bebd93 	.word	0x16bebd93
 8009b54:	3f66c16c 	.word	0x3f66c16c
 8009b58:	5555553e 	.word	0x5555553e
 8009b5c:	3fc55555 	.word	0x3fc55555
 8009b60:	c2f8f359 	.word	0xc2f8f359
 8009b64:	01a56e1f 	.word	0x01a56e1f
 8009b68:	3fe00000 	.word	0x3fe00000
 8009b6c:	000fffff 	.word	0x000fffff
 8009b70:	3ff00000 	.word	0x3ff00000
 8009b74:	4090cbff 	.word	0x4090cbff
 8009b78:	3f6f3400 	.word	0x3f6f3400
 8009b7c:	652b82fe 	.word	0x652b82fe
 8009b80:	3c971547 	.word	0x3c971547

08009b84 <__ieee754_sqrt>:
 8009b84:	e92d 41f0 	stmdb	sp!, {r4, r5, r6, r7, r8, lr}
 8009b88:	4955      	ldr	r1, [pc, #340]	; (8009ce0 <__ieee754_sqrt+0x15c>)
 8009b8a:	ec55 4b10 	vmov	r4, r5, d0
 8009b8e:	43a9      	bics	r1, r5
 8009b90:	462b      	mov	r3, r5
 8009b92:	462a      	mov	r2, r5
 8009b94:	d112      	bne.n	8009bbc <__ieee754_sqrt+0x38>
 8009b96:	ee10 2a10 	vmov	r2, s0
 8009b9a:	ee10 0a10 	vmov	r0, s0
 8009b9e:	4629      	mov	r1, r5
 8009ba0:	f7f6 fd32 	bl	8000608 <__aeabi_dmul>
 8009ba4:	4602      	mov	r2, r0
 8009ba6:	460b      	mov	r3, r1
 8009ba8:	4620      	mov	r0, r4
 8009baa:	4629      	mov	r1, r5
 8009bac:	f7f6 fb76 	bl	800029c <__adddf3>
 8009bb0:	4604      	mov	r4, r0
 8009bb2:	460d      	mov	r5, r1
 8009bb4:	ec45 4b10 	vmov	d0, r4, r5
 8009bb8:	e8bd 81f0 	ldmia.w	sp!, {r4, r5, r6, r7, r8, pc}
 8009bbc:	2d00      	cmp	r5, #0
 8009bbe:	ee10 0a10 	vmov	r0, s0
 8009bc2:	4621      	mov	r1, r4
 8009bc4:	dc0f      	bgt.n	8009be6 <__ieee754_sqrt+0x62>
 8009bc6:	f025 4600 	bic.w	r6, r5, #2147483648	; 0x80000000
 8009bca:	4330      	orrs	r0, r6
 8009bcc:	d0f2      	beq.n	8009bb4 <__ieee754_sqrt+0x30>
 8009bce:	b155      	cbz	r5, 8009be6 <__ieee754_sqrt+0x62>
 8009bd0:	ee10 2a10 	vmov	r2, s0
 8009bd4:	4620      	mov	r0, r4
 8009bd6:	4629      	mov	r1, r5
 8009bd8:	f7f6 fb5e 	bl	8000298 <__aeabi_dsub>
 8009bdc:	4602      	mov	r2, r0
 8009bde:	460b      	mov	r3, r1
 8009be0:	f7f6 fe3c 	bl	800085c <__aeabi_ddiv>
 8009be4:	e7e4      	b.n	8009bb0 <__ieee754_sqrt+0x2c>
 8009be6:	151b      	asrs	r3, r3, #20
 8009be8:	d073      	beq.n	8009cd2 <__ieee754_sqrt+0x14e>
 8009bea:	f2a3 33ff 	subw	r3, r3, #1023	; 0x3ff
 8009bee:	07dd      	lsls	r5, r3, #31
 8009bf0:	f3c2 0213 	ubfx	r2, r2, #0, #20
 8009bf4:	bf48      	it	mi
 8009bf6:	0fc8      	lsrmi	r0, r1, #31
 8009bf8:	f442 1280 	orr.w	r2, r2, #1048576	; 0x100000
 8009bfc:	bf44      	itt	mi
 8009bfe:	0049      	lslmi	r1, r1, #1
 8009c00:	eb00 0242 	addmi.w	r2, r0, r2, lsl #1
 8009c04:	2500      	movs	r5, #0
 8009c06:	1058      	asrs	r0, r3, #1
 8009c08:	0fcb      	lsrs	r3, r1, #31
 8009c0a:	eb03 0242 	add.w	r2, r3, r2, lsl #1
 8009c0e:	0049      	lsls	r1, r1, #1
 8009c10:	2316      	movs	r3, #22
 8009c12:	462c      	mov	r4, r5
 8009c14:	f44f 1600 	mov.w	r6, #2097152	; 0x200000
 8009c18:	19a7      	adds	r7, r4, r6
 8009c1a:	4297      	cmp	r7, r2
 8009c1c:	bfde      	ittt	le
 8009c1e:	19bc      	addle	r4, r7, r6
 8009c20:	1bd2      	suble	r2, r2, r7
 8009c22:	19ad      	addle	r5, r5, r6
 8009c24:	0fcf      	lsrs	r7, r1, #31
 8009c26:	3b01      	subs	r3, #1
 8009c28:	eb07 0242 	add.w	r2, r7, r2, lsl #1
 8009c2c:	ea4f 0141 	mov.w	r1, r1, lsl #1
 8009c30:	ea4f 0656 	mov.w	r6, r6, lsr #1
 8009c34:	d1f0      	bne.n	8009c18 <__ieee754_sqrt+0x94>
 8009c36:	f04f 0c20 	mov.w	ip, #32
 8009c3a:	469e      	mov	lr, r3
 8009c3c:	f04f 4600 	mov.w	r6, #2147483648	; 0x80000000
 8009c40:	42a2      	cmp	r2, r4
 8009c42:	eb06 070e 	add.w	r7, r6, lr
 8009c46:	dc02      	bgt.n	8009c4e <__ieee754_sqrt+0xca>
 8009c48:	d112      	bne.n	8009c70 <__ieee754_sqrt+0xec>
 8009c4a:	428f      	cmp	r7, r1
 8009c4c:	d810      	bhi.n	8009c70 <__ieee754_sqrt+0xec>
 8009c4e:	2f00      	cmp	r7, #0
 8009c50:	eb07 0e06 	add.w	lr, r7, r6
 8009c54:	da42      	bge.n	8009cdc <__ieee754_sqrt+0x158>
 8009c56:	f1be 0f00 	cmp.w	lr, #0
 8009c5a:	db3f      	blt.n	8009cdc <__ieee754_sqrt+0x158>
 8009c5c:	f104 0801 	add.w	r8, r4, #1
 8009c60:	1b12      	subs	r2, r2, r4
 8009c62:	428f      	cmp	r7, r1
 8009c64:	bf88      	it	hi
 8009c66:	f102 32ff 	addhi.w	r2, r2, #4294967295
 8009c6a:	1bc9      	subs	r1, r1, r7
 8009c6c:	4433      	add	r3, r6
 8009c6e:	4644      	mov	r4, r8
 8009c70:	0052      	lsls	r2, r2, #1
 8009c72:	f1bc 0c01 	subs.w	ip, ip, #1
 8009c76:	eb02 72d1 	add.w	r2, r2, r1, lsr #31
 8009c7a:	ea4f 0656 	mov.w	r6, r6, lsr #1
 8009c7e:	ea4f 0141 	mov.w	r1, r1, lsl #1
 8009c82:	d1dd      	bne.n	8009c40 <__ieee754_sqrt+0xbc>
 8009c84:	430a      	orrs	r2, r1
 8009c86:	d006      	beq.n	8009c96 <__ieee754_sqrt+0x112>
 8009c88:	1c5c      	adds	r4, r3, #1
 8009c8a:	bf13      	iteet	ne
 8009c8c:	3301      	addne	r3, #1
 8009c8e:	3501      	addeq	r5, #1
 8009c90:	4663      	moveq	r3, ip
 8009c92:	f023 0301 	bicne.w	r3, r3, #1
 8009c96:	106a      	asrs	r2, r5, #1
 8009c98:	085b      	lsrs	r3, r3, #1
 8009c9a:	07e9      	lsls	r1, r5, #31
 8009c9c:	f102 527f 	add.w	r2, r2, #1069547520	; 0x3fc00000
 8009ca0:	f502 1200 	add.w	r2, r2, #2097152	; 0x200000
 8009ca4:	bf48      	it	mi
 8009ca6:	f043 4300 	orrmi.w	r3, r3, #2147483648	; 0x80000000
 8009caa:	eb02 5500 	add.w	r5, r2, r0, lsl #20
 8009cae:	461c      	mov	r4, r3
 8009cb0:	e780      	b.n	8009bb4 <__ieee754_sqrt+0x30>
 8009cb2:	0aca      	lsrs	r2, r1, #11
 8009cb4:	3815      	subs	r0, #21
 8009cb6:	0549      	lsls	r1, r1, #21
 8009cb8:	2a00      	cmp	r2, #0
 8009cba:	d0fa      	beq.n	8009cb2 <__ieee754_sqrt+0x12e>
 8009cbc:	02d6      	lsls	r6, r2, #11
 8009cbe:	d50a      	bpl.n	8009cd6 <__ieee754_sqrt+0x152>
 8009cc0:	f1c3 0420 	rsb	r4, r3, #32
 8009cc4:	fa21 f404 	lsr.w	r4, r1, r4
 8009cc8:	1e5d      	subs	r5, r3, #1
 8009cca:	4099      	lsls	r1, r3
 8009ccc:	4322      	orrs	r2, r4
 8009cce:	1b43      	subs	r3, r0, r5
 8009cd0:	e78b      	b.n	8009bea <__ieee754_sqrt+0x66>
 8009cd2:	4618      	mov	r0, r3
 8009cd4:	e7f0      	b.n	8009cb8 <__ieee754_sqrt+0x134>
 8009cd6:	0052      	lsls	r2, r2, #1
 8009cd8:	3301      	adds	r3, #1
 8009cda:	e7ef      	b.n	8009cbc <__ieee754_sqrt+0x138>
 8009cdc:	46a0      	mov	r8, r4
 8009cde:	e7bf      	b.n	8009c60 <__ieee754_sqrt+0xdc>
 8009ce0:	7ff00000 	.word	0x7ff00000

08009ce4 <fabs>:
 8009ce4:	ec51 0b10 	vmov	r0, r1, d0
 8009ce8:	ee10 2a10 	vmov	r2, s0
 8009cec:	f021 4300 	bic.w	r3, r1, #2147483648	; 0x80000000
 8009cf0:	ec43 2b10 	vmov	d0, r2, r3
 8009cf4:	4770      	bx	lr

08009cf6 <finite>:
 8009cf6:	ee10 3a90 	vmov	r3, s1
 8009cfa:	f043 4000 	orr.w	r0, r3, #2147483648	; 0x80000000
 8009cfe:	f500 1080 	add.w	r0, r0, #1048576	; 0x100000
 8009d02:	0fc0      	lsrs	r0, r0, #31
 8009d04:	4770      	bx	lr

08009d06 <matherr>:
 8009d06:	2000      	movs	r0, #0
 8009d08:	4770      	bx	lr
 8009d0a:	0000      	movs	r0, r0
 8009d0c:	0000      	movs	r0, r0
	...

08009d10 <nan>:
 8009d10:	ed9f 0b01 	vldr	d0, [pc, #4]	; 8009d18 <nan+0x8>
 8009d14:	4770      	bx	lr
 8009d16:	bf00      	nop
 8009d18:	00000000 	.word	0x00000000
 8009d1c:	7ff80000 	.word	0x7ff80000

08009d20 <rint>:
 8009d20:	b5f7      	push	{r0, r1, r2, r4, r5, r6, r7, lr}
 8009d22:	ec51 0b10 	vmov	r0, r1, d0
 8009d26:	f3c1 520a 	ubfx	r2, r1, #20, #11
 8009d2a:	f2a2 36ff 	subw	r6, r2, #1023	; 0x3ff
 8009d2e:	2e13      	cmp	r6, #19
 8009d30:	460b      	mov	r3, r1
 8009d32:	ee10 4a10 	vmov	r4, s0
 8009d36:	ea4f 75d1 	mov.w	r5, r1, lsr #31
 8009d3a:	dc56      	bgt.n	8009dea <rint+0xca>
 8009d3c:	2e00      	cmp	r6, #0
 8009d3e:	da2b      	bge.n	8009d98 <rint+0x78>
 8009d40:	f021 4200 	bic.w	r2, r1, #2147483648	; 0x80000000
 8009d44:	4302      	orrs	r2, r0
 8009d46:	d023      	beq.n	8009d90 <rint+0x70>
 8009d48:	f3c1 0213 	ubfx	r2, r1, #0, #20
 8009d4c:	4302      	orrs	r2, r0
 8009d4e:	4254      	negs	r4, r2
 8009d50:	4314      	orrs	r4, r2
 8009d52:	0c4b      	lsrs	r3, r1, #17
 8009d54:	0b24      	lsrs	r4, r4, #12
 8009d56:	045b      	lsls	r3, r3, #17
 8009d58:	f404 2400 	and.w	r4, r4, #524288	; 0x80000
 8009d5c:	ea44 0103 	orr.w	r1, r4, r3
 8009d60:	460b      	mov	r3, r1
 8009d62:	492f      	ldr	r1, [pc, #188]	; (8009e20 <rint+0x100>)
 8009d64:	eb01 01c5 	add.w	r1, r1, r5, lsl #3
 8009d68:	e9d1 6700 	ldrd	r6, r7, [r1]
 8009d6c:	4602      	mov	r2, r0
 8009d6e:	4639      	mov	r1, r7
 8009d70:	4630      	mov	r0, r6
 8009d72:	f7f6 fa93 	bl	800029c <__adddf3>
 8009d76:	e9cd 0100 	strd	r0, r1, [sp]
 8009d7a:	463b      	mov	r3, r7
 8009d7c:	4632      	mov	r2, r6
 8009d7e:	e9dd 0100 	ldrd	r0, r1, [sp]
 8009d82:	f7f6 fa89 	bl	8000298 <__aeabi_dsub>
 8009d86:	f021 4300 	bic.w	r3, r1, #2147483648	; 0x80000000
 8009d8a:	ea43 77c5 	orr.w	r7, r3, r5, lsl #31
 8009d8e:	4639      	mov	r1, r7
 8009d90:	ec41 0b10 	vmov	d0, r0, r1
 8009d94:	b003      	add	sp, #12
 8009d96:	bdf0      	pop	{r4, r5, r6, r7, pc}
 8009d98:	4a22      	ldr	r2, [pc, #136]	; (8009e24 <rint+0x104>)
 8009d9a:	4132      	asrs	r2, r6
 8009d9c:	ea01 0702 	and.w	r7, r1, r2
 8009da0:	4307      	orrs	r7, r0
 8009da2:	d0f5      	beq.n	8009d90 <rint+0x70>
 8009da4:	0852      	lsrs	r2, r2, #1
 8009da6:	4011      	ands	r1, r2
 8009da8:	430c      	orrs	r4, r1
 8009daa:	d00b      	beq.n	8009dc4 <rint+0xa4>
 8009dac:	ea23 0202 	bic.w	r2, r3, r2
 8009db0:	f44f 2380 	mov.w	r3, #262144	; 0x40000
 8009db4:	2e13      	cmp	r6, #19
 8009db6:	fa43 f306 	asr.w	r3, r3, r6
 8009dba:	bf0c      	ite	eq
 8009dbc:	f04f 4400 	moveq.w	r4, #2147483648	; 0x80000000
 8009dc0:	2400      	movne	r4, #0
 8009dc2:	4313      	orrs	r3, r2
 8009dc4:	4916      	ldr	r1, [pc, #88]	; (8009e20 <rint+0x100>)
 8009dc6:	eb01 05c5 	add.w	r5, r1, r5, lsl #3
 8009dca:	4622      	mov	r2, r4
 8009dcc:	e9d5 4500 	ldrd	r4, r5, [r5]
 8009dd0:	4620      	mov	r0, r4
 8009dd2:	4629      	mov	r1, r5
 8009dd4:	f7f6 fa62 	bl	800029c <__adddf3>
 8009dd8:	e9cd 0100 	strd	r0, r1, [sp]
 8009ddc:	4622      	mov	r2, r4
 8009dde:	462b      	mov	r3, r5
 8009de0:	e9dd 0100 	ldrd	r0, r1, [sp]
 8009de4:	f7f6 fa58 	bl	8000298 <__aeabi_dsub>
 8009de8:	e7d2      	b.n	8009d90 <rint+0x70>
 8009dea:	2e33      	cmp	r6, #51	; 0x33
 8009dec:	dd07      	ble.n	8009dfe <rint+0xde>
 8009dee:	f5b6 6f80 	cmp.w	r6, #1024	; 0x400
 8009df2:	d1cd      	bne.n	8009d90 <rint+0x70>
 8009df4:	ee10 2a10 	vmov	r2, s0
 8009df8:	f7f6 fa50 	bl	800029c <__adddf3>
 8009dfc:	e7c8      	b.n	8009d90 <rint+0x70>
 8009dfe:	f2a2 4613 	subw	r6, r2, #1043	; 0x413
 8009e02:	f04f 32ff 	mov.w	r2, #4294967295
 8009e06:	40f2      	lsrs	r2, r6
 8009e08:	4210      	tst	r0, r2
 8009e0a:	d0c1      	beq.n	8009d90 <rint+0x70>
 8009e0c:	0852      	lsrs	r2, r2, #1
 8009e0e:	4210      	tst	r0, r2
 8009e10:	bf1f      	itttt	ne
 8009e12:	f04f 4480 	movne.w	r4, #1073741824	; 0x40000000
 8009e16:	ea20 0202 	bicne.w	r2, r0, r2
 8009e1a:	4134      	asrne	r4, r6
 8009e1c:	4314      	orrne	r4, r2
 8009e1e:	e7d1      	b.n	8009dc4 <rint+0xa4>
 8009e20:	0800a1e8 	.word	0x0800a1e8
 8009e24:	000fffff 	.word	0x000fffff

08009e28 <scalbn>:
 8009e28:	b570      	push	{r4, r5, r6, lr}
 8009e2a:	ec55 4b10 	vmov	r4, r5, d0
 8009e2e:	f3c5 520a 	ubfx	r2, r5, #20, #11
 8009e32:	4606      	mov	r6, r0
 8009e34:	462b      	mov	r3, r5
 8009e36:	b9aa      	cbnz	r2, 8009e64 <scalbn+0x3c>
 8009e38:	f025 4300 	bic.w	r3, r5, #2147483648	; 0x80000000
 8009e3c:	4323      	orrs	r3, r4
 8009e3e:	d03b      	beq.n	8009eb8 <scalbn+0x90>
 8009e40:	4b31      	ldr	r3, [pc, #196]	; (8009f08 <scalbn+0xe0>)
 8009e42:	4629      	mov	r1, r5
 8009e44:	2200      	movs	r2, #0
 8009e46:	ee10 0a10 	vmov	r0, s0
 8009e4a:	f7f6 fbdd 	bl	8000608 <__aeabi_dmul>
 8009e4e:	4b2f      	ldr	r3, [pc, #188]	; (8009f0c <scalbn+0xe4>)
 8009e50:	429e      	cmp	r6, r3
 8009e52:	4604      	mov	r4, r0
 8009e54:	460d      	mov	r5, r1
 8009e56:	da12      	bge.n	8009e7e <scalbn+0x56>
 8009e58:	a327      	add	r3, pc, #156	; (adr r3, 8009ef8 <scalbn+0xd0>)
 8009e5a:	e9d3 2300 	ldrd	r2, r3, [r3]
 8009e5e:	f7f6 fbd3 	bl	8000608 <__aeabi_dmul>
 8009e62:	e009      	b.n	8009e78 <scalbn+0x50>
 8009e64:	f240 71ff 	movw	r1, #2047	; 0x7ff
 8009e68:	428a      	cmp	r2, r1
 8009e6a:	d10c      	bne.n	8009e86 <scalbn+0x5e>
 8009e6c:	ee10 2a10 	vmov	r2, s0
 8009e70:	4620      	mov	r0, r4
 8009e72:	4629      	mov	r1, r5
 8009e74:	f7f6 fa12 	bl	800029c <__adddf3>
 8009e78:	4604      	mov	r4, r0
 8009e7a:	460d      	mov	r5, r1
 8009e7c:	e01c      	b.n	8009eb8 <scalbn+0x90>
 8009e7e:	f3c1 520a 	ubfx	r2, r1, #20, #11
 8009e82:	460b      	mov	r3, r1
 8009e84:	3a36      	subs	r2, #54	; 0x36
 8009e86:	4432      	add	r2, r6
 8009e88:	f240 71fe 	movw	r1, #2046	; 0x7fe
 8009e8c:	428a      	cmp	r2, r1
 8009e8e:	dd0b      	ble.n	8009ea8 <scalbn+0x80>
 8009e90:	ec45 4b11 	vmov	d1, r4, r5
 8009e94:	ed9f 0b1a 	vldr	d0, [pc, #104]	; 8009f00 <scalbn+0xd8>
 8009e98:	f000 f83c 	bl	8009f14 <copysign>
 8009e9c:	a318      	add	r3, pc, #96	; (adr r3, 8009f00 <scalbn+0xd8>)
 8009e9e:	e9d3 2300 	ldrd	r2, r3, [r3]
 8009ea2:	ec51 0b10 	vmov	r0, r1, d0
 8009ea6:	e7da      	b.n	8009e5e <scalbn+0x36>
 8009ea8:	2a00      	cmp	r2, #0
 8009eaa:	dd08      	ble.n	8009ebe <scalbn+0x96>
 8009eac:	f023 43ff 	bic.w	r3, r3, #2139095040	; 0x7f800000
 8009eb0:	f423 03e0 	bic.w	r3, r3, #7340032	; 0x700000
 8009eb4:	ea43 5502 	orr.w	r5, r3, r2, lsl #20
 8009eb8:	ec45 4b10 	vmov	d0, r4, r5
 8009ebc:	bd70      	pop	{r4, r5, r6, pc}
 8009ebe:	f112 0f35 	cmn.w	r2, #53	; 0x35
 8009ec2:	da0d      	bge.n	8009ee0 <scalbn+0xb8>
 8009ec4:	f24c 3350 	movw	r3, #50000	; 0xc350
 8009ec8:	429e      	cmp	r6, r3
 8009eca:	ec45 4b11 	vmov	d1, r4, r5
 8009ece:	dce1      	bgt.n	8009e94 <scalbn+0x6c>
 8009ed0:	ed9f 0b09 	vldr	d0, [pc, #36]	; 8009ef8 <scalbn+0xd0>
 8009ed4:	f000 f81e 	bl	8009f14 <copysign>
 8009ed8:	a307      	add	r3, pc, #28	; (adr r3, 8009ef8 <scalbn+0xd0>)
 8009eda:	e9d3 2300 	ldrd	r2, r3, [r3]
 8009ede:	e7e0      	b.n	8009ea2 <scalbn+0x7a>
 8009ee0:	f023 43ff 	bic.w	r3, r3, #2139095040	; 0x7f800000
 8009ee4:	3236      	adds	r2, #54	; 0x36
 8009ee6:	f423 03e0 	bic.w	r3, r3, #7340032	; 0x700000
 8009eea:	ea43 5502 	orr.w	r5, r3, r2, lsl #20
 8009eee:	4620      	mov	r0, r4
 8009ef0:	4629      	mov	r1, r5
 8009ef2:	2200      	movs	r2, #0
 8009ef4:	4b06      	ldr	r3, [pc, #24]	; (8009f10 <scalbn+0xe8>)
 8009ef6:	e7b2      	b.n	8009e5e <scalbn+0x36>
 8009ef8:	c2f8f359 	.word	0xc2f8f359
 8009efc:	01a56e1f 	.word	0x01a56e1f
 8009f00:	8800759c 	.word	0x8800759c
 8009f04:	7e37e43c 	.word	0x7e37e43c
 8009f08:	43500000 	.word	0x43500000
 8009f0c:	ffff3cb0 	.word	0xffff3cb0
 8009f10:	3c900000 	.word	0x3c900000

08009f14 <copysign>:
 8009f14:	ec51 0b10 	vmov	r0, r1, d0
 8009f18:	ee11 0a90 	vmov	r0, s3
 8009f1c:	ee10 2a10 	vmov	r2, s0
 8009f20:	f021 4100 	bic.w	r1, r1, #2147483648	; 0x80000000
 8009f24:	f000 4000 	and.w	r0, r0, #2147483648	; 0x80000000
 8009f28:	ea41 0300 	orr.w	r3, r1, r0
 8009f2c:	ec43 2b10 	vmov	d0, r2, r3
 8009f30:	4770      	bx	lr
	...

08009f34 <_init>:
 8009f34:	b5f8      	push	{r3, r4, r5, r6, r7, lr}
 8009f36:	bf00      	nop
 8009f38:	bcf8      	pop	{r3, r4, r5, r6, r7}
 8009f3a:	bc08      	pop	{r3}
 8009f3c:	469e      	mov	lr, r3
 8009f3e:	4770      	bx	lr

08009f40 <_fini>:
 8009f40:	b5f8      	push	{r3, r4, r5, r6, r7, lr}
 8009f42:	bf00      	nop
 8009f44:	bcf8      	pop	{r3, r4, r5, r6, r7}
 8009f46:	bc08      	pop	{r3}
 8009f48:	469e      	mov	lr, r3
 8009f4a:	4770      	bx	lr
